Component: ARM Compiler 5.05 update 1 (build 106) Tool: armlink [4d0efa]

==============================================================================

Section Cross References

    main.o(i.RCC_Configuration) refers to stm32f10x_rcc.o(i.RCC_DeInit) for RCC_DeInit
    main.o(i.RCC_Configuration) refers to stm32f10x_rcc.o(i.RCC_HSICmd) for RCC_HSICmd
    main.o(i.RCC_Configuration) refers to stm32f10x_rcc.o(i.RCC_GetFlagStatus) for RCC_GetFlagStatus
    main.o(i.RCC_Configuration) refers to stm32f10x_rcc.o(i.RCC_HCLKConfig) for RCC_HCLKConfig
    main.o(i.RCC_Configuration) refers to stm32f10x_rcc.o(i.RCC_PCLK1Config) for RCC_PCLK1Config
    main.o(i.RCC_Configuration) refers to stm32f10x_rcc.o(i.RCC_PCLK2Config) for RCC_PCLK2Config
    main.o(i.RCC_Configuration) refers to stm32f10x_rcc.o(i.RCC_PLLConfig) for RCC_PLLConfig
    main.o(i.RCC_Configuration) refers to stm32f10x_rcc.o(i.RCC_PLLCmd) for RCC_PLLCmd
    main.o(i.RCC_Configuration) refers to stm32f10x_rcc.o(i.RCC_SYSCLKConfig) for RCC_SYSCLKConfig
    main.o(i.RCC_Configuration) refers to stm32f10x_rcc.o(i.RCC_GetSYSCLKSource) for RCC_GetSYSCLKSource
    main.o(i.main) refers to main.o(i.RCC_Configuration) for RCC_Configuration
    main.o(i.main) refers to application.o(i.application_init) for application_init
    main.o(i.main) refers to motordriver.o(i.TIM4_init) for TIM4_init
    main.o(i.main) refers to motordriver.o(i.MotorDriverGPIO_Init) for MotorDriverGPIO_Init
    main.o(i.main) refers to communicate.o(i.CommunicateUSART_Config) for CommunicateUSART_Config
    main.o(i.main) refers to stm32f10x_rcc.o(i.RCC_GetClocksFreq) for RCC_GetClocksFreq
    main.o(i.main) refers to log_printf.o(i.UART_Printf) for UART_Printf
    main.o(i.main) refers to adc.o(i.ADCinit) for ADCinit
    main.o(i.main) refers to application.o(i.PsdkProcessRec) for PsdkProcessRec
    main.o(i.main) refers to adc.o(i.Get_Adc) for Get_Adc
    main.o(i.main) refers to dfltui.o(.text) for __aeabi_ui2d
    main.o(i.main) refers to ddiv.o(.text) for __aeabi_ddiv
    main.o(i.main) refers to dmul.o(.text) for __aeabi_dmul
    main.o(i.main) refers to d2f.o(.text) for __aeabi_d2f
    main.o(i.main) refers to stm32f10x_gpio.o(i.GPIO_ReadOutputDataBit) for GPIO_ReadOutputDataBit
    main.o(i.main) refers to stm32f10x_gpio.o(i.GPIO_WriteBit) for GPIO_WriteBit
    main.o(i.main) refers to application.o(i.PsdkBigLEDTest) for PsdkBigLEDTest
    main.o(i.main) refers to communicate.o(i.CommunicateUsart_SendString) for CommunicateUsart_SendString
    main.o(i.main) refers to main.o(.bss) for SYSclock
    main.o(i.main) refers to main.o(.constdata) for __FUNCTION__
    main.o(i.main) refers to adc.o(.data) for ADC_value
    main.o(i.main) refers to motordriver.o(.data) for task_Run_flag
    main.o(i.main) refers to communicate.o(.data) for USART_TX_BUF
    application.o(i.FillInUserInfo) refers to memseta.o(.text) for __aeabi_memclr
    application.o(i.FillInUserInfo) refers to strcpy.o(.text) for strcpy
    application.o(i.FillInUserInfo) refers to log_printf.o(i.UART_Printf) for UART_Printf
    application.o(i.FillInUserInfo) refers to strcmp.o(.text) for strcmp
    application.o(i.FillInUserInfo) refers to application.o(.constdata) for __FUNCTION__
    application.o(i.FillInUserInfo) refers to application.o(.conststring) for .conststring
    application.o(i.PsdkBigLEDTest) refers to f2d.o(.text) for __aeabi_f2d
    application.o(i.PsdkBigLEDTest) refers to printfa.o(i.__0sprintf) for __2sprintf
    application.o(i.PsdkBigLEDTest) refers to psdk_app_func.o(i.PsdkAppFunc_PushMsgToFloatingWindow) for PsdkAppFunc_PushMsgToFloatingWindow
    application.o(i.PsdkBigLEDTest) refers to strlen.o(.text) for strlen
    application.o(i.PsdkBigLEDTest) refers to psdk_app_func.o(i.PsdkAppFunc_TransferToApp) for PsdkAppFunc_TransferToApp
    application.o(i.PsdkBigLEDTest) refers to application.o(.constdata) for .constdata
    application.o(i.PsdkBigLEDTest) refers to motordriver.o(.data) for LED_Open_Flag
    application.o(i.PsdkBigLEDTest) refers to communicate.o(.data) for USART_TX_BUF
    application.o(i.PsdkBigLEDTest) refers to adc.o(.data) for ADC_value
    application.o(i.PsdkBigLEDTest) refers to application.o(.bss) for s_printBuffer
    application.o(i.PsdkMotorTest) refers to f2d.o(.text) for __aeabi_f2d
    application.o(i.PsdkMotorTest) refers to printfa.o(i.__0sprintf) for __2sprintf
    application.o(i.PsdkMotorTest) refers to psdk_app_func.o(i.PsdkAppFunc_PushMsgToFloatingWindow) for PsdkAppFunc_PushMsgToFloatingWindow
    application.o(i.PsdkMotorTest) refers to strlen.o(.text) for strlen
    application.o(i.PsdkMotorTest) refers to psdk_app_func.o(i.PsdkAppFunc_TransferToApp) for PsdkAppFunc_TransferToApp
    application.o(i.PsdkMotorTest) refers to application.o(.constdata) for .constdata
    application.o(i.PsdkMotorTest) refers to motordriver.o(.data) for Motor_Run_flag
    application.o(i.PsdkMotorTest) refers to adc.o(.data) for ADC_value
    application.o(i.PsdkMotorTest) refers to application.o(.bss) for s_printBuffer
    application.o(i.PsdkProcessRec) refers to application.o(i.Psdk_Read) for Psdk_Read
    application.o(i.PsdkProcessRec) refers to psdk_upper.o(i.PsdkUpper_ProcessReceiveData) for PsdkUpper_ProcessReceiveData
    application.o(i.PsdkProcessRec) refers to application.o(.bss) for s_uartRecBuf
    application.o(i.Psdk_Read) refers to uart.o(i.UART_Read) for UART_Read
    application.o(i.Psdk_Write) refers to uart.o(i.UART_Write) for UART_Write
    application.o(i.application_init) refers to led_button_switch.o(i.LED_Init) for LED_Init
    application.o(i.application_init) refers to log_printf.o(i.LOG_Init) for LOG_Init
    application.o(i.application_init) refers to uart.o(i.UART_Init) for UART_Init
    application.o(i.application_init) refers to application.o(i.FillInUserInfo) for FillInUserInfo
    application.o(i.application_init) refers to psdk_upper.o(i.PsdkUpper_Init) for PsdkUpper_Init
    application.o(i.application_init) refers to psdk_upper.o(i.PsdkUpper_RegSendFunction) for PsdkUpper_RegSendFunction
    application.o(i.application_init) refers to psdk_app_func.o(i.PsdkAppFunc_Init) for PsdkAppFunc_Init
    application.o(i.application_init) refers to psdk_app_func.o(i.PsdkAppFunc_SetReceiveFromAppCallback) for PsdkAppFunc_SetReceiveFromAppCallback
    application.o(i.application_init) refers to psdk_app_func.o(i.PsdkAppFunc_SetWidgetList) for PsdkAppFunc_SetWidgetList
    application.o(i.application_init) refers to psdk_app_func.o(i.PsdkAppFunc_RegGetWidgetValueCallback) for PsdkAppFunc_RegGetWidgetValueCallback
    application.o(i.application_init) refers to psdk_app_func.o(i.PsdkAppFunc_RegSetWidgetValueCallback) for PsdkAppFunc_RegSetWidgetValueCallback
    application.o(i.application_init) refers to psdk_msg_subcribe.o(i.PsdkMsgSub_Init) for PsdkMsgSub_Init
    application.o(i.application_init) refers to psdk_msg_subcribe.o(i.PsdkMsgSub_RegMsgCallbackList) for PsdkMsgSub_RegMsgCallbackList
    application.o(i.application_init) refers to psdk_payload_gimbal.o(i.PsdkGimbal_Init) for PsdkGimbal_Init
    application.o(i.application_init) refers to application.o(.bss) for s_userInfo
    application.o(i.application_init) refers to application.o(i.Psdk_Write) for Psdk_Write
    application.o(i.application_init) refers to test_app_func.o(i.Test_ReceiveFromMobileSDKFunc) for Test_ReceiveFromMobileSDKFunc
    application.o(i.application_init) refers to test_app_func.o(.constdata) for g_TestWidgetCount
    application.o(i.application_init) refers to test_app_func.o(.data) for g_TestWidgetList
    application.o(i.application_init) refers to test_app_func.o(i.Test_GetWidgetValueFunc) for Test_GetWidgetValueFunc
    application.o(i.application_init) refers to test_app_func.o(i.Test_SetWidgetValueFunc) for Test_SetWidgetValueFunc
    application.o(i.application_init) refers to test_msg_push.o(.constdata) for g_PushDataMsgCallbackList
    application.o(i.application_init) refers to test_payload_gimbal_emu.o(.constdata) for g_testGimbalHandler
    application.o(.constdata) refers to application.o(.conststring) for .conststring
    dji_ringbuffer.o(i.RingBuf_Get) refers to memcpya.o(.text) for __aeabi_memcpy
    dji_ringbuffer.o(i.RingBuf_Init) refers to dji_ringbuffer.o(i.RingBuf_CutBufSizeToPowOfTwo) for RingBuf_CutBufSizeToPowOfTwo
    dji_ringbuffer.o(i.RingBuf_Put) refers to memcpya.o(.text) for __aeabi_memcpy
    led_button_switch.o(i.LED_Control) refers to stm32f10x_gpio.o(i.GPIO_ResetBits) for GPIO_ResetBits
    led_button_switch.o(i.LED_Control) refers to stm32f10x_gpio.o(i.GPIO_SetBits) for GPIO_SetBits
    led_button_switch.o(i.LED_Control) refers to stm32f10x_gpio.o(i.GPIO_ReadOutputDataBit) for GPIO_ReadOutputDataBit
    led_button_switch.o(i.LED_Init) refers to stm32f10x_rcc.o(i.RCC_APB2PeriphClockCmd) for RCC_APB2PeriphClockCmd
    led_button_switch.o(i.LED_Init) refers to stm32f10x_gpio.o(i.GPIO_Init) for GPIO_Init
    log_printf.o(i.LOG_Init) refers to uart.o(i.UART_Init) for UART_Init
    log_printf.o(i.LOG_Init) refers to log_printf.o(.data) for isLogInit
    log_printf.o(i.UART_Printf) refers to printfa.o(i.__0vsnprintf) for vsnprintf
    log_printf.o(i.UART_Printf) refers to strlen.o(.text) for strlen
    log_printf.o(i.UART_Printf) refers to uart.o(i.UART_Write) for UART_Write
    log_printf.o(i.UART_Printf) refers to log_printf.o(.data) for isLogInit
    sys.o(i.NVIC_Configuration) refers to misc.o(i.NVIC_PriorityGroupConfig) for NVIC_PriorityGroupConfig
    sys.o(i.NVIC_Configuration) refers to sys.o(i.Wrap_NVIC_SetPriority) for Wrap_NVIC_SetPriority
    sys.o(i.SysTick_Configuration) refers to stm32f10x_rcc.o(i.RCC_GetClocksFreq) for RCC_GetClocksFreq
    sys.o(i.SysTick_Configuration) refers to sys.o(i.NVIC_SetPriority) for NVIC_SetPriority
    sys.o(i.Sys_Delay) refers to sys.o(i.Sys_GetTick) for Sys_GetTick
    sys.o(i.Sys_GetTick) refers to sys.o(.data) for uwTick
    sys.o(i.Sys_IncTick) refers to sys.o(.data) for uwTick
    sys.o(i.Sys_Init) refers to sys.o(i.NVIC_Configuration) for NVIC_Configuration
    sys.o(i.Sys_Init) refers to sys.o(i.SysTick_Configuration) for SysTick_Configuration
    sys.o(i.Wrap_NVIC_SetPriority) refers to sys.o(i.NVIC_SetPriority) for NVIC_SetPriority
    uart.o(i.UART_Init) refers to dji_ringbuffer.o(i.RingBuf_Init) for RingBuf_Init
    uart.o(i.UART_Init) refers to stm32f10x_rcc.o(i.RCC_APB2PeriphClockCmd) for RCC_APB2PeriphClockCmd
    uart.o(i.UART_Init) refers to stm32f10x_gpio.o(i.GPIO_PinRemapConfig) for GPIO_PinRemapConfig
    uart.o(i.UART_Init) refers to stm32f10x_gpio.o(i.GPIO_Init) for GPIO_Init
    uart.o(i.UART_Init) refers to misc.o(i.NVIC_Init) for NVIC_Init
    uart.o(i.UART_Init) refers to stm32f10x_usart.o(i.USART_Init) for USART_Init
    uart.o(i.UART_Init) refers to stm32f10x_usart.o(i.USART_Cmd) for USART_Cmd
    uart.o(i.UART_Init) refers to stm32f10x_usart.o(i.USART_ITConfig) for USART_ITConfig
    uart.o(i.UART_Init) refers to stm32f10x_rcc.o(i.RCC_APB1PeriphClockCmd) for RCC_APB1PeriphClockCmd
    uart.o(i.UART_Init) refers to uart.o(.bss) for s_uart1ReadBuf
    uart.o(i.UART_Read) refers to dji_ringbuffer.o(i.RingBuf_Get) for RingBuf_Get
    uart.o(i.UART_Read) refers to uart.o(.bss) for s_uart1ReadRingBuffer
    uart.o(i.UART_Write) refers to dji_ringbuffer.o(i.RingBuf_Put) for RingBuf_Put
    uart.o(i.UART_Write) refers to stm32f10x_usart.o(i.USART_ITConfig) for USART_ITConfig
    uart.o(i.UART_Write) refers to uart.o(.bss) for s_uart1WriteRingBuffer
    uart.o(i.USART1_IRQHandler) refers to stm32f10x_usart.o(i.USART_GetITStatus) for USART_GetITStatus
    uart.o(i.USART1_IRQHandler) refers to stm32f10x_usart.o(i.USART_ReceiveData) for USART_ReceiveData
    uart.o(i.USART1_IRQHandler) refers to dji_ringbuffer.o(i.RingBuf_Put) for RingBuf_Put
    uart.o(i.USART1_IRQHandler) refers to dji_ringbuffer.o(i.RingBuf_Get) for RingBuf_Get
    uart.o(i.USART1_IRQHandler) refers to stm32f10x_usart.o(i.USART_SendData) for USART_SendData
    uart.o(i.USART1_IRQHandler) refers to stm32f10x_usart.o(i.USART_ITConfig) for USART_ITConfig
    uart.o(i.USART1_IRQHandler) refers to uart.o(.bss) for s_uart1ReadRingBuffer
    uart.o(i.USART2_IRQHandler) refers to stm32f10x_usart.o(i.USART_GetITStatus) for USART_GetITStatus
    uart.o(i.USART2_IRQHandler) refers to stm32f10x_usart.o(i.USART_ReceiveData) for USART_ReceiveData
    uart.o(i.USART2_IRQHandler) refers to dji_ringbuffer.o(i.RingBuf_Put) for RingBuf_Put
    uart.o(i.USART2_IRQHandler) refers to dji_ringbuffer.o(i.RingBuf_Get) for RingBuf_Get
    uart.o(i.USART2_IRQHandler) refers to stm32f10x_usart.o(i.USART_SendData) for USART_SendData
    uart.o(i.USART2_IRQHandler) refers to stm32f10x_usart.o(i.USART_ITConfig) for USART_ITConfig
    uart.o(i.USART2_IRQHandler) refers to uart.o(.bss) for s_uart2ReadRingBuffer
    uart.o(i.USART3_IRQHandler) refers to stm32f10x_usart.o(i.USART_GetITStatus) for USART_GetITStatus
    uart.o(i.USART3_IRQHandler) refers to stm32f10x_usart.o(i.USART_ReceiveData) for USART_ReceiveData
    uart.o(i.USART3_IRQHandler) refers to dji_ringbuffer.o(i.RingBuf_Put) for RingBuf_Put
    uart.o(i.USART3_IRQHandler) refers to dji_ringbuffer.o(i.RingBuf_Get) for RingBuf_Get
    uart.o(i.USART3_IRQHandler) refers to stm32f10x_usart.o(i.USART_SendData) for USART_SendData
    uart.o(i.USART3_IRQHandler) refers to stm32f10x_usart.o(i.USART_ITConfig) for USART_ITConfig
    uart.o(i.USART3_IRQHandler) refers to uart.o(.bss) for s_uart3ReadRingBuffer
    motordriver.o(i.MotorDriverGPIO_Init) refers to stm32f10x_rcc.o(i.RCC_APB2PeriphClockCmd) for RCC_APB2PeriphClockCmd
    motordriver.o(i.MotorDriverGPIO_Init) refers to stm32f10x_gpio.o(i.GPIO_Init) for GPIO_Init
    motordriver.o(i.TIM4_IRQHandler) refers to stm32f10x_tim.o(i.TIM_GetITStatus) for TIM_GetITStatus
    motordriver.o(i.TIM4_IRQHandler) refers to stm32f10x_tim.o(i.TIM_ClearITPendingBit) for TIM_ClearITPendingBit
    motordriver.o(i.TIM4_IRQHandler) refers to motordriver.o(i.TurnONLED) for TurnONLED
    motordriver.o(i.TIM4_IRQHandler) refers to motordriver.o(i.TurnOFFLED) for TurnOFFLED
    motordriver.o(i.TIM4_IRQHandler) refers to motordriver.o(.data) for task_Run_couter
    motordriver.o(i.TIM4_init) refers to stm32f10x_tim.o(i.TIM_DeInit) for TIM_DeInit
    motordriver.o(i.TIM4_init) refers to stm32f10x_rcc.o(i.RCC_APB1PeriphClockCmd) for RCC_APB1PeriphClockCmd
    motordriver.o(i.TIM4_init) refers to stm32f10x_tim.o(i.TIM_TimeBaseInit) for TIM_TimeBaseInit
    motordriver.o(i.TIM4_init) refers to stm32f10x_tim.o(i.TIM_ARRPreloadConfig) for TIM_ARRPreloadConfig
    motordriver.o(i.TIM4_init) refers to stm32f10x_tim.o(i.TIM_ITConfig) for TIM_ITConfig
    motordriver.o(i.TIM4_init) refers to stm32f10x_tim.o(i.TIM_Cmd) for TIM_Cmd
    motordriver.o(i.TIM4_init) refers to misc.o(i.NVIC_Init) for NVIC_Init
    motordriver.o(i.TurnOFFLED) refers to stm32f10x_gpio.o(i.GPIO_WriteBit) for GPIO_WriteBit
    motordriver.o(i.TurnONLED) refers to stm32f10x_gpio.o(i.GPIO_WriteBit) for GPIO_WriteBit
    gua_timer1_pwm.o(i.GUA_Timer1_PWM_Config_Init) refers to stm32f10x_rcc.o(i.RCC_APB2PeriphClockCmd) for RCC_APB2PeriphClockCmd
    gua_timer1_pwm.o(i.GUA_Timer1_PWM_Config_Init) refers to stm32f10x_tim.o(i.TIM_TimeBaseInit) for TIM_TimeBaseInit
    gua_timer1_pwm.o(i.GUA_Timer1_PWM_Config_Init) refers to stm32f10x_tim.o(i.TIM_OC1Init) for TIM_OC1Init
    gua_timer1_pwm.o(i.GUA_Timer1_PWM_Config_Init) refers to stm32f10x_tim.o(i.TIM_OC2Init) for TIM_OC2Init
    gua_timer1_pwm.o(i.GUA_Timer1_PWM_Config_Init) refers to gua_timer1_pwm.o(i.GUA_Timer1_PWM_Status) for GUA_Timer1_PWM_Status
    gua_timer1_pwm.o(i.GUA_Timer1_PWM_Config_Init) refers to stm32f10x_tim.o(i.TIM_OC2PreloadConfig) for TIM_OC2PreloadConfig
    gua_timer1_pwm.o(i.GUA_Timer1_PWM_Config_Init) refers to stm32f10x_tim.o(i.TIM_ARRPreloadConfig) for TIM_ARRPreloadConfig
    gua_timer1_pwm.o(i.GUA_Timer1_PWM_Config_Init) refers to stm32f10x_tim.o(i.TIM_Cmd) for TIM_Cmd
    gua_timer1_pwm.o(i.GUA_Timer1_PWM_IO_Init) refers to stm32f10x_rcc.o(i.RCC_APB2PeriphClockCmd) for RCC_APB2PeriphClockCmd
    gua_timer1_pwm.o(i.GUA_Timer1_PWM_IO_Init) refers to stm32f10x_gpio.o(i.GPIO_Init) for GPIO_Init
    gua_timer1_pwm.o(i.GUA_Timer1_PWM_Init) refers to gua_timer1_pwm.o(i.GUA_Timer1_PWM_IO_Init) for GUA_Timer1_PWM_IO_Init
    gua_timer1_pwm.o(i.GUA_Timer1_PWM_Init) refers to gua_timer1_pwm.o(i.GUA_Timer1_PWM_Config_Init) for GUA_Timer1_PWM_Config_Init
    gua_timer1_pwm.o(i.GUA_Timer1_PWM_SetDutyCycle) refers to stm32f10x_tim.o(i.TIM_SetCompare1) for TIM_SetCompare1
    gua_timer1_pwm.o(i.GUA_Timer1_PWM_SetDutyCycle) refers to stm32f10x_tim.o(i.TIM_SetCompare2) for TIM_SetCompare2
    gua_timer1_pwm.o(i.GUA_Timer1_PWM_Status) refers to stm32f10x_tim.o(i.TIM_SetCounter) for TIM_SetCounter
    gua_timer1_pwm.o(i.GUA_Timer1_PWM_Status) refers to stm32f10x_tim.o(i.TIM_CtrlPWMOutputs) for TIM_CtrlPWMOutputs
    adc.o(i.ADC1_GPIO_Config) refers to stm32f10x_rcc.o(i.RCC_APB2PeriphClockCmd) for RCC_APB2PeriphClockCmd
    adc.o(i.ADC1_GPIO_Config) refers to stm32f10x_gpio.o(i.GPIO_Init) for GPIO_Init
    adc.o(i.ADCinit) refers to adc.o(i.ADC1_GPIO_Config) for ADC1_GPIO_Config
    adc.o(i.ADCinit) refers to adc.o(i.Adc1_Init) for Adc1_Init
    adc.o(i.Adc1_Init) refers to stm32f10x_rcc.o(i.RCC_APB2PeriphClockCmd) for RCC_APB2PeriphClockCmd
    adc.o(i.Adc1_Init) refers to stm32f10x_rcc.o(i.RCC_ADCCLKConfig) for RCC_ADCCLKConfig
    adc.o(i.Adc1_Init) refers to stm32f10x_adc.o(i.ADC_Init) for ADC_Init
    adc.o(i.Adc1_Init) refers to stm32f10x_adc.o(i.ADC_RegularChannelConfig) for ADC_RegularChannelConfig
    adc.o(i.Adc1_Init) refers to stm32f10x_adc.o(i.ADC_Cmd) for ADC_Cmd
    adc.o(i.Adc1_Init) refers to stm32f10x_adc.o(i.ADC_ResetCalibration) for ADC_ResetCalibration
    adc.o(i.Adc1_Init) refers to stm32f10x_adc.o(i.ADC_GetResetCalibrationStatus) for ADC_GetResetCalibrationStatus
    adc.o(i.Adc1_Init) refers to stm32f10x_adc.o(i.ADC_StartCalibration) for ADC_StartCalibration
    adc.o(i.Adc1_Init) refers to stm32f10x_adc.o(i.ADC_GetCalibrationStatus) for ADC_GetCalibrationStatus
    adc.o(i.Get_Adc) refers to stm32f10x_adc.o(i.ADC_SoftwareStartConvCmd) for ADC_SoftwareStartConvCmd
    adc.o(i.Get_Adc) refers to stm32f10x_adc.o(i.ADC_GetFlagStatus) for ADC_GetFlagStatus
    adc.o(i.Get_Adc) refers to stm32f10x_adc.o(i.ADC_GetConversionValue) for ADC_GetConversionValue
    communicate.o(i.CommunicateUSART_Config) refers to stm32f10x_rcc.o(i.RCC_APB2PeriphClockCmd) for RCC_APB2PeriphClockCmd
    communicate.o(i.CommunicateUSART_Config) refers to stm32f10x_gpio.o(i.GPIO_PinRemapConfig) for GPIO_PinRemapConfig
    communicate.o(i.CommunicateUSART_Config) refers to stm32f10x_gpio.o(i.GPIO_Init) for GPIO_Init
    communicate.o(i.CommunicateUSART_Config) refers to stm32f10x_usart.o(i.USART_Init) for USART_Init
    communicate.o(i.CommunicateUSART_Config) refers to stm32f10x_usart.o(i.USART_ITConfig) for USART_ITConfig
    communicate.o(i.CommunicateUSART_Config) refers to stm32f10x_usart.o(i.USART_Cmd) for USART_Cmd
    communicate.o(i.CommunicateUsart_SendString) refers to communicate.o(i.Usart_SendByte) for Usart_SendByte
    communicate.o(i.CommunicateUsart_SendString) refers to stm32f10x_usart.o(i.USART_GetFlagStatus) for USART_GetFlagStatus
    communicate.o(i.Usart_SendByte) refers to stm32f10x_usart.o(i.USART_SendData) for USART_SendData
    communicate.o(i.Usart_SendByte) refers to stm32f10x_usart.o(i.USART_GetFlagStatus) for USART_GetFlagStatus
    stm32f10x_gpio.o(i.GPIO_AFIODeInit) refers to stm32f10x_rcc.o(i.RCC_APB2PeriphResetCmd) for RCC_APB2PeriphResetCmd
    stm32f10x_gpio.o(i.GPIO_DeInit) refers to stm32f10x_rcc.o(i.RCC_APB2PeriphResetCmd) for RCC_APB2PeriphResetCmd
    stm32f10x_rcc.o(i.RCC_GetClocksFreq) refers to stm32f10x_rcc.o(.data) for APBAHBPrescTable
    stm32f10x_rcc.o(i.RCC_WaitForHSEStartUp) refers to stm32f10x_rcc.o(i.RCC_GetFlagStatus) for RCC_GetFlagStatus
    stm32f10x_adc.o(i.ADC_DeInit) refers to stm32f10x_rcc.o(i.RCC_APB2PeriphResetCmd) for RCC_APB2PeriphResetCmd
    stm32f10x_flash.o(i.FLASH_EnableWriteProtection) refers to stm32f10x_flash.o(i.FLASH_WaitForLastOperation) for FLASH_WaitForLastOperation
    stm32f10x_flash.o(i.FLASH_EraseAllBank1Pages) refers to stm32f10x_flash.o(i.FLASH_WaitForLastBank1Operation) for FLASH_WaitForLastBank1Operation
    stm32f10x_flash.o(i.FLASH_EraseAllPages) refers to stm32f10x_flash.o(i.FLASH_WaitForLastOperation) for FLASH_WaitForLastOperation
    stm32f10x_flash.o(i.FLASH_EraseOptionBytes) refers to stm32f10x_flash.o(i.FLASH_GetReadOutProtectionStatus) for FLASH_GetReadOutProtectionStatus
    stm32f10x_flash.o(i.FLASH_EraseOptionBytes) refers to stm32f10x_flash.o(i.FLASH_WaitForLastOperation) for FLASH_WaitForLastOperation
    stm32f10x_flash.o(i.FLASH_ErasePage) refers to stm32f10x_flash.o(i.FLASH_WaitForLastOperation) for FLASH_WaitForLastOperation
    stm32f10x_flash.o(i.FLASH_ProgramHalfWord) refers to stm32f10x_flash.o(i.FLASH_WaitForLastOperation) for FLASH_WaitForLastOperation
    stm32f10x_flash.o(i.FLASH_ProgramOptionByteData) refers to stm32f10x_flash.o(i.FLASH_WaitForLastOperation) for FLASH_WaitForLastOperation
    stm32f10x_flash.o(i.FLASH_ProgramWord) refers to stm32f10x_flash.o(i.FLASH_WaitForLastOperation) for FLASH_WaitForLastOperation
    stm32f10x_flash.o(i.FLASH_ReadOutProtection) refers to stm32f10x_flash.o(i.FLASH_WaitForLastOperation) for FLASH_WaitForLastOperation
    stm32f10x_flash.o(i.FLASH_UserOptionByteConfig) refers to stm32f10x_flash.o(i.FLASH_WaitForLastOperation) for FLASH_WaitForLastOperation
    stm32f10x_flash.o(i.FLASH_WaitForLastBank1Operation) refers to stm32f10x_flash.o(i.FLASH_GetBank1Status) for FLASH_GetBank1Status
    stm32f10x_flash.o(i.FLASH_WaitForLastOperation) refers to stm32f10x_flash.o(i.FLASH_GetBank1Status) for FLASH_GetBank1Status
    stm32f10x_pwr.o(i.PWR_DeInit) refers to stm32f10x_rcc.o(i.RCC_APB1PeriphResetCmd) for RCC_APB1PeriphResetCmd
    stm32f10x_tim.o(i.TIM_DeInit) refers to stm32f10x_rcc.o(i.RCC_APB2PeriphResetCmd) for RCC_APB2PeriphResetCmd
    stm32f10x_tim.o(i.TIM_DeInit) refers to stm32f10x_rcc.o(i.RCC_APB1PeriphResetCmd) for RCC_APB1PeriphResetCmd
    stm32f10x_tim.o(i.TIM_ETRClockMode1Config) refers to stm32f10x_tim.o(i.TIM_ETRConfig) for TIM_ETRConfig
    stm32f10x_tim.o(i.TIM_ETRClockMode2Config) refers to stm32f10x_tim.o(i.TIM_ETRConfig) for TIM_ETRConfig
    stm32f10x_tim.o(i.TIM_ICInit) refers to stm32f10x_tim.o(i.TI1_Config) for TI1_Config
    stm32f10x_tim.o(i.TIM_ICInit) refers to stm32f10x_tim.o(i.TIM_SetIC1Prescaler) for TIM_SetIC1Prescaler
    stm32f10x_tim.o(i.TIM_ICInit) refers to stm32f10x_tim.o(i.TI2_Config) for TI2_Config
    stm32f10x_tim.o(i.TIM_ICInit) refers to stm32f10x_tim.o(i.TIM_SetIC2Prescaler) for TIM_SetIC2Prescaler
    stm32f10x_tim.o(i.TIM_ICInit) refers to stm32f10x_tim.o(i.TI3_Config) for TI3_Config
    stm32f10x_tim.o(i.TIM_ICInit) refers to stm32f10x_tim.o(i.TIM_SetIC3Prescaler) for TIM_SetIC3Prescaler
    stm32f10x_tim.o(i.TIM_ICInit) refers to stm32f10x_tim.o(i.TI4_Config) for TI4_Config
    stm32f10x_tim.o(i.TIM_ICInit) refers to stm32f10x_tim.o(i.TIM_SetIC4Prescaler) for TIM_SetIC4Prescaler
    stm32f10x_tim.o(i.TIM_ITRxExternalClockConfig) refers to stm32f10x_tim.o(i.TIM_SelectInputTrigger) for TIM_SelectInputTrigger
    stm32f10x_tim.o(i.TIM_PWMIConfig) refers to stm32f10x_tim.o(i.TI1_Config) for TI1_Config
    stm32f10x_tim.o(i.TIM_PWMIConfig) refers to stm32f10x_tim.o(i.TIM_SetIC1Prescaler) for TIM_SetIC1Prescaler
    stm32f10x_tim.o(i.TIM_PWMIConfig) refers to stm32f10x_tim.o(i.TI2_Config) for TI2_Config
    stm32f10x_tim.o(i.TIM_PWMIConfig) refers to stm32f10x_tim.o(i.TIM_SetIC2Prescaler) for TIM_SetIC2Prescaler
    stm32f10x_tim.o(i.TIM_TIxExternalClockConfig) refers to stm32f10x_tim.o(i.TI2_Config) for TI2_Config
    stm32f10x_tim.o(i.TIM_TIxExternalClockConfig) refers to stm32f10x_tim.o(i.TI1_Config) for TI1_Config
    stm32f10x_tim.o(i.TIM_TIxExternalClockConfig) refers to stm32f10x_tim.o(i.TIM_SelectInputTrigger) for TIM_SelectInputTrigger
    stm32f10x_usart.o(i.USART_DeInit) refers to stm32f10x_rcc.o(i.RCC_APB2PeriphResetCmd) for RCC_APB2PeriphResetCmd
    stm32f10x_usart.o(i.USART_DeInit) refers to stm32f10x_rcc.o(i.RCC_APB1PeriphResetCmd) for RCC_APB1PeriphResetCmd
    stm32f10x_usart.o(i.USART_Init) refers to stm32f10x_rcc.o(i.RCC_GetClocksFreq) for RCC_GetClocksFreq
    psdk_aes.o(i.PsdkAes_Decrypt) refers to psdk_debug.o(i.PsdkDebug_AssertFailed) for PsdkDebug_AssertFailed
    psdk_aes.o(i.PsdkAes_Decrypt) refers to psdk_aes.o(i.PsdkAes_KeySetup) for PsdkAes_KeySetup
    psdk_aes.o(i.PsdkAes_Decrypt) refers to psdk_aes.o(i.PsdkAes_SetupDecrypt) for PsdkAes_SetupDecrypt
    psdk_aes.o(i.PsdkAes_Encrypt) refers to psdk_debug.o(i.PsdkDebug_AssertFailed) for PsdkDebug_AssertFailed
    psdk_aes.o(i.PsdkAes_Encrypt) refers to psdk_aes.o(i.PsdkAes_KeySetup) for PsdkAes_KeySetup
    psdk_aes.o(i.PsdkAes_Encrypt) refers to psdk_aes.o(i.PsdkAes_SetupEncrypt) for PsdkAes_SetupEncrypt
    psdk_aes.o(i.PsdkAes_InvMixColumns) refers to psdk_aes.o(.constdata) for s_gfMul
    psdk_aes.o(i.PsdkAes_InvSubBytes) refers to psdk_aes.o(.constdata) for s_aesInvsbox
    psdk_aes.o(i.PsdkAes_KeySetup) refers to memcpya.o(.text) for __aeabi_memcpy4
    psdk_aes.o(i.PsdkAes_KeySetup) refers to psdk_aes.o(i.PsdkAes_SubWord) for PsdkAes_SubWord
    psdk_aes.o(i.PsdkAes_KeySetup) refers to psdk_aes.o(.constdata) for .constdata
    psdk_aes.o(i.PsdkAes_MixColumns) refers to psdk_aes.o(.constdata) for s_gfMul
    psdk_aes.o(i.PsdkAes_SetupDecrypt) refers to psdk_aes.o(i.PsdkAes_AddRoundKey) for PsdkAes_AddRoundKey
    psdk_aes.o(i.PsdkAes_SetupDecrypt) refers to psdk_aes.o(i.PsdkAes_InvShiftRows) for PsdkAes_InvShiftRows
    psdk_aes.o(i.PsdkAes_SetupDecrypt) refers to psdk_aes.o(i.PsdkAes_InvSubBytes) for PsdkAes_InvSubBytes
    psdk_aes.o(i.PsdkAes_SetupDecrypt) refers to psdk_aes.o(i.PsdkAes_InvMixColumns) for PsdkAes_InvMixColumns
    psdk_aes.o(i.PsdkAes_SetupEncrypt) refers to psdk_aes.o(i.PsdkAes_AddRoundKey) for PsdkAes_AddRoundKey
    psdk_aes.o(i.PsdkAes_SetupEncrypt) refers to psdk_aes.o(i.PsdkAes_SubBytes) for PsdkAes_SubBytes
    psdk_aes.o(i.PsdkAes_SetupEncrypt) refers to psdk_aes.o(i.PsdkAes_ShiftRows) for PsdkAes_ShiftRows
    psdk_aes.o(i.PsdkAes_SetupEncrypt) refers to psdk_aes.o(i.PsdkAes_MixColumns) for PsdkAes_MixColumns
    psdk_aes.o(i.PsdkAes_SubBytes) refers to psdk_aes.o(.constdata) for s_aesSbox
    psdk_aes.o(i.PsdkAes_SubWord) refers to psdk_aes.o(.constdata) for s_aesSbox
    psdk_crc.o(i.PsdkCrc_Crc16) refers to psdk_debug.o(i.PsdkDebug_AssertFailed) for PsdkDebug_AssertFailed
    psdk_crc.o(i.PsdkCrc_Crc16) refers to psdk_crc.o(.constdata) for s_CrcTab16
    psdk_crc.o(i.PsdkCrc_Crc32) refers to psdk_debug.o(i.PsdkDebug_AssertFailed) for PsdkDebug_AssertFailed
    psdk_crc.o(i.PsdkCrc_Crc32) refers to psdk_crc.o(.data) for s_CrcTab32
    psdk_crc.o(i.PsdkCrc_Crc8) refers to psdk_debug.o(i.PsdkDebug_AssertFailed) for PsdkDebug_AssertFailed
    psdk_crc.o(i.PsdkCrc_Crc8) refers to psdk_crc.o(.constdata) for s_CrcTab8
    psdk_debug.o(i.PsdkDebug_AssertFailed) refers to log_printf.o(i.UART_Printf) for UART_Printf
    psdk_debug.o(i.PsdkDebug_AssertFailed) refers to psdk_debug.o(.constdata) for __FUNCTION__
    psdk_md5.o(i.md5_final) refers to psdk_md5.o(i.md5_transform) for md5_transform
    psdk_md5.o(i.md5_final) refers to memseta.o(.text) for __aeabi_memclr4
    psdk_md5.o(i.md5_update) refers to psdk_md5.o(i.md5_transform) for md5_transform
    psdk_proto.o(i.PsdkProto_DealCmd) refers to log_printf.o(i.UART_Printf) for UART_Printf
    psdk_proto.o(i.PsdkProto_DealCmd) refers to psdk_proto.o(i.PsdkProto_SendAckData) for PsdkProto_SendAckData
    psdk_proto.o(i.PsdkProto_DealCmd) refers to psdk_proto.o(.constdata) for __FUNCTION__
    psdk_proto.o(i.PsdkProto_DealCmd) refers to psdk_proto.o(.conststring) for .conststring
    psdk_proto.o(i.PsdkProto_DealFrame) refers to psdk_proto.o(i.PsdkProto_FrameToInfoData) for PsdkProto_FrameToInfoData
    psdk_proto.o(i.PsdkProto_DealFrame) refers to psdk_proto.o(i.PsdkProto_DealCmd) for PsdkProto_DealCmd
    psdk_proto.o(i.PsdkProto_FrameToInfoData) refers to psdk_aes.o(i.PsdkAes_Decrypt) for PsdkAes_Decrypt
    psdk_proto.o(i.PsdkProto_FrameToInfoData) refers to memcpya.o(.text) for __aeabi_memcpy
    psdk_proto.o(i.PsdkProto_InfoDataToFrame) refers to psdk_crc.o(i.PsdkCrc_Crc16) for PsdkCrc_Crc16
    psdk_proto.o(i.PsdkProto_InfoDataToFrame) refers to malloc.o(i.malloc) for malloc
    psdk_proto.o(i.PsdkProto_InfoDataToFrame) refers to memseta.o(.text) for __aeabi_memclr
    psdk_proto.o(i.PsdkProto_InfoDataToFrame) refers to memcpya.o(.text) for __aeabi_memcpy
    psdk_proto.o(i.PsdkProto_InfoDataToFrame) refers to psdk_aes.o(i.PsdkAes_Encrypt) for PsdkAes_Encrypt
    psdk_proto.o(i.PsdkProto_InfoDataToFrame) refers to malloc.o(i.free) for free
    psdk_proto.o(i.PsdkProto_InfoDataToFrame) refers to psdk_crc.o(i.PsdkCrc_Crc32) for PsdkCrc_Crc32
    psdk_proto.o(i.PsdkProto_Init) refers to memcpya.o(.text) for __aeabi_memcpy
    psdk_proto.o(i.PsdkProto_Init) refers to psdk_proto_parse.o(i.PsdkProtParse_Init) for PsdkProtParse_Init
    psdk_proto.o(i.PsdkProto_Init) refers to memseta.o(.text) for __aeabi_memclr4
    psdk_proto.o(i.PsdkProto_ProcessReceiveData) refers to psdk_proto_parse.o(i.PsdkProtParse_AddByte) for PsdkProtParse_AddByte
    psdk_proto.o(i.PsdkProto_ProcessReceiveData) refers to psdk_proto.o(i.PsdkProto_DealFrame) for PsdkProto_DealFrame
    psdk_proto.o(i.PsdkProto_ProcessReceiveData) refers to log_printf.o(i.UART_Printf) for UART_Printf
    psdk_proto.o(i.PsdkProto_ProcessReceiveData) refers to psdk_proto.o(.constdata) for __FUNCTION__
    psdk_proto.o(i.PsdkProto_Send) refers to psdk_proto.o(i.PsdkProto_InfoDataToFrame) for PsdkProto_InfoDataToFrame
    psdk_proto.o(i.PsdkProto_SendAckData) refers to psdk_proto.o(i.PsdkProto_Send) for PsdkProto_Send
    psdk_proto_parse.o(i.PsdkProtParse_AddByte) refers to psdk_proto_parse.o(i.PsdkProtParse_ErrorProcess) for PsdkProtParse_ErrorProcess
    psdk_proto_parse.o(i.PsdkProtParse_AddByte) refers to psdk_crc.o(i.PsdkCrc_Crc16) for PsdkCrc_Crc16
    psdk_proto_parse.o(i.PsdkProtParse_AddByte) refers to psdk_crc.o(i.PsdkCrc_Crc32) for PsdkCrc_Crc32
    psdk_app_func.o(i.AppFuncCmd_GetWidgetGroupCount) refers to psdk_proto.o(i.PsdkProto_SendAckData) for PsdkProto_SendAckData
    psdk_app_func.o(i.AppFuncCmd_GetWidgetGroupCount) refers to psdk_app_func.o(.data) for s_widgetItemCount
    psdk_app_func.o(i.AppFuncCmd_GetWidgetGroupValue) refers to log_printf.o(i.UART_Printf) for UART_Printf
    psdk_app_func.o(i.AppFuncCmd_GetWidgetGroupValue) refers to psdk_proto.o(i.PsdkProto_SendAckData) for PsdkProto_SendAckData
    psdk_app_func.o(i.AppFuncCmd_GetWidgetGroupValue) refers to psdk_app_func.o(.data) for s_widgetItemCount
    psdk_app_func.o(i.AppFuncCmd_GetWidgetGroupValue) refers to psdk_app_func.o(.constdata) for __FUNCTION__
    psdk_app_func.o(i.AppFuncCmd_GetWidgetGroupValue) refers to psdk_app_func.o(.conststring) for .conststring
    psdk_app_func.o(i.AppFuncCmd_GetWidgetListLength) refers to psdk_proto.o(i.PsdkProto_SendAckData) for PsdkProto_SendAckData
    psdk_app_func.o(i.AppFuncCmd_GetWidgetListLength) refers to psdk_app_func.o(.data) for s_widgetList
    psdk_app_func.o(i.AppFuncCmd_GetWidgetListValue) refers to memseta.o(.text) for __aeabi_memclr
    psdk_app_func.o(i.AppFuncCmd_GetWidgetListValue) refers to strncpy.o(.text) for strncpy
    psdk_app_func.o(i.AppFuncCmd_GetWidgetListValue) refers to psdk_proto.o(i.PsdkProto_SendAckData) for PsdkProto_SendAckData
    psdk_app_func.o(i.AppFuncCmd_GetWidgetListValue) refers to psdk_app_func.o(.data) for s_widgetItemCount
    psdk_app_func.o(i.AppFuncCmd_SetWidgetValue) refers to log_printf.o(i.UART_Printf) for UART_Printf
    psdk_app_func.o(i.AppFuncCmd_SetWidgetValue) refers to psdk_proto.o(i.PsdkProto_SendAckData) for PsdkProto_SendAckData
    psdk_app_func.o(i.AppFuncCmd_SetWidgetValue) refers to psdk_app_func.o(.data) for s_setWidgetValueFunc
    psdk_app_func.o(i.AppFuncCmd_SetWidgetValue) refers to psdk_app_func.o(.constdata) for __FUNCTION__
    psdk_app_func.o(i.AppFuncCmd_SetWidgetValue) refers to psdk_app_func.o(.conststring) for .conststring
    psdk_app_func.o(i.AppFuncCmd_TT_AppToLoad) refers to psdk_app_func.o(.data) for s_receiveFromAppFunc
    psdk_app_func.o(i.PsdkAppFunc_Init) refers to psdk_proto.o(i.PsdkProto_RegCmdSetHandler) for PsdkProto_RegCmdSetHandler
    psdk_app_func.o(i.PsdkAppFunc_Init) refers to psdk_app_func.o(.data) for s_receiveFromAppFunc
    psdk_app_func.o(i.PsdkAppFunc_Init) refers to psdk_app_func.o(.constdata) for s_appFuncProtCmdList
    psdk_app_func.o(i.PsdkAppFunc_PushMsgToFloatingWindow) refers to strlen.o(.text) for strlen
    psdk_app_func.o(i.PsdkAppFunc_PushMsgToFloatingWindow) refers to psdk_proto.o(i.PsdkProt_GetCurrentSendSeq) for PsdkProt_GetCurrentSendSeq
    psdk_app_func.o(i.PsdkAppFunc_PushMsgToFloatingWindow) refers to psdk_proto.o(i.PsdkProto_Send) for PsdkProto_Send
    psdk_app_func.o(i.PsdkAppFunc_RegGetWidgetValueCallback) refers to psdk_app_func.o(.data) for s_getWidgetValueFunc
    psdk_app_func.o(i.PsdkAppFunc_RegSetWidgetValueCallback) refers to psdk_app_func.o(.data) for s_setWidgetValueFunc
    psdk_app_func.o(i.PsdkAppFunc_SetReceiveFromAppCallback) refers to psdk_app_func.o(.data) for s_receiveFromAppFunc
    psdk_app_func.o(i.PsdkAppFunc_SetWidgetList) refers to psdk_app_func.o(.data) for s_widgetItemCount
    psdk_app_func.o(i.PsdkAppFunc_TransferToApp) refers to psdk_proto.o(i.PsdkProt_GetCurrentSendSeq) for PsdkProt_GetCurrentSendSeq
    psdk_app_func.o(i.PsdkAppFunc_TransferToApp) refers to psdk_proto.o(i.PsdkProto_Send) for PsdkProto_Send
    psdk_app_func.o(.constdata) refers to psdk_app_func.o(i.AppFuncCmd_TT_AppToLoad) for AppFuncCmd_TT_AppToLoad
    psdk_app_func.o(.constdata) refers to psdk_app_func.o(i.AppFuncCmd_GetWidgetListLength) for AppFuncCmd_GetWidgetListLength
    psdk_app_func.o(.constdata) refers to psdk_app_func.o(i.AppFuncCmd_GetWidgetListValue) for AppFuncCmd_GetWidgetListValue
    psdk_app_func.o(.constdata) refers to psdk_app_func.o(i.AppFuncCmd_GetWidgetGroupCount) for AppFuncCmd_GetWidgetGroupCount
    psdk_app_func.o(.constdata) refers to psdk_app_func.o(i.AppFuncCmd_GetWidgetGroupValue) for AppFuncCmd_GetWidgetGroupValue
    psdk_app_func.o(.constdata) refers to psdk_app_func.o(i.AppFuncCmd_SetWidgetValue) for AppFuncCmd_SetWidgetValue
    psdk_msg_subcribe.o(i.MsgPushCmd_GpsRawData) refers to psdk_msg_subcribe.o(.bss) for s_PushDataMsgCallbackList
    psdk_msg_subcribe.o(i.MsgPushCmd_PushAppDateTime) refers to psdk_msg_subcribe.o(.bss) for s_PushDataMsgCallbackList
    psdk_msg_subcribe.o(i.MsgPushCmd_PushAttitude) refers to psdk_msg_subcribe.o(.bss) for s_PushDataMsgCallbackList
    psdk_msg_subcribe.o(i.MsgPushCmd_PushBandWidth) refers to psdk_msg_subcribe.o(.bss) for s_PushDataMsgCallbackList
    psdk_msg_subcribe.o(i.MsgPushCmd_PushBaroHeight) refers to psdk_msg_subcribe.o(.bss) for s_PushDataMsgCallbackList
    psdk_msg_subcribe.o(i.MsgPushCmd_PushBatteryInfo) refers to psdk_proto.o(i.PsdkProto_SendAckData) for PsdkProto_SendAckData
    psdk_msg_subcribe.o(i.MsgPushCmd_PushBatteryInfo) refers to psdk_msg_subcribe.o(.bss) for s_PushDataMsgCallbackList
    psdk_msg_subcribe.o(i.MsgPushCmd_PushGpsInfo) refers to psdk_msg_subcribe.o(.bss) for s_PushDataMsgCallbackList
    psdk_msg_subcribe.o(i.MsgPushCmd_PushUavState) refers to psdk_msg_subcribe.o(.bss) for s_PushDataMsgCallbackList
    psdk_msg_subcribe.o(i.MsgPushCmd_RtkRawData) refers to psdk_msg_subcribe.o(.bss) for s_PushDataMsgCallbackList
    psdk_msg_subcribe.o(i.PsdkMsgSub_Init) refers to memseta.o(.text) for __aeabi_memclr4
    psdk_msg_subcribe.o(i.PsdkMsgSub_Init) refers to psdk_proto.o(i.PsdkProto_RegCmdSetHandler) for PsdkProto_RegCmdSetHandler
    psdk_msg_subcribe.o(i.PsdkMsgSub_Init) refers to psdk_msg_subcribe.o(.bss) for s_PushDataMsgCallbackList
    psdk_msg_subcribe.o(i.PsdkMsgSub_Init) refers to psdk_msg_subcribe.o(.constdata) for s_PushDataMsgSubProtCmdList
    psdk_msg_subcribe.o(i.PsdkMsgSub_RegMsgCallbackList) refers to memcpya.o(.text) for __aeabi_memcpy4
    psdk_msg_subcribe.o(i.PsdkMsgSub_RegMsgCallbackList) refers to psdk_msg_subcribe.o(.bss) for s_PushDataMsgCallbackList
    psdk_msg_subcribe.o(.constdata) refers to psdk_msg_subcribe.o(i.MsgPushCmd_PushBandWidth) for MsgPushCmd_PushBandWidth
    psdk_msg_subcribe.o(.constdata) refers to psdk_msg_subcribe.o(i.MsgPushCmd_PushAttitude) for MsgPushCmd_PushAttitude
    psdk_msg_subcribe.o(.constdata) refers to psdk_msg_subcribe.o(i.MsgPushCmd_PushBatteryInfo) for MsgPushCmd_PushBatteryInfo
    psdk_msg_subcribe.o(.constdata) refers to psdk_msg_subcribe.o(i.MsgPushCmd_PushGpsInfo) for MsgPushCmd_PushGpsInfo
    psdk_msg_subcribe.o(.constdata) refers to psdk_msg_subcribe.o(i.MsgPushCmd_PushUavState) for MsgPushCmd_PushUavState
    psdk_msg_subcribe.o(.constdata) refers to psdk_msg_subcribe.o(i.MsgPushCmd_PushAppDateTime) for MsgPushCmd_PushAppDateTime
    psdk_msg_subcribe.o(.constdata) refers to psdk_msg_subcribe.o(i.MsgPushCmd_PushBaroHeight) for MsgPushCmd_PushBaroHeight
    psdk_msg_subcribe.o(.constdata) refers to psdk_msg_subcribe.o(i.MsgPushCmd_GpsRawData) for MsgPushCmd_GpsRawData
    psdk_msg_subcribe.o(.constdata) refers to psdk_msg_subcribe.o(i.MsgPushCmd_RtkRawData) for MsgPushCmd_RtkRawData
    psdk_payload_camera.o(i.CameraCmd_FormatSDCard) refers to psdk_proto.o(i.PsdkProto_SendAckData) for PsdkProto_SendAckData
    psdk_payload_camera.o(i.CameraCmd_FormatSDCard) refers to psdk_payload_camera.o(.bss) for s_cameraHandler
    psdk_payload_camera.o(i.CameraCmd_GetDigitalZoomFactor) refers to psdk_proto.o(i.PsdkProto_SendAckData) for PsdkProto_SendAckData
    psdk_payload_camera.o(i.CameraCmd_GetDigitalZoomFactor) refers to psdk_payload_camera.o(.bss) for s_cameraHandler
    psdk_payload_camera.o(i.CameraCmd_GetDigitalZoomSpec) refers to psdk_proto.o(i.PsdkProto_SendAckData) for PsdkProto_SendAckData
    psdk_payload_camera.o(i.CameraCmd_GetDigitalZoomSpec) refers to psdk_payload_camera.o(.bss) for s_cameraHandler
    psdk_payload_camera.o(i.CameraCmd_GetFocusAssistantSettings) refers to psdk_proto.o(i.PsdkProto_SendAckData) for PsdkProto_SendAckData
    psdk_payload_camera.o(i.CameraCmd_GetFocusAssistantSettings) refers to psdk_payload_camera.o(.bss) for s_cameraHandler
    psdk_payload_camera.o(i.CameraCmd_GetFocusMode) refers to psdk_proto.o(i.PsdkProto_SendAckData) for PsdkProto_SendAckData
    psdk_payload_camera.o(i.CameraCmd_GetFocusMode) refers to psdk_payload_camera.o(.bss) for s_cameraHandler
    psdk_payload_camera.o(i.CameraCmd_GetFocusRingValue) refers to psdk_proto.o(i.PsdkProto_SendAckData) for PsdkProto_SendAckData
    psdk_payload_camera.o(i.CameraCmd_GetFocusRingValue) refers to psdk_payload_camera.o(.bss) for s_cameraHandler
    psdk_payload_camera.o(i.CameraCmd_GetFocusRingValueUpperBound) refers to psdk_proto.o(i.PsdkProto_SendAckData) for PsdkProto_SendAckData
    psdk_payload_camera.o(i.CameraCmd_GetFocusRingValueUpperBound) refers to psdk_payload_camera.o(.bss) for s_cameraHandler
    psdk_payload_camera.o(i.CameraCmd_GetFocusZone) refers to psdk_proto.o(i.PsdkProto_SendAckData) for PsdkProto_SendAckData
    psdk_payload_camera.o(i.CameraCmd_GetFocusZone) refers to psdk_payload_camera.o(.bss) for s_cameraHandler
    psdk_payload_camera.o(i.CameraCmd_GetMeteringMode) refers to psdk_proto.o(i.PsdkProto_SendAckData) for PsdkProto_SendAckData
    psdk_payload_camera.o(i.CameraCmd_GetMeteringMode) refers to psdk_payload_camera.o(.bss) for s_cameraHandler
    psdk_payload_camera.o(i.CameraCmd_GetMode) refers to psdk_proto.o(i.PsdkProto_SendAckData) for PsdkProto_SendAckData
    psdk_payload_camera.o(i.CameraCmd_GetMode) refers to psdk_payload_camera.o(.bss) for s_cameraHandler
    psdk_payload_camera.o(i.CameraCmd_GetOpticalZoomFactor) refers to psdk_proto.o(i.PsdkProto_SendAckData) for PsdkProto_SendAckData
    psdk_payload_camera.o(i.CameraCmd_GetOpticalZoomFactor) refers to psdk_payload_camera.o(.bss) for s_cameraHandler
    psdk_payload_camera.o(i.CameraCmd_GetOpticalZoomFocalLength) refers to psdk_proto.o(i.PsdkProto_SendAckData) for PsdkProto_SendAckData
    psdk_payload_camera.o(i.CameraCmd_GetOpticalZoomFocalLength) refers to psdk_payload_camera.o(.bss) for s_cameraHandler
    psdk_payload_camera.o(i.CameraCmd_GetOpticalZoomSpec) refers to psdk_proto.o(i.PsdkProto_SendAckData) for PsdkProto_SendAckData
    psdk_payload_camera.o(i.CameraCmd_GetOpticalZoomSpec) refers to psdk_payload_camera.o(.bss) for s_cameraHandler
    psdk_payload_camera.o(i.CameraCmd_GetRecordVideoState) refers to psdk_proto.o(i.PsdkProto_SendAckData) for PsdkProto_SendAckData
    psdk_payload_camera.o(i.CameraCmd_GetRecordVideoState) refers to psdk_payload_camera.o(.bss) for s_cameraHandler
    psdk_payload_camera.o(i.CameraCmd_GetSDCardState) refers to psdk_proto.o(i.PsdkProto_SendAckData) for PsdkProto_SendAckData
    psdk_payload_camera.o(i.CameraCmd_GetSDCardState) refers to psdk_payload_camera.o(.bss) for s_cameraHandler
    psdk_payload_camera.o(i.CameraCmd_GetShootPhotoMode) refers to psdk_proto.o(i.PsdkProto_SendAckData) for PsdkProto_SendAckData
    psdk_payload_camera.o(i.CameraCmd_GetShootPhotoMode) refers to psdk_payload_camera.o(.bss) for s_cameraHandler
    psdk_payload_camera.o(i.CameraCmd_GetShootPhotoState) refers to psdk_proto.o(i.PsdkProto_SendAckData) for PsdkProto_SendAckData
    psdk_payload_camera.o(i.CameraCmd_GetShootPhotoState) refers to psdk_payload_camera.o(.bss) for s_cameraHandler
    psdk_payload_camera.o(i.CameraCmd_GetSpotMetering) refers to psdk_proto.o(i.PsdkProto_SendAckData) for PsdkProto_SendAckData
    psdk_payload_camera.o(i.CameraCmd_GetSpotMetering) refers to psdk_payload_camera.o(.bss) for s_cameraHandler
    psdk_payload_camera.o(i.CameraCmd_RecordVideo) refers to psdk_proto.o(i.PsdkProto_SendAckData) for PsdkProto_SendAckData
    psdk_payload_camera.o(i.CameraCmd_RecordVideo) refers to psdk_payload_camera.o(.bss) for s_cameraHandler
    psdk_payload_camera.o(i.CameraCmd_SetDigitalZoomFactor) refers to psdk_proto.o(i.PsdkProto_SendAckData) for PsdkProto_SendAckData
    psdk_payload_camera.o(i.CameraCmd_SetDigitalZoomFactor) refers to psdk_payload_camera.o(.bss) for s_cameraHandler
    psdk_payload_camera.o(i.CameraCmd_SetFocusAssistantSettings) refers to psdk_proto.o(i.PsdkProto_SendAckData) for PsdkProto_SendAckData
    psdk_payload_camera.o(i.CameraCmd_SetFocusAssistantSettings) refers to psdk_payload_camera.o(.bss) for s_cameraHandler
    psdk_payload_camera.o(i.CameraCmd_SetFocusMode) refers to psdk_proto.o(i.PsdkProto_SendAckData) for PsdkProto_SendAckData
    psdk_payload_camera.o(i.CameraCmd_SetFocusMode) refers to psdk_payload_camera.o(.bss) for s_cameraHandler
    psdk_payload_camera.o(i.CameraCmd_SetFocusRingValue) refers to psdk_proto.o(i.PsdkProto_SendAckData) for PsdkProto_SendAckData
    psdk_payload_camera.o(i.CameraCmd_SetFocusRingValue) refers to psdk_payload_camera.o(.bss) for s_cameraHandler
    psdk_payload_camera.o(i.CameraCmd_SetFocusZone) refers to psdk_proto.o(i.PsdkProto_SendAckData) for PsdkProto_SendAckData
    psdk_payload_camera.o(i.CameraCmd_SetFocusZone) refers to psdk_payload_camera.o(.bss) for s_cameraHandler
    psdk_payload_camera.o(i.CameraCmd_SetMeteringMode) refers to psdk_proto.o(i.PsdkProto_SendAckData) for PsdkProto_SendAckData
    psdk_payload_camera.o(i.CameraCmd_SetMeteringMode) refers to psdk_payload_camera.o(.bss) for s_cameraHandler
    psdk_payload_camera.o(i.CameraCmd_SetMode) refers to psdk_proto.o(i.PsdkProto_SendAckData) for PsdkProto_SendAckData
    psdk_payload_camera.o(i.CameraCmd_SetMode) refers to psdk_payload_camera.o(.bss) for s_cameraHandler
    psdk_payload_camera.o(i.CameraCmd_SetOpticalZoomFocalLength) refers to psdk_proto.o(i.PsdkProto_SendAckData) for PsdkProto_SendAckData
    psdk_payload_camera.o(i.CameraCmd_SetOpticalZoomFocalLength) refers to psdk_payload_camera.o(.bss) for s_cameraHandler
    psdk_payload_camera.o(i.CameraCmd_SetShootPhotoMode) refers to psdk_proto.o(i.PsdkProto_SendAckData) for PsdkProto_SendAckData
    psdk_payload_camera.o(i.CameraCmd_SetShootPhotoMode) refers to psdk_payload_camera.o(.bss) for s_cameraHandler
    psdk_payload_camera.o(i.CameraCmd_SetSpotMetering) refers to psdk_proto.o(i.PsdkProto_SendAckData) for PsdkProto_SendAckData
    psdk_payload_camera.o(i.CameraCmd_SetSpotMetering) refers to psdk_payload_camera.o(.bss) for s_cameraHandler
    psdk_payload_camera.o(i.CameraCmd_ShootPhoto) refers to psdk_proto.o(i.PsdkProto_SendAckData) for PsdkProto_SendAckData
    psdk_payload_camera.o(i.CameraCmd_ShootPhoto) refers to psdk_payload_camera.o(.bss) for s_cameraHandler
    psdk_payload_camera.o(i.CameraCmd_StartContinuousOpticalZoom) refers to psdk_proto.o(i.PsdkProto_SendAckData) for PsdkProto_SendAckData
    psdk_payload_camera.o(i.CameraCmd_StartContinuousOpticalZoom) refers to psdk_payload_camera.o(.bss) for s_cameraHandler
    psdk_payload_camera.o(i.CameraCmd_StopContinuousOpticalZoom) refers to psdk_proto.o(i.PsdkProto_SendAckData) for PsdkProto_SendAckData
    psdk_payload_camera.o(i.CameraCmd_StopContinuousOpticalZoom) refers to psdk_payload_camera.o(.bss) for s_cameraHandler
    psdk_payload_camera.o(i.CameraCmd_SupportState) refers to psdk_proto.o(i.PsdkProto_SendAckData) for PsdkProto_SendAckData
    psdk_payload_camera.o(i.CameraCmd_SupportState) refers to psdk_payload_camera.o(.data) for s_isSupportCamera
    psdk_payload_camera.o(i.CameraCmd_SupportState) refers to psdk_payload_camera.o(.bss) for s_cameraHandler
    psdk_payload_camera.o(i.PsdkCamera_Init) refers to memcpya.o(.text) for __aeabi_memcpy4
    psdk_payload_camera.o(i.PsdkCamera_Init) refers to psdk_proto.o(i.PsdkProto_RegCmdSetHandler) for PsdkProto_RegCmdSetHandler
    psdk_payload_camera.o(i.PsdkCamera_Init) refers to psdk_payload_camera.o(.bss) for s_cameraHandler
    psdk_payload_camera.o(i.PsdkCamera_Init) refers to psdk_payload_camera.o(.constdata) for s_PayloadCameraCmdList
    psdk_payload_camera.o(i.PsdkCamera_Init) refers to psdk_payload_camera.o(.data) for s_isSupportCamera
    psdk_payload_camera.o(.constdata) refers to psdk_payload_camera.o(i.CameraCmd_SupportState) for CameraCmd_SupportState
    psdk_payload_camera.o(.constdata) refers to psdk_payload_camera.o(i.CameraCmd_SetMode) for CameraCmd_SetMode
    psdk_payload_camera.o(.constdata) refers to psdk_payload_camera.o(i.CameraCmd_GetMode) for CameraCmd_GetMode
    psdk_payload_camera.o(.constdata) refers to psdk_payload_camera.o(i.CameraCmd_ShootPhoto) for CameraCmd_ShootPhoto
    psdk_payload_camera.o(.constdata) refers to psdk_payload_camera.o(i.CameraCmd_GetShootPhotoState) for CameraCmd_GetShootPhotoState
    psdk_payload_camera.o(.constdata) refers to psdk_payload_camera.o(i.CameraCmd_SetShootPhotoMode) for CameraCmd_SetShootPhotoMode
    psdk_payload_camera.o(.constdata) refers to psdk_payload_camera.o(i.CameraCmd_GetShootPhotoMode) for CameraCmd_GetShootPhotoMode
    psdk_payload_camera.o(.constdata) refers to psdk_payload_camera.o(i.CameraCmd_RecordVideo) for CameraCmd_RecordVideo
    psdk_payload_camera.o(.constdata) refers to psdk_payload_camera.o(i.CameraCmd_GetRecordVideoState) for CameraCmd_GetRecordVideoState
    psdk_payload_camera.o(.constdata) refers to psdk_payload_camera.o(i.CameraCmd_GetSDCardState) for CameraCmd_GetSDCardState
    psdk_payload_camera.o(.constdata) refers to psdk_payload_camera.o(i.CameraCmd_FormatSDCard) for CameraCmd_FormatSDCard
    psdk_payload_camera.o(.constdata) refers to psdk_payload_camera.o(i.CameraCmd_SetMeteringMode) for CameraCmd_SetMeteringMode
    psdk_payload_camera.o(.constdata) refers to psdk_payload_camera.o(i.CameraCmd_GetMeteringMode) for CameraCmd_GetMeteringMode
    psdk_payload_camera.o(.constdata) refers to psdk_payload_camera.o(i.CameraCmd_SetSpotMetering) for CameraCmd_SetSpotMetering
    psdk_payload_camera.o(.constdata) refers to psdk_payload_camera.o(i.CameraCmd_GetSpotMetering) for CameraCmd_GetSpotMetering
    psdk_payload_camera.o(.constdata) refers to psdk_payload_camera.o(i.CameraCmd_SetFocusMode) for CameraCmd_SetFocusMode
    psdk_payload_camera.o(.constdata) refers to psdk_payload_camera.o(i.CameraCmd_GetFocusMode) for CameraCmd_GetFocusMode
    psdk_payload_camera.o(.constdata) refers to psdk_payload_camera.o(i.CameraCmd_SetFocusZone) for CameraCmd_SetFocusZone
    psdk_payload_camera.o(.constdata) refers to psdk_payload_camera.o(i.CameraCmd_GetFocusZone) for CameraCmd_GetFocusZone
    psdk_payload_camera.o(.constdata) refers to psdk_payload_camera.o(i.CameraCmd_SetFocusAssistantSettings) for CameraCmd_SetFocusAssistantSettings
    psdk_payload_camera.o(.constdata) refers to psdk_payload_camera.o(i.CameraCmd_GetFocusAssistantSettings) for CameraCmd_GetFocusAssistantSettings
    psdk_payload_camera.o(.constdata) refers to psdk_payload_camera.o(i.CameraCmd_GetFocusRingValueUpperBound) for CameraCmd_GetFocusRingValueUpperBound
    psdk_payload_camera.o(.constdata) refers to psdk_payload_camera.o(i.CameraCmd_SetFocusRingValue) for CameraCmd_SetFocusRingValue
    psdk_payload_camera.o(.constdata) refers to psdk_payload_camera.o(i.CameraCmd_GetFocusRingValue) for CameraCmd_GetFocusRingValue
    psdk_payload_camera.o(.constdata) refers to psdk_payload_camera.o(i.CameraCmd_GetDigitalZoomSpec) for CameraCmd_GetDigitalZoomSpec
    psdk_payload_camera.o(.constdata) refers to psdk_payload_camera.o(i.CameraCmd_SetDigitalZoomFactor) for CameraCmd_SetDigitalZoomFactor
    psdk_payload_camera.o(.constdata) refers to psdk_payload_camera.o(i.CameraCmd_GetDigitalZoomFactor) for CameraCmd_GetDigitalZoomFactor
    psdk_payload_camera.o(.constdata) refers to psdk_payload_camera.o(i.CameraCmd_GetOpticalZoomSpec) for CameraCmd_GetOpticalZoomSpec
    psdk_payload_camera.o(.constdata) refers to psdk_payload_camera.o(i.CameraCmd_SetOpticalZoomFocalLength) for CameraCmd_SetOpticalZoomFocalLength
    psdk_payload_camera.o(.constdata) refers to psdk_payload_camera.o(i.CameraCmd_GetOpticalZoomFocalLength) for CameraCmd_GetOpticalZoomFocalLength
    psdk_payload_camera.o(.constdata) refers to psdk_payload_camera.o(i.CameraCmd_GetOpticalZoomFactor) for CameraCmd_GetOpticalZoomFactor
    psdk_payload_camera.o(.constdata) refers to psdk_payload_camera.o(i.CameraCmd_StartContinuousOpticalZoom) for CameraCmd_StartContinuousOpticalZoom
    psdk_payload_camera.o(.constdata) refers to psdk_payload_camera.o(i.CameraCmd_StopContinuousOpticalZoom) for CameraCmd_StopContinuousOpticalZoom
    psdk_payload_gimbal.o(i.GimbalCmd_ControlSpeed) refers to psdk_proto.o(i.PsdkProto_SendAckData) for PsdkProto_SendAckData
    psdk_payload_gimbal.o(i.GimbalCmd_ControlSpeed) refers to psdk_payload_gimbal.o(.bss) for s_gimbalHandler
    psdk_payload_gimbal.o(i.GimbalCmd_GetGimbalState) refers to psdk_proto.o(i.PsdkProto_SendAckData) for PsdkProto_SendAckData
    psdk_payload_gimbal.o(i.GimbalCmd_GetGimbalState) refers to psdk_payload_gimbal.o(.bss) for s_gimbalHandler
    psdk_payload_gimbal.o(i.GimbalCmd_ReturnHead) refers to psdk_proto.o(i.PsdkProto_SendAckData) for PsdkProto_SendAckData
    psdk_payload_gimbal.o(i.GimbalCmd_ReturnHead) refers to psdk_payload_gimbal.o(.bss) for s_gimbalHandler
    psdk_payload_gimbal.o(i.GimbalCmd_SetGimbalMode) refers to psdk_proto.o(i.PsdkProto_SendAckData) for PsdkProto_SendAckData
    psdk_payload_gimbal.o(i.GimbalCmd_SetGimbalMode) refers to psdk_payload_gimbal.o(.bss) for s_gimbalHandler
    psdk_payload_gimbal.o(i.GimbalCmd_StartCalibration) refers to psdk_proto.o(i.PsdkProto_SendAckData) for PsdkProto_SendAckData
    psdk_payload_gimbal.o(i.GimbalCmd_StartCalibration) refers to psdk_payload_gimbal.o(.bss) for s_gimbalHandler
    psdk_payload_gimbal.o(i.GimbalCmd_SupportState) refers to psdk_proto.o(i.PsdkProto_SendAckData) for PsdkProto_SendAckData
    psdk_payload_gimbal.o(i.GimbalCmd_SupportState) refers to psdk_payload_gimbal.o(.data) for s_isSupportGimbal
    psdk_payload_gimbal.o(i.PsdkGimbal_Init) refers to memcpya.o(.text) for __aeabi_memcpy4
    psdk_payload_gimbal.o(i.PsdkGimbal_Init) refers to psdk_proto.o(i.PsdkProto_RegCmdSetHandler) for PsdkProto_RegCmdSetHandler
    psdk_payload_gimbal.o(i.PsdkGimbal_Init) refers to psdk_payload_gimbal.o(.bss) for s_gimbalHandler
    psdk_payload_gimbal.o(i.PsdkGimbal_Init) refers to psdk_payload_gimbal.o(.constdata) for s_PayloadGimbalCmdList
    psdk_payload_gimbal.o(i.PsdkGimbal_Init) refers to psdk_payload_gimbal.o(.data) for s_isSupportGimbal
    psdk_payload_gimbal.o(.constdata) refers to psdk_payload_gimbal.o(i.GimbalCmd_GetGimbalState) for GimbalCmd_GetGimbalState
    psdk_payload_gimbal.o(.constdata) refers to psdk_payload_gimbal.o(i.GimbalCmd_SetGimbalMode) for GimbalCmd_SetGimbalMode
    psdk_payload_gimbal.o(.constdata) refers to psdk_payload_gimbal.o(i.GimbalCmd_ReturnHead) for GimbalCmd_ReturnHead
    psdk_payload_gimbal.o(.constdata) refers to psdk_payload_gimbal.o(i.GimbalCmd_ControlSpeed) for GimbalCmd_ControlSpeed
    psdk_payload_gimbal.o(.constdata) refers to psdk_payload_gimbal.o(i.GimbalCmd_StartCalibration) for GimbalCmd_StartCalibration
    psdk_payload_gimbal.o(.constdata) refers to psdk_payload_gimbal.o(i.GimbalCmd_SupportState) for GimbalCmd_SupportState
    psdk_upper.o(i.PsdkPayloadStateCmd_GetPayloadProductAlias) refers to memcpya.o(.text) for __aeabi_memcpy
    psdk_upper.o(i.PsdkPayloadStateCmd_GetPayloadProductAlias) refers to psdk_proto.o(i.PsdkProto_SendAckData) for PsdkProto_SendAckData
    psdk_upper.o(i.PsdkPayloadStateCmd_GetPayloadProductAlias) refers to psdk_upper.o(.bss) for s_customInfo
    psdk_upper.o(i.PsdkPayloadStateCmd_GetPayloadProductInfo) refers to memcpya.o(.text) for __aeabi_memcpy
    psdk_upper.o(i.PsdkPayloadStateCmd_GetPayloadProductInfo) refers to psdk_proto.o(i.PsdkProto_SendAckData) for PsdkProto_SendAckData
    psdk_upper.o(i.PsdkPayloadStateCmd_GetPayloadProductInfo) refers to psdk_upper.o(.bss) for s_userInfo
    psdk_upper.o(i.PsdkPayloadStateCmd_GetSkyportVersionInfo) refers to psdk_proto.o(i.PsdkProto_SendAckData) for PsdkProto_SendAckData
    psdk_upper.o(i.PsdkPayloadStateCmd_GetSkyportVersionInfo) refers to psdk_upper.o(.data) for s_fixSkyport
    psdk_upper.o(i.PsdkPayloadStateCmd_GetVersion) refers to psdk_proto.o(i.PsdkProto_SendAckData) for PsdkProto_SendAckData
    psdk_upper.o(i.PsdkPayloadStateCmd_IdentityVerify) refers to strlen.o(.text) for strlen
    psdk_upper.o(i.PsdkPayloadStateCmd_IdentityVerify) refers to psdk_upper.o(i.Str_PutStrToBuff) for Str_PutStrToBuff
    psdk_upper.o(i.PsdkPayloadStateCmd_IdentityVerify) refers to psdk_md5.o(i.md5_init) for md5_init
    psdk_upper.o(i.PsdkPayloadStateCmd_IdentityVerify) refers to psdk_md5.o(i.md5_update) for md5_update
    psdk_upper.o(i.PsdkPayloadStateCmd_IdentityVerify) refers to psdk_md5.o(i.md5_final) for md5_final
    psdk_upper.o(i.PsdkPayloadStateCmd_IdentityVerify) refers to psdk_proto.o(i.PsdkProto_SendAckData) for PsdkProto_SendAckData
    psdk_upper.o(i.PsdkPayloadStateCmd_IdentityVerify) refers to psdk_upper.o(.bss) for s_userInfo
    psdk_upper.o(i.PsdkPayloadStateCmd_LinkHandShake) refers to memcpya.o(.text) for __aeabi_memcpy
    psdk_upper.o(i.PsdkPayloadStateCmd_LinkHandShake) refers to psdk_proto.o(i.PsdkProto_SendAckData) for PsdkProto_SendAckData
    psdk_upper.o(i.PsdkProtoUpper_CalTransferKey) refers to strlen.o(.text) for strlen
    psdk_upper.o(i.PsdkProtoUpper_CalTransferKey) refers to malloc.o(i.malloc) for malloc
    psdk_upper.o(i.PsdkProtoUpper_CalTransferKey) refers to memcpya.o(.text) for __aeabi_memcpy
    psdk_upper.o(i.PsdkProtoUpper_CalTransferKey) refers to psdk_md5.o(i.md5_init) for md5_init
    psdk_upper.o(i.PsdkProtoUpper_CalTransferKey) refers to psdk_md5.o(i.md5_update) for md5_update
    psdk_upper.o(i.PsdkProtoUpper_CalTransferKey) refers to psdk_md5.o(i.md5_final) for md5_final
    psdk_upper.o(i.PsdkProtoUpper_CalTransferKey) refers to malloc.o(i.free) for free
    psdk_upper.o(i.PsdkUpper_Init) refers to memcpya.o(.text) for __aeabi_memcpy
    psdk_upper.o(i.PsdkUpper_Init) refers to psdk_upper.o(i.PsdkProtoUpper_CalTransferKey) for PsdkProtoUpper_CalTransferKey
    psdk_upper.o(i.PsdkUpper_Init) refers to psdk_proto.o(i.PsdkProto_Init) for PsdkProto_Init
    psdk_upper.o(i.PsdkUpper_Init) refers to psdk_proto.o(i.PsdkProto_RegCmdSetHandler) for PsdkProto_RegCmdSetHandler
    psdk_upper.o(i.PsdkUpper_Init) refers to psdk_upper.o(.bss) for s_userInfo
    psdk_upper.o(i.PsdkUpper_Init) refers to psdk_upper.o(.constdata) for s_payloadStateProtCmdList
    psdk_upper.o(i.PsdkUpper_ProcessReceiveData) refers to psdk_proto.o(i.PsdkProto_ProcessReceiveData) for PsdkProto_ProcessReceiveData
    psdk_upper.o(i.PsdkUpper_RegSendFunction) refers to psdk_proto.o(i.PsdkProto_RegSendDataFunc) for PsdkProto_RegSendDataFunc
    psdk_upper.o(i.PsdkUpper_SetFixVersion) refers to psdk_upper.o(.data) for s_fixSkyport
    psdk_upper.o(i.PsdkUpper_SetProductAlias) refers to memcpya.o(.text) for __aeabi_memcpy
    psdk_upper.o(i.PsdkUpper_SetProductAlias) refers to psdk_upper.o(.bss) for s_customInfo
    psdk_upper.o(i.Str_PutStrToBuff) refers to strlen.o(.text) for strlen
    psdk_upper.o(i.Str_PutStrToBuff) refers to memcpya.o(.text) for __aeabi_memcpy
    psdk_upper.o(.constdata) refers to psdk_upper.o(i.PsdkPayloadStateCmd_IdentityVerify) for PsdkPayloadStateCmd_IdentityVerify
    psdk_upper.o(.constdata) refers to psdk_upper.o(i.PsdkPayloadStateCmd_GetVersion) for PsdkPayloadStateCmd_GetVersion
    psdk_upper.o(.constdata) refers to psdk_upper.o(i.PsdkPayloadStateCmd_LinkHandShake) for PsdkPayloadStateCmd_LinkHandShake
    psdk_upper.o(.constdata) refers to psdk_upper.o(i.PsdkPayloadStateCmd_GetPayloadProductInfo) for PsdkPayloadStateCmd_GetPayloadProductInfo
    psdk_upper.o(.constdata) refers to psdk_upper.o(i.PsdkPayloadStateCmd_GetSkyportVersionInfo) for PsdkPayloadStateCmd_GetSkyportVersionInfo
    psdk_upper.o(.constdata) refers to psdk_upper.o(i.PsdkPayloadStateCmd_GetPayloadProductAlias) for PsdkPayloadStateCmd_GetPayloadProductAlias
    test_app_func.o(i.Test_GetWidgetValueFunc) refers to test_app_func.o(.data) for switch1Val
    test_app_func.o(i.Test_ReceiveFromMobileSDKFunc) refers to memcpya.o(.text) for __aeabi_memcpy
    test_app_func.o(i.Test_ReceiveFromMobileSDKFunc) refers to log_printf.o(i.UART_Printf) for UART_Printf
    test_app_func.o(i.Test_ReceiveFromMobileSDKFunc) refers to test_app_func.o(.bss) for receivePrint
    test_app_func.o(i.Test_ReceiveFromMobileSDKFunc) refers to test_app_func.o(.constdata) for __FUNCTION__
    test_app_func.o(i.Test_SetWidgetValueFunc) refers to log_printf.o(i.UART_Printf) for UART_Printf
    test_app_func.o(i.Test_SetWidgetValueFunc) refers to test_app_func.o(.data) for g_TestWidgetList
    test_app_func.o(i.Test_SetWidgetValueFunc) refers to test_app_func.o(.constdata) for __FUNCTION__
    test_app_func.o(i.Test_SetWidgetValueFunc) refers to motordriver.o(.data) for LED_Open_Flag
    test_app_func.o(.constdata) refers to test_app_func.o(.conststring) for .conststring
    test_app_func.o(.data) refers to test_app_func.o(.constdata) for s_TestWidgetList
    test_msg_push.o(.constdata) refers to test_msg_push.o(i.bandWidthMsgCallback) for bandWidthMsgCallback
    test_msg_push.o(.constdata) refers to test_msg_push.o(i.uavAttitudeMsgCallback) for uavAttitudeMsgCallback
    test_msg_push.o(.constdata) refers to test_msg_push.o(i.batteryInfoMsgCallback) for batteryInfoMsgCallback
    test_msg_push.o(.constdata) refers to test_msg_push.o(i.gpsInfoMsgCallback) for gpsInfoMsgCallback
    test_msg_push.o(.constdata) refers to test_msg_push.o(i.uavStateMsgCallback) for uavStateMsgCallback
    test_msg_push.o(.constdata) refers to test_msg_push.o(i.appDateTimeMsgCallback) for appDateTimeMsgCallback
    test_msg_push.o(.constdata) refers to test_msg_push.o(i.baroHeightDataMsgCallback) for baroHeightDataMsgCallback
    test_msg_push.o(.constdata) refers to test_msg_push.o(i.gpsRawDataMsgCallback) for gpsRawDataMsgCallback
    test_msg_push.o(.constdata) refers to test_msg_push.o(i.rtkRawDataMsgCallback) for rtkRawDataMsgCallback
    test_payload_gimbal_emu.o(i.GimbalEmu_ControlSpeed) refers to log_printf.o(i.UART_Printf) for UART_Printf
    test_payload_gimbal_emu.o(i.GimbalEmu_ControlSpeed) refers to test_payload_gimbal_emu.o(.constdata) for __FUNCTION__
    test_payload_gimbal_emu.o(i.GimbalEmu_ControlSpeed) refers to test_payload_gimbal_emu.o(.data) for pitchSpeed
    test_payload_gimbal_emu.o(i.GimbalEmu_ControlSpeed) refers to communicate.o(.data) for USART_TX_BUF
    test_payload_gimbal_emu.o(i.GimbalEmu_GetGimbalParam) refers to dflti.o(.text) for __aeabi_i2d
    test_payload_gimbal_emu.o(i.GimbalEmu_GetGimbalParam) refers to dmul.o(.text) for __aeabi_dmul
    test_payload_gimbal_emu.o(i.GimbalEmu_GetGimbalParam) refers to dadd.o(.text) for __aeabi_dadd
    test_payload_gimbal_emu.o(i.GimbalEmu_GetGimbalParam) refers to dfixi.o(.text) for __aeabi_d2iz
    test_payload_gimbal_emu.o(i.GimbalEmu_GetGimbalParam) refers to test_payload_gimbal_emu.o(.data) for gimbalMode
    test_payload_gimbal_emu.o(i.GimbalEmu_ReturnHead) refers to log_printf.o(i.UART_Printf) for UART_Printf
    test_payload_gimbal_emu.o(i.GimbalEmu_ReturnHead) refers to test_payload_gimbal_emu.o(.constdata) for __FUNCTION__
    test_payload_gimbal_emu.o(i.GimbalEmu_ReturnHead) refers to test_payload_gimbal_emu.o(.data) for pitch
    test_payload_gimbal_emu.o(i.GimbalEmu_SetGimbalMode) refers to log_printf.o(i.UART_Printf) for UART_Printf
    test_payload_gimbal_emu.o(i.GimbalEmu_SetGimbalMode) refers to test_payload_gimbal_emu.o(.constdata) for __FUNCTION__
    test_payload_gimbal_emu.o(i.GimbalEmu_SetGimbalMode) refers to test_payload_gimbal_emu.o(.data) for gimbalMode
    test_payload_gimbal_emu.o(i.GimbalEmu_StartCalibration) refers to log_printf.o(i.UART_Printf) for UART_Printf
    test_payload_gimbal_emu.o(i.GimbalEmu_StartCalibration) refers to test_payload_gimbal_emu.o(.constdata) for __FUNCTION__
    test_payload_gimbal_emu.o(.constdata) refers to test_payload_gimbal_emu.o(i.GimbalEmu_GetGimbalParam) for GimbalEmu_GetGimbalParam
    test_payload_gimbal_emu.o(.constdata) refers to test_payload_gimbal_emu.o(i.GimbalEmu_SetGimbalMode) for GimbalEmu_SetGimbalMode
    test_payload_gimbal_emu.o(.constdata) refers to test_payload_gimbal_emu.o(i.GimbalEmu_ReturnHead) for GimbalEmu_ReturnHead
    test_payload_gimbal_emu.o(.constdata) refers to test_payload_gimbal_emu.o(i.GimbalEmu_ControlSpeed) for GimbalEmu_ControlSpeed
    test_payload_gimbal_emu.o(.constdata) refers to test_payload_gimbal_emu.o(i.GimbalEmu_StartCalibration) for GimbalEmu_StartCalibration
    startup_stm32f10x_md.o(RESET) refers to startup_stm32f10x_md.o(STACK) for __initial_sp
    startup_stm32f10x_md.o(RESET) refers to startup_stm32f10x_md.o(.text) for Reset_Handler
    startup_stm32f10x_md.o(RESET) refers to motordriver.o(i.TIM4_IRQHandler) for TIM4_IRQHandler
    startup_stm32f10x_md.o(RESET) refers to uart.o(i.USART1_IRQHandler) for USART1_IRQHandler
    startup_stm32f10x_md.o(RESET) refers to uart.o(i.USART2_IRQHandler) for USART2_IRQHandler
    startup_stm32f10x_md.o(RESET) refers to uart.o(i.USART3_IRQHandler) for USART3_IRQHandler
    startup_stm32f10x_md.o(.text) refers to system_stm32f10x.o(i.SystemInit) for SystemInit
    startup_stm32f10x_md.o(.text) refers to entry.o(.ARM.Collect$$$$00000000) for __main
    system_stm32f10x.o(i.SetSysClock) refers to system_stm32f10x.o(i.SetSysClockTo72) for SetSysClockTo72
    system_stm32f10x.o(i.SystemCoreClockUpdate) refers to system_stm32f10x.o(.data) for SystemCoreClock
    system_stm32f10x.o(i.SystemInit) refers to system_stm32f10x.o(i.SetSysClock) for SetSysClock
    entry.o(.ARM.Collect$$$$00000000) refers (Special) to entry10a.o(.ARM.Collect$$$$0000000D) for __rt_final_cpp
    entry.o(.ARM.Collect$$$$00000000) refers (Special) to entry11a.o(.ARM.Collect$$$$0000000F) for __rt_final_exit
    entry.o(.ARM.Collect$$$$00000000) refers (Special) to entry7b.o(.ARM.Collect$$$$00000008) for _main_clock
    entry.o(.ARM.Collect$$$$00000000) refers (Special) to entry8b.o(.ARM.Collect$$$$0000000A) for _main_cpp_init
    entry.o(.ARM.Collect$$$$00000000) refers (Special) to entry9a.o(.ARM.Collect$$$$0000000B) for _main_init
    entry.o(.ARM.Collect$$$$00000000) refers (Special) to entry5.o(.ARM.Collect$$$$00000004) for _main_scatterload
    entry.o(.ARM.Collect$$$$00000000) refers (Special) to entry2.o(.ARM.Collect$$$$00000001) for _main_stk
    printfb.o(i.__0fprintf$bare) refers to printfb.o(i._printf_core) for _printf_core
    printfb.o(i.__0fprintf$bare) refers to fputc.o(i.fputc) for fputc
    printfb.o(i.__0printf$bare) refers to printfb.o(i._printf_core) for _printf_core
    printfb.o(i.__0printf$bare) refers to fputc.o(i.fputc) for fputc
    printfb.o(i.__0printf$bare) refers to stdout.o(.data) for __stdout
    printfb.o(i.__0snprintf$bare) refers to printfb.o(i._printf_core) for _printf_core
    printfb.o(i.__0snprintf$bare) refers to printfb.o(i._snputc) for _snputc
    printfb.o(i.__0sprintf$bare) refers to printfb.o(i._printf_core) for _printf_core
    printfb.o(i.__0sprintf$bare) refers to printfb.o(i._sputc) for _sputc
    printfb.o(i.__0vfprintf$bare) refers to printfb.o(i._printf_core) for _printf_core
    printfb.o(i.__0vfprintf$bare) refers to fputc.o(i.fputc) for fputc
    printfb.o(i.__0vprintf$bare) refers to printfb.o(i._printf_core) for _printf_core
    printfb.o(i.__0vprintf$bare) refers to fputc.o(i.fputc) for fputc
    printfb.o(i.__0vprintf$bare) refers to stdout.o(.data) for __stdout
    printfb.o(i.__0vsnprintf$bare) refers to printfb.o(i._printf_core) for _printf_core
    printfb.o(i.__0vsnprintf$bare) refers to printfb.o(i._snputc) for _snputc
    printfb.o(i.__0vsprintf$bare) refers to printfb.o(i._printf_core) for _printf_core
    printfb.o(i.__0vsprintf$bare) refers to printfb.o(i._sputc) for _sputc
    printf0.o(i.__0fprintf$0) refers to printf0.o(i._printf_core) for _printf_core
    printf0.o(i.__0fprintf$0) refers to fputc.o(i.fputc) for fputc
    printf0.o(i.__0printf$0) refers to printf0.o(i._printf_core) for _printf_core
    printf0.o(i.__0printf$0) refers to fputc.o(i.fputc) for fputc
    printf0.o(i.__0printf$0) refers to stdout.o(.data) for __stdout
    printf0.o(i.__0snprintf$0) refers to printf0.o(i._printf_core) for _printf_core
    printf0.o(i.__0snprintf$0) refers to printf0.o(i._snputc) for _snputc
    printf0.o(i.__0sprintf$0) refers to printf0.o(i._printf_core) for _printf_core
    printf0.o(i.__0sprintf$0) refers to printf0.o(i._sputc) for _sputc
    printf0.o(i.__0vfprintf$0) refers to printf0.o(i._printf_core) for _printf_core
    printf0.o(i.__0vfprintf$0) refers to fputc.o(i.fputc) for fputc
    printf0.o(i.__0vprintf$0) refers to printf0.o(i._printf_core) for _printf_core
    printf0.o(i.__0vprintf$0) refers to fputc.o(i.fputc) for fputc
    printf0.o(i.__0vprintf$0) refers to stdout.o(.data) for __stdout
    printf0.o(i.__0vsnprintf$0) refers to printf0.o(i._printf_core) for _printf_core
    printf0.o(i.__0vsnprintf$0) refers to printf0.o(i._snputc) for _snputc
    printf0.o(i.__0vsprintf$0) refers to printf0.o(i._printf_core) for _printf_core
    printf0.o(i.__0vsprintf$0) refers to printf0.o(i._sputc) for _sputc
    printf1.o(i.__0fprintf$1) refers to printf1.o(i._printf_core) for _printf_core
    printf1.o(i.__0fprintf$1) refers to fputc.o(i.fputc) for fputc
    printf1.o(i.__0printf$1) refers to printf1.o(i._printf_core) for _printf_core
    printf1.o(i.__0printf$1) refers to fputc.o(i.fputc) for fputc
    printf1.o(i.__0printf$1) refers to stdout.o(.data) for __stdout
    printf1.o(i.__0snprintf$1) refers to printf1.o(i._printf_core) for _printf_core
    printf1.o(i.__0snprintf$1) refers to printf1.o(i._snputc) for _snputc
    printf1.o(i.__0sprintf$1) refers to printf1.o(i._printf_core) for _printf_core
    printf1.o(i.__0sprintf$1) refers to printf1.o(i._sputc) for _sputc
    printf1.o(i.__0vfprintf$1) refers to printf1.o(i._printf_core) for _printf_core
    printf1.o(i.__0vfprintf$1) refers to fputc.o(i.fputc) for fputc
    printf1.o(i.__0vprintf$1) refers to printf1.o(i._printf_core) for _printf_core
    printf1.o(i.__0vprintf$1) refers to fputc.o(i.fputc) for fputc
    printf1.o(i.__0vprintf$1) refers to stdout.o(.data) for __stdout
    printf1.o(i.__0vsnprintf$1) refers to printf1.o(i._printf_core) for _printf_core
    printf1.o(i.__0vsnprintf$1) refers to printf1.o(i._snputc) for _snputc
    printf1.o(i.__0vsprintf$1) refers to printf1.o(i._printf_core) for _printf_core
    printf1.o(i.__0vsprintf$1) refers to printf1.o(i._sputc) for _sputc
    printf1.o(i._printf_core) refers to uidiv.o(.text) for __aeabi_uidivmod
    printf2.o(i.__0fprintf$2) refers to printf2.o(i._printf_core) for _printf_core
    printf2.o(i.__0fprintf$2) refers to fputc.o(i.fputc) for fputc
    printf2.o(i.__0printf$2) refers to printf2.o(i._printf_core) for _printf_core
    printf2.o(i.__0printf$2) refers to fputc.o(i.fputc) for fputc
    printf2.o(i.__0printf$2) refers to stdout.o(.data) for __stdout
    printf2.o(i.__0snprintf$2) refers to printf2.o(i._printf_core) for _printf_core
    printf2.o(i.__0snprintf$2) refers to printf2.o(i._snputc) for _snputc
    printf2.o(i.__0sprintf$2) refers to printf2.o(i._printf_core) for _printf_core
    printf2.o(i.__0sprintf$2) refers to printf2.o(i._sputc) for _sputc
    printf2.o(i.__0vfprintf$2) refers to printf2.o(i._printf_core) for _printf_core
    printf2.o(i.__0vfprintf$2) refers to fputc.o(i.fputc) for fputc
    printf2.o(i.__0vprintf$2) refers to printf2.o(i._printf_core) for _printf_core
    printf2.o(i.__0vprintf$2) refers to fputc.o(i.fputc) for fputc
    printf2.o(i.__0vprintf$2) refers to stdout.o(.data) for __stdout
    printf2.o(i.__0vsnprintf$2) refers to printf2.o(i._printf_core) for _printf_core
    printf2.o(i.__0vsnprintf$2) refers to printf2.o(i._snputc) for _snputc
    printf2.o(i.__0vsprintf$2) refers to printf2.o(i._printf_core) for _printf_core
    printf2.o(i.__0vsprintf$2) refers to printf2.o(i._sputc) for _sputc
    printf3.o(i.__0fprintf$3) refers to printf3.o(i._printf_core) for _printf_core
    printf3.o(i.__0fprintf$3) refers to fputc.o(i.fputc) for fputc
    printf3.o(i.__0printf$3) refers to printf3.o(i._printf_core) for _printf_core
    printf3.o(i.__0printf$3) refers to fputc.o(i.fputc) for fputc
    printf3.o(i.__0printf$3) refers to stdout.o(.data) for __stdout
    printf3.o(i.__0snprintf$3) refers to printf3.o(i._printf_core) for _printf_core
    printf3.o(i.__0snprintf$3) refers to printf3.o(i._snputc) for _snputc
    printf3.o(i.__0sprintf$3) refers to printf3.o(i._printf_core) for _printf_core
    printf3.o(i.__0sprintf$3) refers to printf3.o(i._sputc) for _sputc
    printf3.o(i.__0vfprintf$3) refers to printf3.o(i._printf_core) for _printf_core
    printf3.o(i.__0vfprintf$3) refers to fputc.o(i.fputc) for fputc
    printf3.o(i.__0vprintf$3) refers to printf3.o(i._printf_core) for _printf_core
    printf3.o(i.__0vprintf$3) refers to fputc.o(i.fputc) for fputc
    printf3.o(i.__0vprintf$3) refers to stdout.o(.data) for __stdout
    printf3.o(i.__0vsnprintf$3) refers to printf3.o(i._printf_core) for _printf_core
    printf3.o(i.__0vsnprintf$3) refers to printf3.o(i._snputc) for _snputc
    printf3.o(i.__0vsprintf$3) refers to printf3.o(i._printf_core) for _printf_core
    printf3.o(i.__0vsprintf$3) refers to printf3.o(i._sputc) for _sputc
    printf3.o(i._printf_core) refers to uidiv.o(.text) for __aeabi_uidivmod
    printf4.o(i.__0fprintf$4) refers to printf4.o(i._printf_core) for _printf_core
    printf4.o(i.__0fprintf$4) refers to fputc.o(i.fputc) for fputc
    printf4.o(i.__0printf$4) refers to printf4.o(i._printf_core) for _printf_core
    printf4.o(i.__0printf$4) refers to fputc.o(i.fputc) for fputc
    printf4.o(i.__0printf$4) refers to stdout.o(.data) for __stdout
    printf4.o(i.__0snprintf$4) refers to printf4.o(i._printf_core) for _printf_core
    printf4.o(i.__0snprintf$4) refers to printf4.o(i._snputc) for _snputc
    printf4.o(i.__0sprintf$4) refers to printf4.o(i._printf_core) for _printf_core
    printf4.o(i.__0sprintf$4) refers to printf4.o(i._sputc) for _sputc
    printf4.o(i.__0vfprintf$4) refers to printf4.o(i._printf_core) for _printf_core
    printf4.o(i.__0vfprintf$4) refers to fputc.o(i.fputc) for fputc
    printf4.o(i.__0vprintf$4) refers to printf4.o(i._printf_core) for _printf_core
    printf4.o(i.__0vprintf$4) refers to fputc.o(i.fputc) for fputc
    printf4.o(i.__0vprintf$4) refers to stdout.o(.data) for __stdout
    printf4.o(i.__0vsnprintf$4) refers to printf4.o(i._printf_core) for _printf_core
    printf4.o(i.__0vsnprintf$4) refers to printf4.o(i._snputc) for _snputc
    printf4.o(i.__0vsprintf$4) refers to printf4.o(i._printf_core) for _printf_core
    printf4.o(i.__0vsprintf$4) refers to printf4.o(i._sputc) for _sputc
    printf4.o(i._printf_core) refers to uldiv.o(.text) for __aeabi_uldivmod
    printf5.o(i.__0fprintf$5) refers to printf5.o(i._printf_core) for _printf_core
    printf5.o(i.__0fprintf$5) refers to fputc.o(i.fputc) for fputc
    printf5.o(i.__0printf$5) refers to printf5.o(i._printf_core) for _printf_core
    printf5.o(i.__0printf$5) refers to fputc.o(i.fputc) for fputc
    printf5.o(i.__0printf$5) refers to stdout.o(.data) for __stdout
    printf5.o(i.__0snprintf$5) refers to printf5.o(i._printf_core) for _printf_core
    printf5.o(i.__0snprintf$5) refers to printf5.o(i._snputc) for _snputc
    printf5.o(i.__0sprintf$5) refers to printf5.o(i._printf_core) for _printf_core
    printf5.o(i.__0sprintf$5) refers to printf5.o(i._sputc) for _sputc
    printf5.o(i.__0vfprintf$5) refers to printf5.o(i._printf_core) for _printf_core
    printf5.o(i.__0vfprintf$5) refers to fputc.o(i.fputc) for fputc
    printf5.o(i.__0vprintf$5) refers to printf5.o(i._printf_core) for _printf_core
    printf5.o(i.__0vprintf$5) refers to fputc.o(i.fputc) for fputc
    printf5.o(i.__0vprintf$5) refers to stdout.o(.data) for __stdout
    printf5.o(i.__0vsnprintf$5) refers to printf5.o(i._printf_core) for _printf_core
    printf5.o(i.__0vsnprintf$5) refers to printf5.o(i._snputc) for _snputc
    printf5.o(i.__0vsprintf$5) refers to printf5.o(i._printf_core) for _printf_core
    printf5.o(i.__0vsprintf$5) refers to printf5.o(i._sputc) for _sputc
    printf5.o(i._printf_core) refers to uldiv.o(.text) for __aeabi_uldivmod
    printf6.o(i.__0fprintf$6) refers to printf6.o(i._printf_core) for _printf_core
    printf6.o(i.__0fprintf$6) refers to fputc.o(i.fputc) for fputc
    printf6.o(i.__0printf$6) refers to printf6.o(i._printf_core) for _printf_core
    printf6.o(i.__0printf$6) refers to fputc.o(i.fputc) for fputc
    printf6.o(i.__0printf$6) refers to stdout.o(.data) for __stdout
    printf6.o(i.__0snprintf$6) refers to printf6.o(i._printf_core) for _printf_core
    printf6.o(i.__0snprintf$6) refers to printf6.o(i._snputc) for _snputc
    printf6.o(i.__0sprintf$6) refers to printf6.o(i._printf_core) for _printf_core
    printf6.o(i.__0sprintf$6) refers to printf6.o(i._sputc) for _sputc
    printf6.o(i.__0vfprintf$6) refers to printf6.o(i._printf_core) for _printf_core
    printf6.o(i.__0vfprintf$6) refers to fputc.o(i.fputc) for fputc
    printf6.o(i.__0vprintf$6) refers to printf6.o(i._printf_core) for _printf_core
    printf6.o(i.__0vprintf$6) refers to fputc.o(i.fputc) for fputc
    printf6.o(i.__0vprintf$6) refers to stdout.o(.data) for __stdout
    printf6.o(i.__0vsnprintf$6) refers to printf6.o(i._printf_core) for _printf_core
    printf6.o(i.__0vsnprintf$6) refers to printf6.o(i._snputc) for _snputc
    printf6.o(i.__0vsprintf$6) refers to printf6.o(i._printf_core) for _printf_core
    printf6.o(i.__0vsprintf$6) refers to printf6.o(i._sputc) for _sputc
    printf6.o(i._printf_core) refers to printf6.o(i._printf_pre_padding) for _printf_pre_padding
    printf6.o(i._printf_core) refers to uidiv.o(.text) for __aeabi_uidivmod
    printf6.o(i._printf_core) refers to printf6.o(i._printf_post_padding) for _printf_post_padding
    printf7.o(i.__0fprintf$7) refers to printf7.o(i._printf_core) for _printf_core
    printf7.o(i.__0fprintf$7) refers to fputc.o(i.fputc) for fputc
    printf7.o(i.__0printf$7) refers to printf7.o(i._printf_core) for _printf_core
    printf7.o(i.__0printf$7) refers to fputc.o(i.fputc) for fputc
    printf7.o(i.__0printf$7) refers to stdout.o(.data) for __stdout
    printf7.o(i.__0snprintf$7) refers to printf7.o(i._printf_core) for _printf_core
    printf7.o(i.__0snprintf$7) refers to printf7.o(i._snputc) for _snputc
    printf7.o(i.__0sprintf$7) refers to printf7.o(i._printf_core) for _printf_core
    printf7.o(i.__0sprintf$7) refers to printf7.o(i._sputc) for _sputc
    printf7.o(i.__0vfprintf$7) refers to printf7.o(i._printf_core) for _printf_core
    printf7.o(i.__0vfprintf$7) refers to fputc.o(i.fputc) for fputc
    printf7.o(i.__0vprintf$7) refers to printf7.o(i._printf_core) for _printf_core
    printf7.o(i.__0vprintf$7) refers to fputc.o(i.fputc) for fputc
    printf7.o(i.__0vprintf$7) refers to stdout.o(.data) for __stdout
    printf7.o(i.__0vsnprintf$7) refers to printf7.o(i._printf_core) for _printf_core
    printf7.o(i.__0vsnprintf$7) refers to printf7.o(i._snputc) for _snputc
    printf7.o(i.__0vsprintf$7) refers to printf7.o(i._printf_core) for _printf_core
    printf7.o(i.__0vsprintf$7) refers to printf7.o(i._sputc) for _sputc
    printf7.o(i._printf_core) refers to printf7.o(i._printf_pre_padding) for _printf_pre_padding
    printf7.o(i._printf_core) refers to uldiv.o(.text) for __aeabi_uldivmod
    printf7.o(i._printf_core) refers to printf7.o(i._printf_post_padding) for _printf_post_padding
    printf8.o(i.__0fprintf$8) refers to printf8.o(i._printf_core) for _printf_core
    printf8.o(i.__0fprintf$8) refers to fputc.o(i.fputc) for fputc
    printf8.o(i.__0printf$8) refers to printf8.o(i._printf_core) for _printf_core
    printf8.o(i.__0printf$8) refers to fputc.o(i.fputc) for fputc
    printf8.o(i.__0printf$8) refers to stdout.o(.data) for __stdout
    printf8.o(i.__0snprintf$8) refers to printf8.o(i._printf_core) for _printf_core
    printf8.o(i.__0snprintf$8) refers to printf8.o(i._snputc) for _snputc
    printf8.o(i.__0sprintf$8) refers to printf8.o(i._printf_core) for _printf_core
    printf8.o(i.__0sprintf$8) refers to printf8.o(i._sputc) for _sputc
    printf8.o(i.__0vfprintf$8) refers to printf8.o(i._printf_core) for _printf_core
    printf8.o(i.__0vfprintf$8) refers to fputc.o(i.fputc) for fputc
    printf8.o(i.__0vprintf$8) refers to printf8.o(i._printf_core) for _printf_core
    printf8.o(i.__0vprintf$8) refers to fputc.o(i.fputc) for fputc
    printf8.o(i.__0vprintf$8) refers to stdout.o(.data) for __stdout
    printf8.o(i.__0vsnprintf$8) refers to printf8.o(i._printf_core) for _printf_core
    printf8.o(i.__0vsnprintf$8) refers to printf8.o(i._snputc) for _snputc
    printf8.o(i.__0vsprintf$8) refers to printf8.o(i._printf_core) for _printf_core
    printf8.o(i.__0vsprintf$8) refers to printf8.o(i._sputc) for _sputc
    printf8.o(i._printf_core) refers to printf8.o(i._printf_pre_padding) for _printf_pre_padding
    printf8.o(i._printf_core) refers to uldiv.o(.text) for __aeabi_uldivmod
    printf8.o(i._printf_core) refers to printf8.o(i._printf_post_padding) for _printf_post_padding
    printfa.o(i.__0fprintf) refers (Special) to iusefp.o(.text) for __I$use$fp
    printfa.o(i.__0fprintf) refers to printfa.o(i._printf_core) for _printf_core
    printfa.o(i.__0fprintf) refers to fputc.o(i.fputc) for fputc
    printfa.o(i.__0printf) refers (Special) to iusefp.o(.text) for __I$use$fp
    printfa.o(i.__0printf) refers to printfa.o(i._printf_core) for _printf_core
    printfa.o(i.__0printf) refers to fputc.o(i.fputc) for fputc
    printfa.o(i.__0printf) refers to stdout.o(.data) for __stdout
    printfa.o(i.__0snprintf) refers (Special) to iusefp.o(.text) for __I$use$fp
    printfa.o(i.__0snprintf) refers to printfa.o(i._printf_core) for _printf_core
    printfa.o(i.__0snprintf) refers to printfa.o(i._snputc) for _snputc
    printfa.o(i.__0sprintf) refers (Special) to iusefp.o(.text) for __I$use$fp
    printfa.o(i.__0sprintf) refers to printfa.o(i._printf_core) for _printf_core
    printfa.o(i.__0sprintf) refers to printfa.o(i._sputc) for _sputc
    printfa.o(i.__0vfprintf) refers (Special) to iusefp.o(.text) for __I$use$fp
    printfa.o(i.__0vfprintf) refers to printfa.o(i._printf_core) for _printf_core
    printfa.o(i.__0vfprintf) refers to fputc.o(i.fputc) for fputc
    printfa.o(i.__0vprintf) refers (Special) to iusefp.o(.text) for __I$use$fp
    printfa.o(i.__0vprintf) refers to printfa.o(i._printf_core) for _printf_core
    printfa.o(i.__0vprintf) refers to fputc.o(i.fputc) for fputc
    printfa.o(i.__0vprintf) refers to stdout.o(.data) for __stdout
    printfa.o(i.__0vsnprintf) refers (Special) to iusefp.o(.text) for __I$use$fp
    printfa.o(i.__0vsnprintf) refers to printfa.o(i._printf_core) for _printf_core
    printfa.o(i.__0vsnprintf) refers to printfa.o(i._snputc) for _snputc
    printfa.o(i.__0vsprintf) refers (Special) to iusefp.o(.text) for __I$use$fp
    printfa.o(i.__0vsprintf) refers to printfa.o(i._printf_core) for _printf_core
    printfa.o(i.__0vsprintf) refers to printfa.o(i._sputc) for _sputc
    printfa.o(i._fp_digits) refers (Special) to iusefp.o(.text) for __I$use$fp
    printfa.o(i._fp_digits) refers to dmul.o(.text) for __aeabi_dmul
    printfa.o(i._fp_digits) refers to ddiv.o(.text) for __aeabi_ddiv
    printfa.o(i._fp_digits) refers to cdrcmple.o(.text) for __aeabi_cdrcmple
    printfa.o(i._fp_digits) refers to dadd.o(.text) for __aeabi_dadd
    printfa.o(i._fp_digits) refers to dfixul.o(.text) for __aeabi_d2ulz
    printfa.o(i._fp_digits) refers to uldiv.o(.text) for __aeabi_uldivmod
    printfa.o(i._printf_core) refers (Special) to iusefp.o(.text) for __I$use$fp
    printfa.o(i._printf_core) refers to printfa.o(i._printf_pre_padding) for _printf_pre_padding
    printfa.o(i._printf_core) refers to uldiv.o(.text) for __aeabi_uldivmod
    printfa.o(i._printf_core) refers to printfa.o(i._printf_post_padding) for _printf_post_padding
    printfa.o(i._printf_core) refers to printfa.o(i._fp_digits) for _fp_digits
    printfa.o(i._printf_core) refers to uidiv.o(.text) for __aeabi_uidivmod
    printfa.o(i._printf_post_padding) refers (Special) to iusefp.o(.text) for __I$use$fp
    printfa.o(i._printf_pre_padding) refers (Special) to iusefp.o(.text) for __I$use$fp
    printfa.o(i._snputc) refers (Special) to iusefp.o(.text) for __I$use$fp
    printfa.o(i._sputc) refers (Special) to iusefp.o(.text) for __I$use$fp
    malloc.o(i.free) refers to mvars.o(.data) for __microlib_freelist
    malloc.o(i.malloc) refers to mvars.o(.data) for __microlib_freelist_initialised
    malloc.o(i.malloc) refers to mvars.o(.data) for __microlib_freelist
    malloc.o(i.malloc) refers to startup_stm32f10x_md.o(HEAP) for __heap_base
    mallocr.o(i.__free$realloc) refers to mvars.o(.data) for __microlib_freelist
    mallocr.o(i.__malloc$realloc) refers to mallocr.o(i.internal_alloc) for internal_alloc
    mallocr.o(i.__malloc$realloc) refers to mvars.o(.data) for __microlib_freelist_initialised
    mallocr.o(i.__malloc$realloc) refers to startup_stm32f10x_md.o(HEAP) for __heap_base
    mallocr.o(i.__malloc$realloc) refers to mvars.o(.data) for __microlib_freelist
    mallocr.o(i.internal_alloc) refers to memcpya.o(.text) for __aeabi_memcpy
    mallocr.o(i.internal_alloc) refers to mvars.o(.data) for __microlib_freelist
    mallocr.o(i.realloc) refers to mallocr.o(i.__free$realloc) for __free$realloc
    mallocr.o(i.realloc) refers to mallocr.o(i.internal_alloc) for internal_alloc
    mallocr.o(i.realloc) refers to mallocr.o(i.__malloc$realloc) for __malloc$realloc
    mallocr.o(i.realloc) refers to mvars.o(.data) for __microlib_freelist
    malloca.o(i.__aligned_malloc) refers to mvars.o(.data) for __microlib_freelist_initialised
    malloca.o(i.__aligned_malloc) refers to mvars.o(.data) for __microlib_freelist
    malloca.o(i.__aligned_malloc) refers to startup_stm32f10x_md.o(HEAP) for __heap_base
    malloca.o(i.__free$memalign) refers to mvars.o(.data) for __microlib_freelist
    malloca.o(i.__malloc$memalign) refers to malloca.o(i.__aligned_malloc) for __aligned_malloc
    mallocra.o(i.__aligned_malloc$realloc) refers to mallocra.o(i.internal_alloc) for internal_alloc
    mallocra.o(i.__aligned_malloc$realloc) refers to mvars.o(.data) for __microlib_freelist_initialised
    mallocra.o(i.__aligned_malloc$realloc) refers to startup_stm32f10x_md.o(HEAP) for __heap_base
    mallocra.o(i.__aligned_malloc$realloc) refers to mvars.o(.data) for __microlib_freelist
    mallocra.o(i.__free$realloc$memalign) refers to mvars.o(.data) for __microlib_freelist
    mallocra.o(i.__malloc$realloc$memalign) refers to mallocra.o(i.__aligned_malloc$realloc) for __aligned_malloc$realloc
    mallocra.o(i.__realloc$memalign) refers to mallocra.o(i.__free$realloc$memalign) for __free$realloc$memalign
    mallocra.o(i.__realloc$memalign) refers to mallocra.o(i.internal_alloc) for internal_alloc
    mallocra.o(i.__realloc$memalign) refers to mallocra.o(i.__malloc$realloc$memalign) for __malloc$realloc$memalign
    mallocra.o(i.__realloc$memalign) refers to mvars.o(.data) for __microlib_freelist
    mallocra.o(i.internal_alloc) refers to memcpya.o(.text) for __aeabi_memcpy
    mallocra.o(i.internal_alloc) refers to mvars.o(.data) for __microlib_freelist
    dadd.o(.text) refers (Special) to iusefp.o(.text) for __I$use$fp
    dadd.o(.text) refers to llshl.o(.text) for __aeabi_llsl
    dadd.o(.text) refers to llsshr.o(.text) for __aeabi_lasr
    dadd.o(.text) refers to depilogue.o(.text) for _double_epilogue
    dmul.o(.text) refers (Special) to iusefp.o(.text) for __I$use$fp
    dmul.o(.text) refers to depilogue.o(.text) for _double_epilogue
    ddiv.o(.text) refers (Special) to iusefp.o(.text) for __I$use$fp
    ddiv.o(.text) refers to depilogue.o(.text) for _double_round
    dflti.o(.text) refers (Special) to iusefp.o(.text) for __I$use$fp
    dflti.o(.text) refers to depilogue.o(.text) for _double_epilogue
    dfltui.o(.text) refers (Special) to iusefp.o(.text) for __I$use$fp
    dfltui.o(.text) refers to depilogue.o(.text) for _double_epilogue
    dfixi.o(.text) refers (Special) to iusefp.o(.text) for __I$use$fp
    dfixi.o(.text) refers to llushr.o(.text) for __aeabi_llsr
    f2d.o(.text) refers (Special) to iusefp.o(.text) for __I$use$fp
    d2f.o(.text) refers (Special) to iusefp.o(.text) for __I$use$fp
    d2f.o(.text) refers to fepilogue.o(.text) for _float_round
    entry2.o(.ARM.Collect$$$$00000001) refers to entry2.o(.ARM.Collect$$$$00002712) for __lit__00000000
    entry2.o(.ARM.Collect$$$$00002712) refers to startup_stm32f10x_md.o(STACK) for __initial_sp
    entry2.o(__vectab_stack_and_reset_area) refers to startup_stm32f10x_md.o(STACK) for __initial_sp
    entry2.o(__vectab_stack_and_reset_area) refers to entry.o(.ARM.Collect$$$$00000000) for __main
    entry5.o(.ARM.Collect$$$$00000004) refers to init.o(.text) for __scatterload
    entry9a.o(.ARM.Collect$$$$0000000B) refers to main.o(i.main) for main
    entry9b.o(.ARM.Collect$$$$0000000C) refers to main.o(i.main) for main
    fputc.o(i.fputc) refers (Special) to iusesemip.o(.text) for __I$use$semihosting$fputc
    fputc.o(i.fputc) refers (Special) to semi.o(.text) for __semihosting_library_function
    uldiv.o(.text) refers to llushr.o(.text) for __aeabi_llsr
    uldiv.o(.text) refers to llshl.o(.text) for __aeabi_llsl
    depilogue.o(.text) refers to llshl.o(.text) for __aeabi_llsl
    depilogue.o(.text) refers to llushr.o(.text) for __aeabi_llsr
    dfixul.o(.text) refers to llushr.o(.text) for __aeabi_llsr
    dfixul.o(.text) refers to llshl.o(.text) for __aeabi_llsl
    init.o(.text) refers to entry5.o(.ARM.Collect$$$$00000004) for __main_after_scatterload


==============================================================================

Removing Unused input sections from the image.

    Removing main.o(.rev16_text), (4 bytes).
    Removing main.o(.revsh_text), (4 bytes).
    Removing main.o(.rrx_text), (6 bytes).
    Removing application.o(.rev16_text), (4 bytes).
    Removing application.o(.revsh_text), (4 bytes).
    Removing application.o(.rrx_text), (6 bytes).
    Removing application.o(i.PsdkComInfSw), (6 bytes).
    Removing application.o(i.PsdkMotorTest), (176 bytes).
    Removing application.o(i.PsdkRunIndicate), (2 bytes).
    Removing application.o(.data), (4 bytes).
    Removing dji_ringbuffer.o(i.RingBuf_GetUnusedSize), (16 bytes).
    Removing flash.o(.rev16_text), (4 bytes).
    Removing flash.o(.revsh_text), (4 bytes).
    Removing flash.o(.rrx_text), (6 bytes).
    Removing flash.o(.bss), (2048 bytes).
    Removing led_button_switch.o(.rev16_text), (4 bytes).
    Removing led_button_switch.o(.revsh_text), (4 bytes).
    Removing led_button_switch.o(.rrx_text), (6 bytes).
    Removing led_button_switch.o(i.LED_Control), (88 bytes).
    Removing led_button_switch.o(.data), (4 bytes).
    Removing log_printf.o(.rev16_text), (4 bytes).
    Removing log_printf.o(.revsh_text), (4 bytes).
    Removing log_printf.o(.rrx_text), (6 bytes).
    Removing sys.o(.rev16_text), (4 bytes).
    Removing sys.o(.revsh_text), (4 bytes).
    Removing sys.o(.rrx_text), (6 bytes).
    Removing sys.o(i.NVIC_Configuration), (42 bytes).
    Removing sys.o(i.NVIC_SetPriority), (40 bytes).
    Removing sys.o(i.SysTick_Configuration), (68 bytes).
    Removing sys.o(i.Sys_Delay), (30 bytes).
    Removing sys.o(i.Sys_GetTick), (12 bytes).
    Removing sys.o(i.Sys_IncTick), (16 bytes).
    Removing sys.o(i.Sys_Init), (12 bytes).
    Removing sys.o(i.Wrap_NVIC_SetPriority), (132 bytes).
    Removing sys.o(.data), (4 bytes).
    Removing uart.o(.rev16_text), (4 bytes).
    Removing uart.o(.revsh_text), (4 bytes).
    Removing uart.o(.rrx_text), (6 bytes).
    Removing motordriver.o(.rev16_text), (4 bytes).
    Removing motordriver.o(.revsh_text), (4 bytes).
    Removing motordriver.o(.rrx_text), (6 bytes).
    Removing gua_timer1_pwm.o(.rev16_text), (4 bytes).
    Removing gua_timer1_pwm.o(.revsh_text), (4 bytes).
    Removing gua_timer1_pwm.o(.rrx_text), (6 bytes).
    Removing gua_timer1_pwm.o(i.GUA_Timer1_PWM_Config_Init), (152 bytes).
    Removing gua_timer1_pwm.o(i.GUA_Timer1_PWM_IO_Init), (44 bytes).
    Removing gua_timer1_pwm.o(i.GUA_Timer1_PWM_Init), (16 bytes).
    Removing gua_timer1_pwm.o(i.GUA_Timer1_PWM_SetDutyCycle), (40 bytes).
    Removing gua_timer1_pwm.o(i.GUA_Timer1_PWM_Status), (40 bytes).
    Removing adc.o(.rev16_text), (4 bytes).
    Removing adc.o(.revsh_text), (4 bytes).
    Removing adc.o(.rrx_text), (6 bytes).
    Removing communicate.o(.rev16_text), (4 bytes).
    Removing communicate.o(.revsh_text), (4 bytes).
    Removing communicate.o(.rrx_text), (6 bytes).
    Removing communicate.o(.bss), (200 bytes).
    Removing stm32f10x_gpio.o(.rev16_text), (4 bytes).
    Removing stm32f10x_gpio.o(.revsh_text), (4 bytes).
    Removing stm32f10x_gpio.o(.rrx_text), (6 bytes).
    Removing stm32f10x_gpio.o(i.GPIO_AFIODeInit), (20 bytes).
    Removing stm32f10x_gpio.o(i.GPIO_DeInit), (200 bytes).
    Removing stm32f10x_gpio.o(i.GPIO_ETH_MediaInterfaceConfig), (12 bytes).
    Removing stm32f10x_gpio.o(i.GPIO_EXTILineConfig), (64 bytes).
    Removing stm32f10x_gpio.o(i.GPIO_EventOutputCmd), (12 bytes).
    Removing stm32f10x_gpio.o(i.GPIO_EventOutputConfig), (32 bytes).
    Removing stm32f10x_gpio.o(i.GPIO_PinLockConfig), (18 bytes).
    Removing stm32f10x_gpio.o(i.GPIO_ReadInputData), (8 bytes).
    Removing stm32f10x_gpio.o(i.GPIO_ReadInputDataBit), (18 bytes).
    Removing stm32f10x_gpio.o(i.GPIO_ReadOutputData), (8 bytes).
    Removing stm32f10x_gpio.o(i.GPIO_ResetBits), (4 bytes).
    Removing stm32f10x_gpio.o(i.GPIO_SetBits), (4 bytes).
    Removing stm32f10x_gpio.o(i.GPIO_StructInit), (16 bytes).
    Removing stm32f10x_gpio.o(i.GPIO_Write), (4 bytes).
    Removing stm32f10x_rcc.o(.rev16_text), (4 bytes).
    Removing stm32f10x_rcc.o(.revsh_text), (4 bytes).
    Removing stm32f10x_rcc.o(.rrx_text), (6 bytes).
    Removing stm32f10x_rcc.o(i.RCC_AHBPeriphClockCmd), (32 bytes).
    Removing stm32f10x_rcc.o(i.RCC_AdjustHSICalibrationValue), (24 bytes).
    Removing stm32f10x_rcc.o(i.RCC_BackupResetCmd), (12 bytes).
    Removing stm32f10x_rcc.o(i.RCC_ClearFlag), (20 bytes).
    Removing stm32f10x_rcc.o(i.RCC_ClearITPendingBit), (12 bytes).
    Removing stm32f10x_rcc.o(i.RCC_ClockSecuritySystemCmd), (12 bytes).
    Removing stm32f10x_rcc.o(i.RCC_GetITStatus), (24 bytes).
    Removing stm32f10x_rcc.o(i.RCC_HSEConfig), (76 bytes).
    Removing stm32f10x_rcc.o(i.RCC_ITConfig), (32 bytes).
    Removing stm32f10x_rcc.o(i.RCC_LSEConfig), (52 bytes).
    Removing stm32f10x_rcc.o(i.RCC_LSICmd), (12 bytes).
    Removing stm32f10x_rcc.o(i.RCC_MCOConfig), (12 bytes).
    Removing stm32f10x_rcc.o(i.RCC_RTCCLKCmd), (12 bytes).
    Removing stm32f10x_rcc.o(i.RCC_RTCCLKConfig), (16 bytes).
    Removing stm32f10x_rcc.o(i.RCC_USBCLKConfig), (12 bytes).
    Removing stm32f10x_rcc.o(i.RCC_WaitForHSEStartUp), (56 bytes).
    Removing stm32f10x_adc.o(.rev16_text), (4 bytes).
    Removing stm32f10x_adc.o(.revsh_text), (4 bytes).
    Removing stm32f10x_adc.o(.rrx_text), (6 bytes).
    Removing stm32f10x_adc.o(i.ADC_AnalogWatchdogCmd), (20 bytes).
    Removing stm32f10x_adc.o(i.ADC_AnalogWatchdogSingleChannelConfig), (16 bytes).
    Removing stm32f10x_adc.o(i.ADC_AnalogWatchdogThresholdsConfig), (6 bytes).
    Removing stm32f10x_adc.o(i.ADC_AutoInjectedConvCmd), (22 bytes).
    Removing stm32f10x_adc.o(i.ADC_ClearFlag), (6 bytes).
    Removing stm32f10x_adc.o(i.ADC_ClearITPendingBit), (10 bytes).
    Removing stm32f10x_adc.o(i.ADC_DMACmd), (22 bytes).
    Removing stm32f10x_adc.o(i.ADC_DeInit), (92 bytes).
    Removing stm32f10x_adc.o(i.ADC_DiscModeChannelCountConfig), (24 bytes).
    Removing stm32f10x_adc.o(i.ADC_DiscModeCmd), (22 bytes).
    Removing stm32f10x_adc.o(i.ADC_ExternalTrigConvCmd), (22 bytes).
    Removing stm32f10x_adc.o(i.ADC_ExternalTrigInjectedConvCmd), (22 bytes).
    Removing stm32f10x_adc.o(i.ADC_ExternalTrigInjectedConvConfig), (16 bytes).
    Removing stm32f10x_adc.o(i.ADC_GetDualModeConversionValue), (12 bytes).
    Removing stm32f10x_adc.o(i.ADC_GetITStatus), (36 bytes).
    Removing stm32f10x_adc.o(i.ADC_GetInjectedConversionValue), (28 bytes).
    Removing stm32f10x_adc.o(i.ADC_GetSoftwareStartConvStatus), (20 bytes).
    Removing stm32f10x_adc.o(i.ADC_GetSoftwareStartInjectedConvCmdStatus), (20 bytes).
    Removing stm32f10x_adc.o(i.ADC_ITConfig), (24 bytes).
    Removing stm32f10x_adc.o(i.ADC_InjectedChannelConfig), (130 bytes).
    Removing stm32f10x_adc.o(i.ADC_InjectedDiscModeCmd), (22 bytes).
    Removing stm32f10x_adc.o(i.ADC_InjectedSequencerLengthConfig), (24 bytes).
    Removing stm32f10x_adc.o(i.ADC_SetInjectedOffset), (20 bytes).
    Removing stm32f10x_adc.o(i.ADC_SoftwareStartInjectedConvCmd), (22 bytes).
    Removing stm32f10x_adc.o(i.ADC_StructInit), (18 bytes).
    Removing stm32f10x_adc.o(i.ADC_TempSensorVrefintCmd), (36 bytes).
    Removing stm32f10x_dma.o(.rev16_text), (4 bytes).
    Removing stm32f10x_dma.o(.revsh_text), (4 bytes).
    Removing stm32f10x_dma.o(.rrx_text), (6 bytes).
    Removing stm32f10x_dma.o(i.DMA_ClearFlag), (28 bytes).
    Removing stm32f10x_dma.o(i.DMA_ClearITPendingBit), (28 bytes).
    Removing stm32f10x_dma.o(i.DMA_Cmd), (24 bytes).
    Removing stm32f10x_dma.o(i.DMA_DeInit), (332 bytes).
    Removing stm32f10x_dma.o(i.DMA_GetCurrDataCounter), (8 bytes).
    Removing stm32f10x_dma.o(i.DMA_GetFlagStatus), (44 bytes).
    Removing stm32f10x_dma.o(i.DMA_GetITStatus), (44 bytes).
    Removing stm32f10x_dma.o(i.DMA_ITConfig), (18 bytes).
    Removing stm32f10x_dma.o(i.DMA_Init), (60 bytes).
    Removing stm32f10x_dma.o(i.DMA_SetCurrDataCounter), (4 bytes).
    Removing stm32f10x_dma.o(i.DMA_StructInit), (26 bytes).
    Removing stm32f10x_exti.o(.rev16_text), (4 bytes).
    Removing stm32f10x_exti.o(.revsh_text), (4 bytes).
    Removing stm32f10x_exti.o(.rrx_text), (6 bytes).
    Removing stm32f10x_exti.o(i.EXTI_ClearFlag), (12 bytes).
    Removing stm32f10x_exti.o(i.EXTI_ClearITPendingBit), (12 bytes).
    Removing stm32f10x_exti.o(i.EXTI_DeInit), (36 bytes).
    Removing stm32f10x_exti.o(i.EXTI_GenerateSWInterrupt), (16 bytes).
    Removing stm32f10x_exti.o(i.EXTI_GetFlagStatus), (24 bytes).
    Removing stm32f10x_exti.o(i.EXTI_GetITStatus), (40 bytes).
    Removing stm32f10x_exti.o(i.EXTI_Init), (148 bytes).
    Removing stm32f10x_exti.o(i.EXTI_StructInit), (16 bytes).
    Removing stm32f10x_flash.o(.rev16_text), (4 bytes).
    Removing stm32f10x_flash.o(.revsh_text), (4 bytes).
    Removing stm32f10x_flash.o(.rrx_text), (6 bytes).
    Removing stm32f10x_flash.o(i.FLASH_ClearFlag), (12 bytes).
    Removing stm32f10x_flash.o(i.FLASH_EnableWriteProtection), (196 bytes).
    Removing stm32f10x_flash.o(i.FLASH_EraseAllBank1Pages), (72 bytes).
    Removing stm32f10x_flash.o(i.FLASH_EraseAllPages), (72 bytes).
    Removing stm32f10x_flash.o(i.FLASH_EraseOptionBytes), (168 bytes).
    Removing stm32f10x_flash.o(i.FLASH_ErasePage), (76 bytes).
    Removing stm32f10x_flash.o(i.FLASH_GetBank1Status), (52 bytes).
    Removing stm32f10x_flash.o(i.FLASH_GetFlagStatus), (48 bytes).
    Removing stm32f10x_flash.o(i.FLASH_GetPrefetchBufferStatus), (24 bytes).
    Removing stm32f10x_flash.o(i.FLASH_GetReadOutProtectionStatus), (24 bytes).
    Removing stm32f10x_flash.o(i.FLASH_GetStatus), (52 bytes).
    Removing stm32f10x_flash.o(i.FLASH_GetUserOptionByte), (12 bytes).
    Removing stm32f10x_flash.o(i.FLASH_GetWriteProtectionOptionByte), (12 bytes).
    Removing stm32f10x_flash.o(i.FLASH_HalfCycleAccessCmd), (28 bytes).
    Removing stm32f10x_flash.o(i.FLASH_ITConfig), (32 bytes).
    Removing stm32f10x_flash.o(i.FLASH_Lock), (20 bytes).
    Removing stm32f10x_flash.o(i.FLASH_LockBank1), (20 bytes).
    Removing stm32f10x_flash.o(i.FLASH_PrefetchBufferCmd), (28 bytes).
    Removing stm32f10x_flash.o(i.FLASH_ProgramHalfWord), (64 bytes).
    Removing stm32f10x_flash.o(i.FLASH_ProgramOptionByteData), (84 bytes).
    Removing stm32f10x_flash.o(i.FLASH_ProgramWord), (108 bytes).
    Removing stm32f10x_flash.o(i.FLASH_ReadOutProtection), (172 bytes).
    Removing stm32f10x_flash.o(i.FLASH_SetLatency), (24 bytes).
    Removing stm32f10x_flash.o(i.FLASH_Unlock), (24 bytes).
    Removing stm32f10x_flash.o(i.FLASH_UnlockBank1), (24 bytes).
    Removing stm32f10x_flash.o(i.FLASH_UserOptionByteConfig), (104 bytes).
    Removing stm32f10x_flash.o(i.FLASH_WaitForLastBank1Operation), (38 bytes).
    Removing stm32f10x_flash.o(i.FLASH_WaitForLastOperation), (38 bytes).
    Removing stm32f10x_pwr.o(.rev16_text), (4 bytes).
    Removing stm32f10x_pwr.o(.revsh_text), (4 bytes).
    Removing stm32f10x_pwr.o(.rrx_text), (6 bytes).
    Removing stm32f10x_pwr.o(i.PWR_BackupAccessCmd), (12 bytes).
    Removing stm32f10x_pwr.o(i.PWR_ClearFlag), (20 bytes).
    Removing stm32f10x_pwr.o(i.PWR_DeInit), (22 bytes).
    Removing stm32f10x_pwr.o(i.PWR_EnterSTANDBYMode), (52 bytes).
    Removing stm32f10x_pwr.o(i.PWR_EnterSTOPMode), (64 bytes).
    Removing stm32f10x_pwr.o(i.PWR_GetFlagStatus), (24 bytes).
    Removing stm32f10x_pwr.o(i.PWR_PVDCmd), (12 bytes).
    Removing stm32f10x_pwr.o(i.PWR_PVDLevelConfig), (24 bytes).
    Removing stm32f10x_pwr.o(i.PWR_WakeUpPinCmd), (12 bytes).
    Removing stm32f10x_tim.o(.rev16_text), (4 bytes).
    Removing stm32f10x_tim.o(.revsh_text), (4 bytes).
    Removing stm32f10x_tim.o(.rrx_text), (6 bytes).
    Removing stm32f10x_tim.o(i.TI1_Config), (128 bytes).
    Removing stm32f10x_tim.o(i.TI2_Config), (152 bytes).
    Removing stm32f10x_tim.o(i.TI3_Config), (144 bytes).
    Removing stm32f10x_tim.o(i.TI4_Config), (152 bytes).
    Removing stm32f10x_tim.o(i.TIM_BDTRConfig), (32 bytes).
    Removing stm32f10x_tim.o(i.TIM_BDTRStructInit), (18 bytes).
    Removing stm32f10x_tim.o(i.TIM_CCPreloadControl), (24 bytes).
    Removing stm32f10x_tim.o(i.TIM_CCxCmd), (30 bytes).
    Removing stm32f10x_tim.o(i.TIM_CCxNCmd), (30 bytes).
    Removing stm32f10x_tim.o(i.TIM_ClearFlag), (6 bytes).
    Removing stm32f10x_tim.o(i.TIM_ClearOC1Ref), (18 bytes).
    Removing stm32f10x_tim.o(i.TIM_ClearOC2Ref), (24 bytes).
    Removing stm32f10x_tim.o(i.TIM_ClearOC3Ref), (18 bytes).
    Removing stm32f10x_tim.o(i.TIM_ClearOC4Ref), (24 bytes).
    Removing stm32f10x_tim.o(i.TIM_CounterModeConfig), (18 bytes).
    Removing stm32f10x_tim.o(i.TIM_CtrlPWMOutputs), (30 bytes).
    Removing stm32f10x_tim.o(i.TIM_DMACmd), (18 bytes).
    Removing stm32f10x_tim.o(i.TIM_DMAConfig), (10 bytes).
    Removing stm32f10x_tim.o(i.TIM_ETRClockMode1Config), (54 bytes).
    Removing stm32f10x_tim.o(i.TIM_ETRClockMode2Config), (32 bytes).
    Removing stm32f10x_tim.o(i.TIM_ETRConfig), (28 bytes).
    Removing stm32f10x_tim.o(i.TIM_EncoderInterfaceConfig), (66 bytes).
    Removing stm32f10x_tim.o(i.TIM_ForcedOC1Config), (18 bytes).
    Removing stm32f10x_tim.o(i.TIM_ForcedOC2Config), (26 bytes).
    Removing stm32f10x_tim.o(i.TIM_ForcedOC3Config), (18 bytes).
    Removing stm32f10x_tim.o(i.TIM_ForcedOC4Config), (26 bytes).
    Removing stm32f10x_tim.o(i.TIM_GenerateEvent), (4 bytes).
    Removing stm32f10x_tim.o(i.TIM_GetCapture1), (6 bytes).
    Removing stm32f10x_tim.o(i.TIM_GetCapture2), (6 bytes).
    Removing stm32f10x_tim.o(i.TIM_GetCapture3), (6 bytes).
    Removing stm32f10x_tim.o(i.TIM_GetCapture4), (8 bytes).
    Removing stm32f10x_tim.o(i.TIM_GetCounter), (6 bytes).
    Removing stm32f10x_tim.o(i.TIM_GetFlagStatus), (18 bytes).
    Removing stm32f10x_tim.o(i.TIM_GetPrescaler), (6 bytes).
    Removing stm32f10x_tim.o(i.TIM_ICInit), (172 bytes).
    Removing stm32f10x_tim.o(i.TIM_ICStructInit), (18 bytes).
    Removing stm32f10x_tim.o(i.TIM_ITRxExternalClockConfig), (24 bytes).
    Removing stm32f10x_tim.o(i.TIM_InternalClockConfig), (12 bytes).
    Removing stm32f10x_tim.o(i.TIM_OC1FastConfig), (18 bytes).
    Removing stm32f10x_tim.o(i.TIM_OC1Init), (152 bytes).
    Removing stm32f10x_tim.o(i.TIM_OC1NPolarityConfig), (18 bytes).
    Removing stm32f10x_tim.o(i.TIM_OC1PolarityConfig), (18 bytes).
    Removing stm32f10x_tim.o(i.TIM_OC1PreloadConfig), (18 bytes).
    Removing stm32f10x_tim.o(i.TIM_OC2FastConfig), (26 bytes).
    Removing stm32f10x_tim.o(i.TIM_OC2Init), (164 bytes).
    Removing stm32f10x_tim.o(i.TIM_OC2NPolarityConfig), (26 bytes).
    Removing stm32f10x_tim.o(i.TIM_OC2PolarityConfig), (26 bytes).
    Removing stm32f10x_tim.o(i.TIM_OC2PreloadConfig), (26 bytes).
    Removing stm32f10x_tim.o(i.TIM_OC3FastConfig), (18 bytes).
    Removing stm32f10x_tim.o(i.TIM_OC3Init), (160 bytes).
    Removing stm32f10x_tim.o(i.TIM_OC3NPolarityConfig), (26 bytes).
    Removing stm32f10x_tim.o(i.TIM_OC3PolarityConfig), (26 bytes).
    Removing stm32f10x_tim.o(i.TIM_OC3PreloadConfig), (18 bytes).
    Removing stm32f10x_tim.o(i.TIM_OC4FastConfig), (26 bytes).
    Removing stm32f10x_tim.o(i.TIM_OC4Init), (124 bytes).
    Removing stm32f10x_tim.o(i.TIM_OC4PolarityConfig), (26 bytes).
    Removing stm32f10x_tim.o(i.TIM_OC4PreloadConfig), (26 bytes).
    Removing stm32f10x_tim.o(i.TIM_OCStructInit), (20 bytes).
    Removing stm32f10x_tim.o(i.TIM_PWMIConfig), (124 bytes).
    Removing stm32f10x_tim.o(i.TIM_PrescalerConfig), (6 bytes).
    Removing stm32f10x_tim.o(i.TIM_SelectCCDMA), (24 bytes).
    Removing stm32f10x_tim.o(i.TIM_SelectCOM), (24 bytes).
    Removing stm32f10x_tim.o(i.TIM_SelectHallSensor), (24 bytes).
    Removing stm32f10x_tim.o(i.TIM_SelectInputTrigger), (18 bytes).
    Removing stm32f10x_tim.o(i.TIM_SelectMasterSlaveMode), (18 bytes).
    Removing stm32f10x_tim.o(i.TIM_SelectOCxM), (82 bytes).
    Removing stm32f10x_tim.o(i.TIM_SelectOnePulseMode), (18 bytes).
    Removing stm32f10x_tim.o(i.TIM_SelectOutputTrigger), (18 bytes).
    Removing stm32f10x_tim.o(i.TIM_SelectSlaveMode), (18 bytes).
    Removing stm32f10x_tim.o(i.TIM_SetAutoreload), (4 bytes).
    Removing stm32f10x_tim.o(i.TIM_SetClockDivision), (18 bytes).
    Removing stm32f10x_tim.o(i.TIM_SetCompare1), (4 bytes).
    Removing stm32f10x_tim.o(i.TIM_SetCompare2), (4 bytes).
    Removing stm32f10x_tim.o(i.TIM_SetCompare3), (4 bytes).
    Removing stm32f10x_tim.o(i.TIM_SetCompare4), (6 bytes).
    Removing stm32f10x_tim.o(i.TIM_SetCounter), (4 bytes).
    Removing stm32f10x_tim.o(i.TIM_SetIC1Prescaler), (18 bytes).
    Removing stm32f10x_tim.o(i.TIM_SetIC2Prescaler), (26 bytes).
    Removing stm32f10x_tim.o(i.TIM_SetIC3Prescaler), (18 bytes).
    Removing stm32f10x_tim.o(i.TIM_SetIC4Prescaler), (26 bytes).
    Removing stm32f10x_tim.o(i.TIM_TIxExternalClockConfig), (62 bytes).
    Removing stm32f10x_tim.o(i.TIM_TimeBaseStructInit), (18 bytes).
    Removing stm32f10x_tim.o(i.TIM_UpdateDisableConfig), (24 bytes).
    Removing stm32f10x_tim.o(i.TIM_UpdateRequestConfig), (24 bytes).
    Removing stm32f10x_usart.o(.rev16_text), (4 bytes).
    Removing stm32f10x_usart.o(.revsh_text), (4 bytes).
    Removing stm32f10x_usart.o(.rrx_text), (6 bytes).
    Removing stm32f10x_usart.o(i.USART_ClearFlag), (18 bytes).
    Removing stm32f10x_usart.o(i.USART_ClearITPendingBit), (30 bytes).
    Removing stm32f10x_usart.o(i.USART_ClockInit), (34 bytes).
    Removing stm32f10x_usart.o(i.USART_ClockStructInit), (12 bytes).
    Removing stm32f10x_usart.o(i.USART_DMACmd), (18 bytes).
    Removing stm32f10x_usart.o(i.USART_DeInit), (156 bytes).
    Removing stm32f10x_usart.o(i.USART_HalfDuplexCmd), (24 bytes).
    Removing stm32f10x_usart.o(i.USART_IrDACmd), (24 bytes).
    Removing stm32f10x_usart.o(i.USART_IrDAConfig), (18 bytes).
    Removing stm32f10x_usart.o(i.USART_LINBreakDetectLengthConfig), (18 bytes).
    Removing stm32f10x_usart.o(i.USART_LINCmd), (24 bytes).
    Removing stm32f10x_usart.o(i.USART_OneBitMethodCmd), (24 bytes).
    Removing stm32f10x_usart.o(i.USART_OverSampling8Cmd), (22 bytes).
    Removing stm32f10x_usart.o(i.USART_ReceiverWakeUpCmd), (24 bytes).
    Removing stm32f10x_usart.o(i.USART_SendBreak), (10 bytes).
    Removing stm32f10x_usart.o(i.USART_SetAddress), (18 bytes).
    Removing stm32f10x_usart.o(i.USART_SetGuardTime), (16 bytes).
    Removing stm32f10x_usart.o(i.USART_SetPrescaler), (16 bytes).
    Removing stm32f10x_usart.o(i.USART_SmartCardCmd), (24 bytes).
    Removing stm32f10x_usart.o(i.USART_SmartCardNACKCmd), (24 bytes).
    Removing stm32f10x_usart.o(i.USART_StructInit), (24 bytes).
    Removing stm32f10x_usart.o(i.USART_WakeUpConfig), (18 bytes).
    Removing misc.o(.rev16_text), (4 bytes).
    Removing misc.o(.revsh_text), (4 bytes).
    Removing misc.o(.rrx_text), (6 bytes).
    Removing misc.o(i.NVIC_PriorityGroupConfig), (20 bytes).
    Removing misc.o(i.NVIC_SetVectorTable), (20 bytes).
    Removing misc.o(i.NVIC_SystemLPConfig), (32 bytes).
    Removing misc.o(i.SysTick_CLKSourceConfig), (40 bytes).
    Removing psdk_aes.o(.rev16_text), (4 bytes).
    Removing psdk_aes.o(.revsh_text), (4 bytes).
    Removing psdk_aes.o(.rrx_text), (6 bytes).
    Removing psdk_crc.o(.rev16_text), (4 bytes).
    Removing psdk_crc.o(.revsh_text), (4 bytes).
    Removing psdk_crc.o(.rrx_text), (6 bytes).
    Removing psdk_crc.o(i.PsdkCrc_Crc8), (88 bytes).
    Removing psdk_debug.o(.rev16_text), (4 bytes).
    Removing psdk_debug.o(.revsh_text), (4 bytes).
    Removing psdk_debug.o(.rrx_text), (6 bytes).
    Removing psdk_proto.o(.rev16_text), (4 bytes).
    Removing psdk_proto.o(.revsh_text), (4 bytes).
    Removing psdk_proto.o(.rrx_text), (6 bytes).
    Removing psdk_proto.o(i.PsdkProto_DeInit), (6 bytes).
    Removing psdk_proto_parse.o(.rev16_text), (4 bytes).
    Removing psdk_proto_parse.o(.revsh_text), (4 bytes).
    Removing psdk_proto_parse.o(.rrx_text), (6 bytes).
    Removing psdk_arch_sys.o(.rev16_text), (4 bytes).
    Removing psdk_arch_sys.o(.revsh_text), (4 bytes).
    Removing psdk_arch_sys.o(.rrx_text), (6 bytes).
    Removing psdk_app_func.o(.rev16_text), (4 bytes).
    Removing psdk_app_func.o(.revsh_text), (4 bytes).
    Removing psdk_app_func.o(.rrx_text), (6 bytes).
    Removing psdk_msg_subcribe.o(.rev16_text), (4 bytes).
    Removing psdk_msg_subcribe.o(.revsh_text), (4 bytes).
    Removing psdk_msg_subcribe.o(.rrx_text), (6 bytes).
    Removing psdk_payload_camera.o(.rev16_text), (4 bytes).
    Removing psdk_payload_camera.o(.revsh_text), (4 bytes).
    Removing psdk_payload_camera.o(.rrx_text), (6 bytes).
    Removing psdk_payload_camera.o(i.CameraCmd_FormatSDCard), (52 bytes).
    Removing psdk_payload_camera.o(i.CameraCmd_GetDigitalZoomFactor), (52 bytes).
    Removing psdk_payload_camera.o(i.CameraCmd_GetDigitalZoomSpec), (52 bytes).
    Removing psdk_payload_camera.o(i.CameraCmd_GetFocusAssistantSettings), (52 bytes).
    Removing psdk_payload_camera.o(i.CameraCmd_GetFocusMode), (52 bytes).
    Removing psdk_payload_camera.o(i.CameraCmd_GetFocusRingValue), (52 bytes).
    Removing psdk_payload_camera.o(i.CameraCmd_GetFocusRingValueUpperBound), (52 bytes).
    Removing psdk_payload_camera.o(i.CameraCmd_GetFocusZone), (52 bytes).
    Removing psdk_payload_camera.o(i.CameraCmd_GetMeteringMode), (52 bytes).
    Removing psdk_payload_camera.o(i.CameraCmd_GetMode), (52 bytes).
    Removing psdk_payload_camera.o(i.CameraCmd_GetOpticalZoomFactor), (56 bytes).
    Removing psdk_payload_camera.o(i.CameraCmd_GetOpticalZoomFocalLength), (56 bytes).
    Removing psdk_payload_camera.o(i.CameraCmd_GetOpticalZoomSpec), (52 bytes).
    Removing psdk_payload_camera.o(i.CameraCmd_GetRecordVideoState), (52 bytes).
    Removing psdk_payload_camera.o(i.CameraCmd_GetSDCardState), (56 bytes).
    Removing psdk_payload_camera.o(i.CameraCmd_GetShootPhotoMode), (52 bytes).
    Removing psdk_payload_camera.o(i.CameraCmd_GetShootPhotoState), (52 bytes).
    Removing psdk_payload_camera.o(i.CameraCmd_GetSpotMetering), (52 bytes).
    Removing psdk_payload_camera.o(i.CameraCmd_RecordVideo), (48 bytes).
    Removing psdk_payload_camera.o(i.CameraCmd_SetDigitalZoomFactor), (48 bytes).
    Removing psdk_payload_camera.o(i.CameraCmd_SetFocusAssistantSettings), (48 bytes).
    Removing psdk_payload_camera.o(i.CameraCmd_SetFocusMode), (48 bytes).
    Removing psdk_payload_camera.o(i.CameraCmd_SetFocusRingValue), (48 bytes).
    Removing psdk_payload_camera.o(i.CameraCmd_SetFocusZone), (48 bytes).
    Removing psdk_payload_camera.o(i.CameraCmd_SetMeteringMode), (48 bytes).
    Removing psdk_payload_camera.o(i.CameraCmd_SetMode), (48 bytes).
    Removing psdk_payload_camera.o(i.CameraCmd_SetOpticalZoomFocalLength), (48 bytes).
    Removing psdk_payload_camera.o(i.CameraCmd_SetShootPhotoMode), (48 bytes).
    Removing psdk_payload_camera.o(i.CameraCmd_SetSpotMetering), (48 bytes).
    Removing psdk_payload_camera.o(i.CameraCmd_ShootPhoto), (48 bytes).
    Removing psdk_payload_camera.o(i.CameraCmd_StartContinuousOpticalZoom), (52 bytes).
    Removing psdk_payload_camera.o(i.CameraCmd_StopContinuousOpticalZoom), (52 bytes).
    Removing psdk_payload_camera.o(i.CameraCmd_SupportState), (128 bytes).
    Removing psdk_payload_camera.o(i.PsdkCamera_Init), (60 bytes).
    Removing psdk_payload_camera.o(.bss), (144 bytes).
    Removing psdk_payload_camera.o(.constdata), (264 bytes).
    Removing psdk_payload_camera.o(.data), (1 bytes).
    Removing psdk_payload_gimbal.o(.rev16_text), (4 bytes).
    Removing psdk_payload_gimbal.o(.revsh_text), (4 bytes).
    Removing psdk_payload_gimbal.o(.rrx_text), (6 bytes).
    Removing psdk_upper.o(.rev16_text), (4 bytes).
    Removing psdk_upper.o(.revsh_text), (4 bytes).
    Removing psdk_upper.o(.rrx_text), (6 bytes).
    Removing psdk_upper.o(i.PsdkUpper_SetFixVersion), (16 bytes).
    Removing psdk_upper.o(i.PsdkUpper_SetProductAlias), (24 bytes).
    Removing test_app_func.o(.rev16_text), (4 bytes).
    Removing test_app_func.o(.revsh_text), (4 bytes).
    Removing test_app_func.o(.rrx_text), (6 bytes).
    Removing test_msg_push.o(.rev16_text), (4 bytes).
    Removing test_msg_push.o(.revsh_text), (4 bytes).
    Removing test_msg_push.o(.rrx_text), (6 bytes).
    Removing test_payload_gimbal_emu.o(.rev16_text), (4 bytes).
    Removing test_payload_gimbal_emu.o(.revsh_text), (4 bytes).
    Removing test_payload_gimbal_emu.o(.rrx_text), (6 bytes).
    Removing system_stm32f10x.o(.rev16_text), (4 bytes).
    Removing system_stm32f10x.o(.revsh_text), (4 bytes).
    Removing system_stm32f10x.o(.rrx_text), (6 bytes).
    Removing system_stm32f10x.o(i.SystemCoreClockUpdate), (164 bytes).
    Removing system_stm32f10x.o(.data), (20 bytes).

396 unused section(s) (total 14311 bytes) removed from the image.

==============================================================================

Image Symbol Table

    Local Symbols

    Symbol Name                              Value     Ov Type        Size  Object(Section)

    ../clib/../cmprslib/lz77c.c              0x00000000   Number         0  __dclz77c.o ABSOLUTE
    ../clib/microlib/division.c              0x00000000   Number         0  uldiv.o ABSOLUTE
    ../clib/microlib/division.c              0x00000000   Number         0  uidiv.o ABSOLUTE
    ../clib/microlib/init/entry.s            0x00000000   Number         0  entry10b.o ABSOLUTE
    ../clib/microlib/init/entry.s            0x00000000   Number         0  entry7b.o ABSOLUTE
    ../clib/microlib/init/entry.s            0x00000000   Number         0  entry7a.o ABSOLUTE
    ../clib/microlib/init/entry.s            0x00000000   Number         0  entry.o ABSOLUTE
    ../clib/microlib/init/entry.s            0x00000000   Number         0  entry5.o ABSOLUTE
    ../clib/microlib/init/entry.s            0x00000000   Number         0  entry8a.o ABSOLUTE
    ../clib/microlib/init/entry.s            0x00000000   Number         0  entry11b.o ABSOLUTE
    ../clib/microlib/init/entry.s            0x00000000   Number         0  entry11a.o ABSOLUTE
    ../clib/microlib/init/entry.s            0x00000000   Number         0  entry2.o ABSOLUTE
    ../clib/microlib/init/entry.s            0x00000000   Number         0  entry9a.o ABSOLUTE
    ../clib/microlib/init/entry.s            0x00000000   Number         0  entry9b.o ABSOLUTE
    ../clib/microlib/init/entry.s            0x00000000   Number         0  entry10a.o ABSOLUTE
    ../clib/microlib/init/entry.s            0x00000000   Number         0  entry8b.o ABSOLUTE
    ../clib/microlib/longlong.c              0x00000000   Number         0  llshl.o ABSOLUTE
    ../clib/microlib/longlong.c              0x00000000   Number         0  llushr.o ABSOLUTE
    ../clib/microlib/longlong.c              0x00000000   Number         0  llsshr.o ABSOLUTE
    ../clib/microlib/malloc/malloc.c         0x00000000   Number         0  malloc.o ABSOLUTE
    ../clib/microlib/malloc/malloc.c         0x00000000   Number         0  mallocra.o ABSOLUTE
    ../clib/microlib/malloc/malloc.c         0x00000000   Number         0  malloca.o ABSOLUTE
    ../clib/microlib/malloc/malloc.c         0x00000000   Number         0  mallocr.o ABSOLUTE
    ../clib/microlib/malloc/mvars.c          0x00000000   Number         0  mvars.o ABSOLUTE
    ../clib/microlib/printf/printf.c         0x00000000   Number         0  printfa.o ABSOLUTE
    ../clib/microlib/printf/printf.c         0x00000000   Number         0  printf8.o ABSOLUTE
    ../clib/microlib/printf/printf.c         0x00000000   Number         0  printf7.o ABSOLUTE
    ../clib/microlib/printf/printf.c         0x00000000   Number         0  printf0.o ABSOLUTE
    ../clib/microlib/printf/printf.c         0x00000000   Number         0  printfb.o ABSOLUTE
    ../clib/microlib/printf/printf.c         0x00000000   Number         0  printf1.o ABSOLUTE
    ../clib/microlib/printf/printf.c         0x00000000   Number         0  printf2.o ABSOLUTE
    ../clib/microlib/printf/printf.c         0x00000000   Number         0  printf3.o ABSOLUTE
    ../clib/microlib/printf/printf.c         0x00000000   Number         0  printf4.o ABSOLUTE
    ../clib/microlib/printf/printf.c         0x00000000   Number         0  printf5.o ABSOLUTE
    ../clib/microlib/printf/printf.c         0x00000000   Number         0  printf6.o ABSOLUTE
    ../clib/microlib/printf/stubs.s          0x00000000   Number         0  stubs.o ABSOLUTE
    ../clib/microlib/stdio/fputc.c           0x00000000   Number         0  fputc.o ABSOLUTE
    ../clib/microlib/stdio/semi.s            0x00000000   Number         0  semi.o ABSOLUTE
    ../clib/microlib/stdio/streams.c         0x00000000   Number         0  stdout.o ABSOLUTE
    ../clib/microlib/string/memcpy.c         0x00000000   Number         0  memcpya.o ABSOLUTE
    ../clib/microlib/string/memcpy.c         0x00000000   Number         0  memcpyb.o ABSOLUTE
    ../clib/microlib/string/memset.c         0x00000000   Number         0  memseta.o ABSOLUTE
    ../clib/microlib/string/strcmp.c         0x00000000   Number         0  strcmp.o ABSOLUTE
    ../clib/microlib/string/strcpy.c         0x00000000   Number         0  strcpy.o ABSOLUTE
    ../clib/microlib/string/strlen.c         0x00000000   Number         0  strlen.o ABSOLUTE
    ../clib/microlib/string/strncpy.c        0x00000000   Number         0  strncpy.o ABSOLUTE
    ../clib/microlib/stubs.s                 0x00000000   Number         0  iusefp.o ABSOLUTE
    ../clib/microlib/stubs.s                 0x00000000   Number         0  iusesemip.o ABSOLUTE
    ../fplib/microlib/d2f.c                  0x00000000   Number         0  d2f.o ABSOLUTE
    ../fplib/microlib/f2d.c                  0x00000000   Number         0  f2d.o ABSOLUTE
    ../fplib/microlib/fpadd.c                0x00000000   Number         0  dadd.o ABSOLUTE
    ../fplib/microlib/fpdiv.c                0x00000000   Number         0  ddiv.o ABSOLUTE
    ../fplib/microlib/fpepilogue.c           0x00000000   Number         0  fepilogue.o ABSOLUTE
    ../fplib/microlib/fpepilogue.c           0x00000000   Number         0  depilogue.o ABSOLUTE
    ../fplib/microlib/fpfix.c                0x00000000   Number         0  dfixi.o ABSOLUTE
    ../fplib/microlib/fpfix.c                0x00000000   Number         0  dfixul.o ABSOLUTE
    ../fplib/microlib/fpflt.c                0x00000000   Number         0  dfltui.o ABSOLUTE
    ../fplib/microlib/fpflt.c                0x00000000   Number         0  dflti.o ABSOLUTE
    ../fplib/microlib/fpmul.c                0x00000000   Number         0  dmul.o ABSOLUTE
    Application\\application.c               0x00000000   Number         0  application.o ABSOLUTE
    Application\\psdk_test\\test_app_func.c  0x00000000   Number         0  test_app_func.o ABSOLUTE
    Application\\psdk_test\\test_msg_push.c  0x00000000   Number         0  test_msg_push.o ABSOLUTE
    Application\\psdk_test\\test_payload_gimbal_emu.c 0x00000000   Number         0  test_payload_gimbal_emu.o ABSOLUTE
    Application\application.c                0x00000000   Number         0  application.o ABSOLUTE
    Application\psdk_test\test_app_func.c    0x00000000   Number         0  test_app_func.o ABSOLUTE
    Application\psdk_test\test_msg_push.c    0x00000000   Number         0  test_msg_push.o ABSOLUTE
    Application\psdk_test\test_payload_gimbal_emu.c 0x00000000   Number         0  test_payload_gimbal_emu.o ABSOLUTE
    BSP\\flash.c                             0x00000000   Number         0  flash.o ABSOLUTE
    BSP\\led_button_switch.c                 0x00000000   Number         0  led_button_switch.o ABSOLUTE
    BSP\\log_printf.c                        0x00000000   Number         0  log_printf.o ABSOLUTE
    BSP\\sys.c                               0x00000000   Number         0  sys.o ABSOLUTE
    BSP\\uart.c                              0x00000000   Number         0  uart.o ABSOLUTE
    BSP\dji_ringbuffer.c                     0x00000000   Number         0  dji_ringbuffer.o ABSOLUTE
    BSP\flash.c                              0x00000000   Number         0  flash.o ABSOLUTE
    BSP\led_button_switch.c                  0x00000000   Number         0  led_button_switch.o ABSOLUTE
    BSP\log_printf.c                         0x00000000   Number         0  log_printf.o ABSOLUTE
    BSP\sys.c                                0x00000000   Number         0  sys.o ABSOLUTE
    BSP\uart.c                               0x00000000   Number         0  uart.o ABSOLUTE
    RTE\Device\STM32F103C8\startup_stm32f10x_md.s 0x00000000   Number         0  startup_stm32f10x_md.o ABSOLUTE
    RTE\Device\STM32F103C8\system_stm32f10x.c 0x00000000   Number         0  system_stm32f10x.o ABSOLUTE
    RTE\\Device\\STM32F103C8\\system_stm32f10x.c 0x00000000   Number         0  system_stm32f10x.o ABSOLUTE
    STM32F10x_StdPeriph_Driver\\src\\misc.c  0x00000000   Number         0  misc.o ABSOLUTE
    STM32F10x_StdPeriph_Driver\\src\\stm32f10x_adc.c 0x00000000   Number         0  stm32f10x_adc.o ABSOLUTE
    STM32F10x_StdPeriph_Driver\\src\\stm32f10x_dma.c 0x00000000   Number         0  stm32f10x_dma.o ABSOLUTE
    STM32F10x_StdPeriph_Driver\\src\\stm32f10x_exti.c 0x00000000   Number         0  stm32f10x_exti.o ABSOLUTE
    STM32F10x_StdPeriph_Driver\\src\\stm32f10x_flash.c 0x00000000   Number         0  stm32f10x_flash.o ABSOLUTE
    STM32F10x_StdPeriph_Driver\\src\\stm32f10x_gpio.c 0x00000000   Number         0  stm32f10x_gpio.o ABSOLUTE
    STM32F10x_StdPeriph_Driver\\src\\stm32f10x_pwr.c 0x00000000   Number         0  stm32f10x_pwr.o ABSOLUTE
    STM32F10x_StdPeriph_Driver\\src\\stm32f10x_rcc.c 0x00000000   Number         0  stm32f10x_rcc.o ABSOLUTE
    STM32F10x_StdPeriph_Driver\\src\\stm32f10x_tim.c 0x00000000   Number         0  stm32f10x_tim.o ABSOLUTE
    STM32F10x_StdPeriph_Driver\\src\\stm32f10x_usart.c 0x00000000   Number         0  stm32f10x_usart.o ABSOLUTE
    STM32F10x_StdPeriph_Driver\src\misc.c    0x00000000   Number         0  misc.o ABSOLUTE
    STM32F10x_StdPeriph_Driver\src\stm32f10x_adc.c 0x00000000   Number         0  stm32f10x_adc.o ABSOLUTE
    STM32F10x_StdPeriph_Driver\src\stm32f10x_dma.c 0x00000000   Number         0  stm32f10x_dma.o ABSOLUTE
    STM32F10x_StdPeriph_Driver\src\stm32f10x_exti.c 0x00000000   Number         0  stm32f10x_exti.o ABSOLUTE
    STM32F10x_StdPeriph_Driver\src\stm32f10x_flash.c 0x00000000   Number         0  stm32f10x_flash.o ABSOLUTE
    STM32F10x_StdPeriph_Driver\src\stm32f10x_gpio.c 0x00000000   Number         0  stm32f10x_gpio.o ABSOLUTE
    STM32F10x_StdPeriph_Driver\src\stm32f10x_pwr.c 0x00000000   Number         0  stm32f10x_pwr.o ABSOLUTE
    STM32F10x_StdPeriph_Driver\src\stm32f10x_rcc.c 0x00000000   Number         0  stm32f10x_rcc.o ABSOLUTE
    STM32F10x_StdPeriph_Driver\src\stm32f10x_tim.c 0x00000000   Number         0  stm32f10x_tim.o ABSOLUTE
    STM32F10x_StdPeriph_Driver\src\stm32f10x_usart.c 0x00000000   Number         0  stm32f10x_usart.o ABSOLUTE
    cdrcmple.s                               0x00000000   Number         0  cdrcmple.o ABSOLUTE
    dc.s                                     0x00000000   Number         0  dc.o ABSOLUTE
    handlers.s                               0x00000000   Number         0  handlers.o ABSOLUTE
    init.s                                   0x00000000   Number         0  init.o ABSOLUTE
    main.c                                   0x00000000   Number         0  main.o ABSOLUTE
    main.c                                   0x00000000   Number         0  main.o ABSOLUTE
    psdk\\psdk_arch\\arch_baremetal\\psdk_arch_sys.c 0x00000000   Number         0  psdk_arch_sys.o ABSOLUTE
    psdk\\psdk_core\\src\\psdk_aes.c         0x00000000   Number         0  psdk_aes.o ABSOLUTE
    psdk\\psdk_core\\src\\psdk_crc.c         0x00000000   Number         0  psdk_crc.o ABSOLUTE
    psdk\\psdk_core\\src\\psdk_debug.c       0x00000000   Number         0  psdk_debug.o ABSOLUTE
    psdk\\psdk_core\\src\\psdk_proto.c       0x00000000   Number         0  psdk_proto.o ABSOLUTE
    psdk\\psdk_core\\src\\psdk_proto_parse.c 0x00000000   Number         0  psdk_proto_parse.o ABSOLUTE
    psdk\\psdk_upper\\src\\psdk_app_func.c   0x00000000   Number         0  psdk_app_func.o ABSOLUTE
    psdk\\psdk_upper\\src\\psdk_msg_subcribe.c 0x00000000   Number         0  psdk_msg_subcribe.o ABSOLUTE
    psdk\\psdk_upper\\src\\psdk_payload_camera.c 0x00000000   Number         0  psdk_payload_camera.o ABSOLUTE
    psdk\\psdk_upper\\src\\psdk_payload_gimbal.c 0x00000000   Number         0  psdk_payload_gimbal.o ABSOLUTE
    psdk\\psdk_upper\\src\\psdk_upper.c      0x00000000   Number         0  psdk_upper.o ABSOLUTE
    psdk\psdk_arch\arch_baremetal\psdk_arch_sys.c 0x00000000   Number         0  psdk_arch_sys.o ABSOLUTE
    psdk\psdk_core\src\psdk_aes.c            0x00000000   Number         0  psdk_aes.o ABSOLUTE
    psdk\psdk_core\src\psdk_crc.c            0x00000000   Number         0  psdk_crc.o ABSOLUTE
    psdk\psdk_core\src\psdk_debug.c          0x00000000   Number         0  psdk_debug.o ABSOLUTE
    psdk\psdk_core\src\psdk_md5.c            0x00000000   Number         0  psdk_md5.o ABSOLUTE
    psdk\psdk_core\src\psdk_proto.c          0x00000000   Number         0  psdk_proto.o ABSOLUTE
    psdk\psdk_core\src\psdk_proto_parse.c    0x00000000   Number         0  psdk_proto_parse.o ABSOLUTE
    psdk\psdk_upper\src\psdk_app_func.c      0x00000000   Number         0  psdk_app_func.o ABSOLUTE
    psdk\psdk_upper\src\psdk_msg_subcribe.c  0x00000000   Number         0  psdk_msg_subcribe.o ABSOLUTE
    psdk\psdk_upper\src\psdk_payload_camera.c 0x00000000   Number         0  psdk_payload_camera.o ABSOLUTE
    psdk\psdk_upper\src\psdk_payload_gimbal.c 0x00000000   Number         0  psdk_payload_gimbal.o ABSOLUTE
    psdk\psdk_upper\src\psdk_upper.c         0x00000000   Number         0  psdk_upper.o ABSOLUTE
    user\ADC.c                               0x00000000   Number         0  adc.o ABSOLUTE
    user\GUA_Timer1_PWM.c                    0x00000000   Number         0  gua_timer1_pwm.o ABSOLUTE
    user\MotorDriver.c                       0x00000000   Number         0  motordriver.o ABSOLUTE
    user\\ADC.c                              0x00000000   Number         0  adc.o ABSOLUTE
    user\\GUA_Timer1_PWM.c                   0x00000000   Number         0  gua_timer1_pwm.o ABSOLUTE
    user\\MotorDriver.c                      0x00000000   Number         0  motordriver.o ABSOLUTE
    user\\communicate.c                      0x00000000   Number         0  communicate.o ABSOLUTE
    user\communicate.c                       0x00000000   Number         0  communicate.o ABSOLUTE
    RESET                                    0x08000000   Section      236  startup_stm32f10x_md.o(RESET)
    .ARM.Collect$$$$00000000                 0x080000ec   Section        0  entry.o(.ARM.Collect$$$$00000000)
    .ARM.Collect$$$$00000001                 0x080000ec   Section        4  entry2.o(.ARM.Collect$$$$00000001)
    .ARM.Collect$$$$00000004                 0x080000f0   Section        4  entry5.o(.ARM.Collect$$$$00000004)
    .ARM.Collect$$$$00000008                 0x080000f4   Section        0  entry7b.o(.ARM.Collect$$$$00000008)
    .ARM.Collect$$$$0000000A                 0x080000f4   Section        0  entry8b.o(.ARM.Collect$$$$0000000A)
    .ARM.Collect$$$$0000000B                 0x080000f4   Section        8  entry9a.o(.ARM.Collect$$$$0000000B)
    .ARM.Collect$$$$0000000D                 0x080000fc   Section        0  entry10a.o(.ARM.Collect$$$$0000000D)
    .ARM.Collect$$$$0000000F                 0x080000fc   Section        0  entry11a.o(.ARM.Collect$$$$0000000F)
    .ARM.Collect$$$$00002712                 0x080000fc   Section        4  entry2.o(.ARM.Collect$$$$00002712)
    __lit__00000000                          0x080000fc   Data           4  entry2.o(.ARM.Collect$$$$00002712)
    .text                                    0x08000100   Section       36  startup_stm32f10x_md.o(.text)
    .text                                    0x08000124   Section        0  memcpya.o(.text)
    .text                                    0x08000148   Section        0  memseta.o(.text)
    .text                                    0x0800016c   Section        0  strncpy.o(.text)
    .text                                    0x08000184   Section        0  strlen.o(.text)
    .text                                    0x08000192   Section        0  strcmp.o(.text)
    .text                                    0x080001ae   Section        0  strcpy.o(.text)
    .text                                    0x080001c0   Section        0  dadd.o(.text)
    .text                                    0x0800030e   Section        0  dmul.o(.text)
    .text                                    0x080003f2   Section        0  ddiv.o(.text)
    .text                                    0x080004d0   Section        0  dflti.o(.text)
    .text                                    0x080004f2   Section        0  dfltui.o(.text)
    .text                                    0x0800050c   Section        0  dfixi.o(.text)
    .text                                    0x0800054a   Section        0  f2d.o(.text)
    .text                                    0x08000570   Section        0  d2f.o(.text)
    .text                                    0x080005a8   Section        0  uidiv.o(.text)
    .text                                    0x080005d4   Section        0  uldiv.o(.text)
    .text                                    0x08000636   Section        0  llshl.o(.text)
    .text                                    0x08000654   Section        0  llushr.o(.text)
    .text                                    0x08000674   Section        0  llsshr.o(.text)
    .text                                    0x08000698   Section        0  fepilogue.o(.text)
    .text                                    0x08000698   Section        0  iusefp.o(.text)
    .text                                    0x08000706   Section        0  depilogue.o(.text)
    .text                                    0x080007c0   Section        0  dfixul.o(.text)
    .text                                    0x080007f0   Section       48  cdrcmple.o(.text)
    .text                                    0x08000820   Section       36  init.o(.text)
    .text                                    0x08000844   Section        0  __dclz77c.o(.text)
    i.ADC1_GPIO_Config                       0x080008a4   Section        0  adc.o(i.ADC1_GPIO_Config)
    i.ADC_Cmd                                0x080008c8   Section        0  stm32f10x_adc.o(i.ADC_Cmd)
    i.ADC_GetCalibrationStatus               0x080008de   Section        0  stm32f10x_adc.o(i.ADC_GetCalibrationStatus)
    i.ADC_GetConversionValue                 0x080008f2   Section        0  stm32f10x_adc.o(i.ADC_GetConversionValue)
    i.ADC_GetFlagStatus                      0x080008fa   Section        0  stm32f10x_adc.o(i.ADC_GetFlagStatus)
    i.ADC_GetResetCalibrationStatus          0x0800090c   Section        0  stm32f10x_adc.o(i.ADC_GetResetCalibrationStatus)
    i.ADC_Init                               0x08000920   Section        0  stm32f10x_adc.o(i.ADC_Init)
    i.ADC_RegularChannelConfig               0x08000970   Section        0  stm32f10x_adc.o(i.ADC_RegularChannelConfig)
    i.ADC_ResetCalibration                   0x08000a28   Section        0  stm32f10x_adc.o(i.ADC_ResetCalibration)
    i.ADC_SoftwareStartConvCmd               0x08000a32   Section        0  stm32f10x_adc.o(i.ADC_SoftwareStartConvCmd)
    i.ADC_StartCalibration                   0x08000a48   Section        0  stm32f10x_adc.o(i.ADC_StartCalibration)
    i.ADCinit                                0x08000a52   Section        0  adc.o(i.ADCinit)
    i.Adc1_Init                              0x08000a60   Section        0  adc.o(i.Adc1_Init)
    i.AppFuncCmd_GetWidgetGroupCount         0x08000ad8   Section        0  psdk_app_func.o(i.AppFuncCmd_GetWidgetGroupCount)
    AppFuncCmd_GetWidgetGroupCount           0x08000ad9   Thumb Code    80  psdk_app_func.o(i.AppFuncCmd_GetWidgetGroupCount)
    i.AppFuncCmd_GetWidgetGroupValue         0x08000b2c   Section        0  psdk_app_func.o(i.AppFuncCmd_GetWidgetGroupValue)
    AppFuncCmd_GetWidgetGroupValue           0x08000b2d   Thumb Code   600  psdk_app_func.o(i.AppFuncCmd_GetWidgetGroupValue)
    i.AppFuncCmd_GetWidgetListLength         0x08000d98   Section        0  psdk_app_func.o(i.AppFuncCmd_GetWidgetListLength)
    AppFuncCmd_GetWidgetListLength           0x08000d99   Thumb Code    52  psdk_app_func.o(i.AppFuncCmd_GetWidgetListLength)
    i.AppFuncCmd_GetWidgetListValue          0x08000dd4   Section        0  psdk_app_func.o(i.AppFuncCmd_GetWidgetListValue)
    AppFuncCmd_GetWidgetListValue            0x08000dd5   Thumb Code   306  psdk_app_func.o(i.AppFuncCmd_GetWidgetListValue)
    i.AppFuncCmd_SetWidgetValue              0x08000f10   Section        0  psdk_app_func.o(i.AppFuncCmd_SetWidgetValue)
    AppFuncCmd_SetWidgetValue                0x08000f11   Thumb Code    74  psdk_app_func.o(i.AppFuncCmd_SetWidgetValue)
    i.AppFuncCmd_TT_AppToLoad                0x08000f68   Section        0  psdk_app_func.o(i.AppFuncCmd_TT_AppToLoad)
    AppFuncCmd_TT_AppToLoad                  0x08000f69   Thumb Code    28  psdk_app_func.o(i.AppFuncCmd_TT_AppToLoad)
    i.CommunicateUSART_Config                0x08000f88   Section        0  communicate.o(i.CommunicateUSART_Config)
    i.CommunicateUsart_SendString            0x08001020   Section        0  communicate.o(i.CommunicateUsart_SendString)
    i.FillInUserInfo                         0x08001054   Section        0  application.o(i.FillInUserInfo)
    FillInUserInfo                           0x08001055   Thumb Code   170  application.o(i.FillInUserInfo)
    i.GPIO_Init                              0x08001198   Section        0  stm32f10x_gpio.o(i.GPIO_Init)
    i.GPIO_PinRemapConfig                    0x080012b0   Section        0  stm32f10x_gpio.o(i.GPIO_PinRemapConfig)
    i.GPIO_ReadOutputDataBit                 0x08001340   Section        0  stm32f10x_gpio.o(i.GPIO_ReadOutputDataBit)
    i.GPIO_WriteBit                          0x08001352   Section        0  stm32f10x_gpio.o(i.GPIO_WriteBit)
    i.Get_Adc                                0x0800135c   Section        0  adc.o(i.Get_Adc)
    i.GimbalCmd_ControlSpeed                 0x08001380   Section        0  psdk_payload_gimbal.o(i.GimbalCmd_ControlSpeed)
    GimbalCmd_ControlSpeed                   0x08001381   Thumb Code    44  psdk_payload_gimbal.o(i.GimbalCmd_ControlSpeed)
    i.GimbalCmd_GetGimbalState               0x080013b0   Section        0  psdk_payload_gimbal.o(i.GimbalCmd_GetGimbalState)
    GimbalCmd_GetGimbalState                 0x080013b1   Thumb Code    46  psdk_payload_gimbal.o(i.GimbalCmd_GetGimbalState)
    i.GimbalCmd_ReturnHead                   0x080013e4   Section        0  psdk_payload_gimbal.o(i.GimbalCmd_ReturnHead)
    GimbalCmd_ReturnHead                     0x080013e5   Thumb Code    44  psdk_payload_gimbal.o(i.GimbalCmd_ReturnHead)
    i.GimbalCmd_SetGimbalMode                0x08001414   Section        0  psdk_payload_gimbal.o(i.GimbalCmd_SetGimbalMode)
    GimbalCmd_SetGimbalMode                  0x08001415   Thumb Code    44  psdk_payload_gimbal.o(i.GimbalCmd_SetGimbalMode)
    i.GimbalCmd_StartCalibration             0x08001444   Section        0  psdk_payload_gimbal.o(i.GimbalCmd_StartCalibration)
    GimbalCmd_StartCalibration               0x08001445   Thumb Code    44  psdk_payload_gimbal.o(i.GimbalCmd_StartCalibration)
    i.GimbalCmd_SupportState                 0x08001474   Section        0  psdk_payload_gimbal.o(i.GimbalCmd_SupportState)
    GimbalCmd_SupportState                   0x08001475   Thumb Code    46  psdk_payload_gimbal.o(i.GimbalCmd_SupportState)
    i.GimbalEmu_ControlSpeed                 0x080014a8   Section        0  test_payload_gimbal_emu.o(i.GimbalEmu_ControlSpeed)
    i.GimbalEmu_GetGimbalParam               0x0800161c   Section        0  test_payload_gimbal_emu.o(i.GimbalEmu_GetGimbalParam)
    i.GimbalEmu_ReturnHead                   0x08001880   Section        0  test_payload_gimbal_emu.o(i.GimbalEmu_ReturnHead)
    i.GimbalEmu_SetGimbalMode                0x080018cc   Section        0  test_payload_gimbal_emu.o(i.GimbalEmu_SetGimbalMode)
    i.GimbalEmu_StartCalibration             0x08001910   Section        0  test_payload_gimbal_emu.o(i.GimbalEmu_StartCalibration)
    i.LED_Init                               0x08001950   Section        0  led_button_switch.o(i.LED_Init)
    i.LOG_Init                               0x0800197c   Section        0  log_printf.o(i.LOG_Init)
    i.MotorDriverGPIO_Init                   0x08001994   Section        0  motordriver.o(i.MotorDriverGPIO_Init)
    i.MsgPushCmd_GpsRawData                  0x080019c0   Section        0  psdk_msg_subcribe.o(i.MsgPushCmd_GpsRawData)
    MsgPushCmd_GpsRawData                    0x080019c1   Thumb Code    26  psdk_msg_subcribe.o(i.MsgPushCmd_GpsRawData)
    i.MsgPushCmd_PushAppDateTime             0x080019e0   Section        0  psdk_msg_subcribe.o(i.MsgPushCmd_PushAppDateTime)
    MsgPushCmd_PushAppDateTime               0x080019e1   Thumb Code    26  psdk_msg_subcribe.o(i.MsgPushCmd_PushAppDateTime)
    i.MsgPushCmd_PushAttitude                0x08001a00   Section        0  psdk_msg_subcribe.o(i.MsgPushCmd_PushAttitude)
    MsgPushCmd_PushAttitude                  0x08001a01   Thumb Code    26  psdk_msg_subcribe.o(i.MsgPushCmd_PushAttitude)
    i.MsgPushCmd_PushBandWidth               0x08001a20   Section        0  psdk_msg_subcribe.o(i.MsgPushCmd_PushBandWidth)
    MsgPushCmd_PushBandWidth                 0x08001a21   Thumb Code    26  psdk_msg_subcribe.o(i.MsgPushCmd_PushBandWidth)
    i.MsgPushCmd_PushBaroHeight              0x08001a40   Section        0  psdk_msg_subcribe.o(i.MsgPushCmd_PushBaroHeight)
    MsgPushCmd_PushBaroHeight                0x08001a41   Thumb Code    26  psdk_msg_subcribe.o(i.MsgPushCmd_PushBaroHeight)
    i.MsgPushCmd_PushBatteryInfo             0x08001a60   Section        0  psdk_msg_subcribe.o(i.MsgPushCmd_PushBatteryInfo)
    MsgPushCmd_PushBatteryInfo               0x08001a61   Thumb Code    40  psdk_msg_subcribe.o(i.MsgPushCmd_PushBatteryInfo)
    i.MsgPushCmd_PushGpsInfo                 0x08001a8c   Section        0  psdk_msg_subcribe.o(i.MsgPushCmd_PushGpsInfo)
    MsgPushCmd_PushGpsInfo                   0x08001a8d   Thumb Code    26  psdk_msg_subcribe.o(i.MsgPushCmd_PushGpsInfo)
    i.MsgPushCmd_PushUavState                0x08001aac   Section        0  psdk_msg_subcribe.o(i.MsgPushCmd_PushUavState)
    MsgPushCmd_PushUavState                  0x08001aad   Thumb Code    26  psdk_msg_subcribe.o(i.MsgPushCmd_PushUavState)
    i.MsgPushCmd_RtkRawData                  0x08001acc   Section        0  psdk_msg_subcribe.o(i.MsgPushCmd_RtkRawData)
    MsgPushCmd_RtkRawData                    0x08001acd   Thumb Code    26  psdk_msg_subcribe.o(i.MsgPushCmd_RtkRawData)
    i.NVIC_Init                              0x08001aec   Section        0  misc.o(i.NVIC_Init)
    i.PsdkAes_AddRoundKey                    0x08001b5c   Section        0  psdk_aes.o(i.PsdkAes_AddRoundKey)
    PsdkAes_AddRoundKey                      0x08001b5d   Thumb Code   284  psdk_aes.o(i.PsdkAes_AddRoundKey)
    i.PsdkAes_Decrypt                        0x08001c78   Section        0  psdk_aes.o(i.PsdkAes_Decrypt)
    i.PsdkAes_Encrypt                        0x08001d08   Section        0  psdk_aes.o(i.PsdkAes_Encrypt)
    i.PsdkAes_InvMixColumns                  0x08001d98   Section        0  psdk_aes.o(i.PsdkAes_InvMixColumns)
    PsdkAes_InvMixColumns                    0x08001d99   Thumb Code  1356  psdk_aes.o(i.PsdkAes_InvMixColumns)
    i.PsdkAes_InvShiftRows                   0x080022e4   Section        0  psdk_aes.o(i.PsdkAes_InvShiftRows)
    PsdkAes_InvShiftRows                     0x080022e5   Thumb Code    50  psdk_aes.o(i.PsdkAes_InvShiftRows)
    i.PsdkAes_InvSubBytes                    0x08002318   Section        0  psdk_aes.o(i.PsdkAes_InvSubBytes)
    PsdkAes_InvSubBytes                      0x08002319   Thumb Code   322  psdk_aes.o(i.PsdkAes_InvSubBytes)
    i.PsdkAes_KeySetup                       0x08002460   Section        0  psdk_aes.o(i.PsdkAes_KeySetup)
    PsdkAes_KeySetup                         0x08002461   Thumb Code   230  psdk_aes.o(i.PsdkAes_KeySetup)
    i.PsdkAes_MixColumns                     0x0800254c   Section        0  psdk_aes.o(i.PsdkAes_MixColumns)
    PsdkAes_MixColumns                       0x0800254d   Thumb Code   982  psdk_aes.o(i.PsdkAes_MixColumns)
    i.PsdkAes_SetupDecrypt                   0x08002928   Section        0  psdk_aes.o(i.PsdkAes_SetupDecrypt)
    i.PsdkAes_SetupEncrypt                   0x08002ba2   Section        0  psdk_aes.o(i.PsdkAes_SetupEncrypt)
    PsdkAes_SetupEncrypt                     0x08002ba3   Thumb Code   658  psdk_aes.o(i.PsdkAes_SetupEncrypt)
    i.PsdkAes_ShiftRows                      0x08002e34   Section        0  psdk_aes.o(i.PsdkAes_ShiftRows)
    PsdkAes_ShiftRows                        0x08002e35   Thumb Code    50  psdk_aes.o(i.PsdkAes_ShiftRows)
    i.PsdkAes_SubBytes                       0x08002e68   Section        0  psdk_aes.o(i.PsdkAes_SubBytes)
    PsdkAes_SubBytes                         0x08002e69   Thumb Code   322  psdk_aes.o(i.PsdkAes_SubBytes)
    i.PsdkAes_SubWord                        0x08002fb0   Section        0  psdk_aes.o(i.PsdkAes_SubWord)
    PsdkAes_SubWord                          0x08002fb1   Thumb Code    82  psdk_aes.o(i.PsdkAes_SubWord)
    i.PsdkAppFunc_Init                       0x08003008   Section        0  psdk_app_func.o(i.PsdkAppFunc_Init)
    i.PsdkAppFunc_PushMsgToFloatingWindow    0x08003060   Section        0  psdk_app_func.o(i.PsdkAppFunc_PushMsgToFloatingWindow)
    i.PsdkAppFunc_RegGetWidgetValueCallback  0x080030c0   Section        0  psdk_app_func.o(i.PsdkAppFunc_RegGetWidgetValueCallback)
    i.PsdkAppFunc_RegSetWidgetValueCallback  0x080030d0   Section        0  psdk_app_func.o(i.PsdkAppFunc_RegSetWidgetValueCallback)
    i.PsdkAppFunc_SetReceiveFromAppCallback  0x080030e0   Section        0  psdk_app_func.o(i.PsdkAppFunc_SetReceiveFromAppCallback)
    i.PsdkAppFunc_SetWidgetList              0x080030f0   Section        0  psdk_app_func.o(i.PsdkAppFunc_SetWidgetList)
    i.PsdkAppFunc_TransferToApp              0x08003108   Section        0  psdk_app_func.o(i.PsdkAppFunc_TransferToApp)
    i.PsdkBigLEDTest                         0x080031b4   Section        0  application.o(i.PsdkBigLEDTest)
    i.PsdkCrc_Crc16                          0x0800325c   Section        0  psdk_crc.o(i.PsdkCrc_Crc16)
    i.PsdkCrc_Crc32                          0x080032cc   Section        0  psdk_crc.o(i.PsdkCrc_Crc32)
    i.PsdkDebug_AssertFailed                 0x0800333c   Section        0  psdk_debug.o(i.PsdkDebug_AssertFailed)
    i.PsdkGimbal_Init                        0x08003388   Section        0  psdk_payload_gimbal.o(i.PsdkGimbal_Init)
    i.PsdkMsgSub_Init                        0x080033c4   Section        0  psdk_msg_subcribe.o(i.PsdkMsgSub_Init)
    i.PsdkMsgSub_RegMsgCallbackList          0x080033f4   Section        0  psdk_msg_subcribe.o(i.PsdkMsgSub_RegMsgCallbackList)
    i.PsdkPayloadStateCmd_GetPayloadProductAlias 0x0800340c   Section        0  psdk_upper.o(i.PsdkPayloadStateCmd_GetPayloadProductAlias)
    PsdkPayloadStateCmd_GetPayloadProductAlias 0x0800340d   Thumb Code    46  psdk_upper.o(i.PsdkPayloadStateCmd_GetPayloadProductAlias)
    i.PsdkPayloadStateCmd_GetPayloadProductInfo 0x08003440   Section        0  psdk_upper.o(i.PsdkPayloadStateCmd_GetPayloadProductInfo)
    PsdkPayloadStateCmd_GetPayloadProductInfo 0x08003441   Thumb Code    74  psdk_upper.o(i.PsdkPayloadStateCmd_GetPayloadProductInfo)
    i.PsdkPayloadStateCmd_GetSkyportVersionInfo 0x08003490   Section        0  psdk_upper.o(i.PsdkPayloadStateCmd_GetSkyportVersionInfo)
    PsdkPayloadStateCmd_GetSkyportVersionInfo 0x08003491   Thumb Code    66  psdk_upper.o(i.PsdkPayloadStateCmd_GetSkyportVersionInfo)
    i.PsdkPayloadStateCmd_GetVersion         0x080034d8   Section        0  psdk_upper.o(i.PsdkPayloadStateCmd_GetVersion)
    PsdkPayloadStateCmd_GetVersion           0x080034d9   Thumb Code    56  psdk_upper.o(i.PsdkPayloadStateCmd_GetVersion)
    i.PsdkPayloadStateCmd_IdentityVerify     0x08003510   Section        0  psdk_upper.o(i.PsdkPayloadStateCmd_IdentityVerify)
    PsdkPayloadStateCmd_IdentityVerify       0x08003511   Thumb Code   124  psdk_upper.o(i.PsdkPayloadStateCmd_IdentityVerify)
    i.PsdkPayloadStateCmd_LinkHandShake      0x08003590   Section        0  psdk_upper.o(i.PsdkPayloadStateCmd_LinkHandShake)
    PsdkPayloadStateCmd_LinkHandShake        0x08003591   Thumb Code    50  psdk_upper.o(i.PsdkPayloadStateCmd_LinkHandShake)
    i.PsdkProcessRec                         0x080035c4   Section        0  application.o(i.PsdkProcessRec)
    i.PsdkProtParse_AddByte                  0x080035ec   Section        0  psdk_proto_parse.o(i.PsdkProtParse_AddByte)
    i.PsdkProtParse_ErrorProcess             0x080036cc   Section        0  psdk_proto_parse.o(i.PsdkProtParse_ErrorProcess)
    PsdkProtParse_ErrorProcess               0x080036cd   Thumb Code     8  psdk_proto_parse.o(i.PsdkProtParse_ErrorProcess)
    i.PsdkProtParse_Init                     0x080036d4   Section        0  psdk_proto_parse.o(i.PsdkProtParse_Init)
    i.PsdkProt_GetCurrentSendSeq             0x080036dc   Section        0  psdk_proto.o(i.PsdkProt_GetCurrentSendSeq)
    i.PsdkProtoUpper_CalTransferKey          0x080036ee   Section        0  psdk_upper.o(i.PsdkProtoUpper_CalTransferKey)
    PsdkProtoUpper_CalTransferKey            0x080036ef   Thumb Code   234  psdk_upper.o(i.PsdkProtoUpper_CalTransferKey)
    i.PsdkProto_DealCmd                      0x080037d8   Section        0  psdk_proto.o(i.PsdkProto_DealCmd)
    i.PsdkProto_DealFrame                    0x080038fc   Section        0  psdk_proto.o(i.PsdkProto_DealFrame)
    PsdkProto_DealFrame                      0x080038fd   Thumb Code    58  psdk_proto.o(i.PsdkProto_DealFrame)
    i.PsdkProto_FrameToInfoData              0x08003936   Section        0  psdk_proto.o(i.PsdkProto_FrameToInfoData)
    PsdkProto_FrameToInfoData                0x08003937   Thumb Code   124  psdk_proto.o(i.PsdkProto_FrameToInfoData)
    i.PsdkProto_InfoDataToFrame              0x080039b2   Section        0  psdk_proto.o(i.PsdkProto_InfoDataToFrame)
    PsdkProto_InfoDataToFrame                0x080039b3   Thumb Code   312  psdk_proto.o(i.PsdkProto_InfoDataToFrame)
    i.PsdkProto_Init                         0x08003aea   Section        0  psdk_proto.o(i.PsdkProto_Init)
    i.PsdkProto_ProcessReceiveData           0x08003b38   Section        0  psdk_proto.o(i.PsdkProto_ProcessReceiveData)
    i.PsdkProto_RegCmdSetHandler             0x08003c70   Section        0  psdk_proto.o(i.PsdkProto_RegCmdSetHandler)
    i.PsdkProto_RegSendDataFunc              0x08003ce2   Section        0  psdk_proto.o(i.PsdkProto_RegSendDataFunc)
    i.PsdkProto_Send                         0x08003cf2   Section        0  psdk_proto.o(i.PsdkProto_Send)
    i.PsdkProto_SendAckData                  0x08003d32   Section        0  psdk_proto.o(i.PsdkProto_SendAckData)
    i.PsdkUpper_Init                         0x08003d70   Section        0  psdk_upper.o(i.PsdkUpper_Init)
    i.PsdkUpper_ProcessReceiveData           0x08003de0   Section        0  psdk_upper.o(i.PsdkUpper_ProcessReceiveData)
    i.PsdkUpper_RegSendFunction              0x08003df4   Section        0  psdk_upper.o(i.PsdkUpper_RegSendFunction)
    i.Psdk_Read                              0x08003e04   Section        0  application.o(i.Psdk_Read)
    i.Psdk_Write                             0x08003e1a   Section        0  application.o(i.Psdk_Write)
    i.RCC_ADCCLKConfig                       0x08003e30   Section        0  stm32f10x_rcc.o(i.RCC_ADCCLKConfig)
    i.RCC_APB1PeriphClockCmd                 0x08003e48   Section        0  stm32f10x_rcc.o(i.RCC_APB1PeriphClockCmd)
    i.RCC_APB1PeriphResetCmd                 0x08003e68   Section        0  stm32f10x_rcc.o(i.RCC_APB1PeriphResetCmd)
    i.RCC_APB2PeriphClockCmd                 0x08003e88   Section        0  stm32f10x_rcc.o(i.RCC_APB2PeriphClockCmd)
    i.RCC_APB2PeriphResetCmd                 0x08003ea8   Section        0  stm32f10x_rcc.o(i.RCC_APB2PeriphResetCmd)
    i.RCC_Configuration                      0x08003ec8   Section        0  main.o(i.RCC_Configuration)
    i.RCC_DeInit                             0x08003f24   Section        0  stm32f10x_rcc.o(i.RCC_DeInit)
    i.RCC_GetClocksFreq                      0x08003f70   Section        0  stm32f10x_rcc.o(i.RCC_GetClocksFreq)
    i.RCC_GetFlagStatus                      0x08004044   Section        0  stm32f10x_rcc.o(i.RCC_GetFlagStatus)
    i.RCC_GetSYSCLKSource                    0x08004080   Section        0  stm32f10x_rcc.o(i.RCC_GetSYSCLKSource)
    i.RCC_HCLKConfig                         0x08004090   Section        0  stm32f10x_rcc.o(i.RCC_HCLKConfig)
    i.RCC_HSICmd                             0x080040a8   Section        0  stm32f10x_rcc.o(i.RCC_HSICmd)
    i.RCC_PCLK1Config                        0x080040b4   Section        0  stm32f10x_rcc.o(i.RCC_PCLK1Config)
    i.RCC_PCLK2Config                        0x080040cc   Section        0  stm32f10x_rcc.o(i.RCC_PCLK2Config)
    i.RCC_PLLCmd                             0x080040e4   Section        0  stm32f10x_rcc.o(i.RCC_PLLCmd)
    i.RCC_PLLConfig                          0x080040f0   Section        0  stm32f10x_rcc.o(i.RCC_PLLConfig)
    i.RCC_SYSCLKConfig                       0x0800410c   Section        0  stm32f10x_rcc.o(i.RCC_SYSCLKConfig)
    i.RingBuf_CutBufSizeToPowOfTwo           0x08004124   Section        0  dji_ringbuffer.o(i.RingBuf_CutBufSizeToPowOfTwo)
    RingBuf_CutBufSizeToPowOfTwo             0x08004125   Thumb Code    30  dji_ringbuffer.o(i.RingBuf_CutBufSizeToPowOfTwo)
    i.RingBuf_Get                            0x08004142   Section        0  dji_ringbuffer.o(i.RingBuf_Get)
    i.RingBuf_Init                           0x080041b6   Section        0  dji_ringbuffer.o(i.RingBuf_Init)
    i.RingBuf_Put                            0x080041da   Section        0  dji_ringbuffer.o(i.RingBuf_Put)
    i.SetSysClock                            0x08004256   Section        0  system_stm32f10x.o(i.SetSysClock)
    SetSysClock                              0x08004257   Thumb Code     8  system_stm32f10x.o(i.SetSysClock)
    i.SetSysClockTo72                        0x08004260   Section        0  system_stm32f10x.o(i.SetSysClockTo72)
    SetSysClockTo72                          0x08004261   Thumb Code   214  system_stm32f10x.o(i.SetSysClockTo72)
    i.Str_PutStrToBuff                       0x08004340   Section        0  psdk_upper.o(i.Str_PutStrToBuff)
    Str_PutStrToBuff                         0x08004341   Thumb Code    48  psdk_upper.o(i.Str_PutStrToBuff)
    i.SystemInit                             0x08004370   Section        0  system_stm32f10x.o(i.SystemInit)
    i.TIM4_IRQHandler                        0x080043d0   Section        0  motordriver.o(i.TIM4_IRQHandler)
    i.TIM4_init                              0x08004438   Section        0  motordriver.o(i.TIM4_init)
    i.TIM_ARRPreloadConfig                   0x080044a4   Section        0  stm32f10x_tim.o(i.TIM_ARRPreloadConfig)
    i.TIM_ClearITPendingBit                  0x080044bc   Section        0  stm32f10x_tim.o(i.TIM_ClearITPendingBit)
    i.TIM_Cmd                                0x080044c2   Section        0  stm32f10x_tim.o(i.TIM_Cmd)
    i.TIM_DeInit                             0x080044dc   Section        0  stm32f10x_tim.o(i.TIM_DeInit)
    i.TIM_GetITStatus                        0x080046c4   Section        0  stm32f10x_tim.o(i.TIM_GetITStatus)
    i.TIM_ITConfig                           0x080046e6   Section        0  stm32f10x_tim.o(i.TIM_ITConfig)
    i.TIM_TimeBaseInit                       0x080046f8   Section        0  stm32f10x_tim.o(i.TIM_TimeBaseInit)
    i.Test_GetWidgetValueFunc                0x0800479c   Section        0  test_app_func.o(i.Test_GetWidgetValueFunc)
    i.Test_ReceiveFromMobileSDKFunc          0x080047b4   Section        0  test_app_func.o(i.Test_ReceiveFromMobileSDKFunc)
    i.Test_SetWidgetValueFunc                0x080047f0   Section        0  test_app_func.o(i.Test_SetWidgetValueFunc)
    i.TurnOFFLED                             0x08004884   Section        0  motordriver.o(i.TurnOFFLED)
    i.TurnONLED                              0x08004898   Section        0  motordriver.o(i.TurnONLED)
    i.UART_Init                              0x080048ac   Section        0  uart.o(i.UART_Init)
    i.UART_Printf                            0x08004b00   Section        0  log_printf.o(i.UART_Printf)
    i.UART_Read                              0x08004b44   Section        0  uart.o(i.UART_Read)
    i.UART_Write                             0x08004ba0   Section        0  uart.o(i.UART_Write)
    i.USART1_IRQHandler                      0x08004c2c   Section        0  uart.o(i.USART1_IRQHandler)
    i.USART2_IRQHandler                      0x08004c8c   Section        0  uart.o(i.USART2_IRQHandler)
    i.USART3_IRQHandler                      0x08004cec   Section        0  uart.o(i.USART3_IRQHandler)
    i.USART_Cmd                              0x08004d4c   Section        0  stm32f10x_usart.o(i.USART_Cmd)
    i.USART_GetFlagStatus                    0x08004d64   Section        0  stm32f10x_usart.o(i.USART_GetFlagStatus)
    i.USART_GetITStatus                      0x08004d7e   Section        0  stm32f10x_usart.o(i.USART_GetITStatus)
    i.USART_ITConfig                         0x08004dd2   Section        0  stm32f10x_usart.o(i.USART_ITConfig)
    i.USART_Init                             0x08004e1c   Section        0  stm32f10x_usart.o(i.USART_Init)
    i.USART_ReceiveData                      0x08004ef4   Section        0  stm32f10x_usart.o(i.USART_ReceiveData)
    i.USART_SendData                         0x08004efe   Section        0  stm32f10x_usart.o(i.USART_SendData)
    i.Usart_SendByte                         0x08004f06   Section        0  communicate.o(i.Usart_SendByte)
    i.__0sprintf                             0x08004f24   Section        0  printfa.o(i.__0sprintf)
    i.__0vsnprintf                           0x08004f4c   Section        0  printfa.o(i.__0vsnprintf)
    i.__scatterload_copy                     0x08004f70   Section       14  handlers.o(i.__scatterload_copy)
    i.__scatterload_null                     0x08004f7e   Section        2  handlers.o(i.__scatterload_null)
    i.__scatterload_zeroinit                 0x08004f80   Section       14  handlers.o(i.__scatterload_zeroinit)
    i._fp_digits                             0x08004f90   Section        0  printfa.o(i._fp_digits)
    _fp_digits                               0x08004f91   Thumb Code   334  printfa.o(i._fp_digits)
    i._printf_core                           0x080050f4   Section        0  printfa.o(i._printf_core)
    _printf_core                             0x080050f5   Thumb Code  1744  printfa.o(i._printf_core)
    i._printf_post_padding                   0x080057d0   Section        0  printfa.o(i._printf_post_padding)
    _printf_post_padding                     0x080057d1   Thumb Code    36  printfa.o(i._printf_post_padding)
    i._printf_pre_padding                    0x080057f4   Section        0  printfa.o(i._printf_pre_padding)
    _printf_pre_padding                      0x080057f5   Thumb Code    46  printfa.o(i._printf_pre_padding)
    i._snputc                                0x08005822   Section        0  printfa.o(i._snputc)
    _snputc                                  0x08005823   Thumb Code    22  printfa.o(i._snputc)
    i._sputc                                 0x08005838   Section        0  printfa.o(i._sputc)
    _sputc                                   0x08005839   Thumb Code    10  printfa.o(i._sputc)
    i.appDateTimeMsgCallback                 0x08005842   Section        0  test_msg_push.o(i.appDateTimeMsgCallback)
    appDateTimeMsgCallback                   0x08005843   Thumb Code     2  test_msg_push.o(i.appDateTimeMsgCallback)
    i.application_init                       0x08005844   Section        0  application.o(i.application_init)
    i.bandWidthMsgCallback                   0x080058dc   Section        0  test_msg_push.o(i.bandWidthMsgCallback)
    bandWidthMsgCallback                     0x080058dd   Thumb Code     2  test_msg_push.o(i.bandWidthMsgCallback)
    i.baroHeightDataMsgCallback              0x080058de   Section        0  test_msg_push.o(i.baroHeightDataMsgCallback)
    baroHeightDataMsgCallback                0x080058df   Thumb Code     2  test_msg_push.o(i.baroHeightDataMsgCallback)
    i.batteryInfoMsgCallback                 0x080058e0   Section        0  test_msg_push.o(i.batteryInfoMsgCallback)
    batteryInfoMsgCallback                   0x080058e1   Thumb Code    10  test_msg_push.o(i.batteryInfoMsgCallback)
    i.free                                   0x080058ec   Section        0  malloc.o(i.free)
    i.gpsInfoMsgCallback                     0x0800593c   Section        0  test_msg_push.o(i.gpsInfoMsgCallback)
    gpsInfoMsgCallback                       0x0800593d   Thumb Code     2  test_msg_push.o(i.gpsInfoMsgCallback)
    i.gpsRawDataMsgCallback                  0x0800593e   Section        0  test_msg_push.o(i.gpsRawDataMsgCallback)
    gpsRawDataMsgCallback                    0x0800593f   Thumb Code     2  test_msg_push.o(i.gpsRawDataMsgCallback)
    i.main                                   0x08005940   Section        0  main.o(i.main)
    i.malloc                                 0x08005a24   Section        0  malloc.o(i.malloc)
    i.md5_final                              0x08005a90   Section        0  psdk_md5.o(i.md5_final)
    i.md5_init                               0x08005b7c   Section        0  psdk_md5.o(i.md5_init)
    i.md5_transform                          0x08005ba4   Section        0  psdk_md5.o(i.md5_transform)
    i.md5_update                             0x08006624   Section        0  psdk_md5.o(i.md5_update)
    i.rtkRawDataMsgCallback                  0x08006668   Section        0  test_msg_push.o(i.rtkRawDataMsgCallback)
    rtkRawDataMsgCallback                    0x08006669   Thumb Code     2  test_msg_push.o(i.rtkRawDataMsgCallback)
    i.uavAttitudeMsgCallback                 0x0800666a   Section        0  test_msg_push.o(i.uavAttitudeMsgCallback)
    uavAttitudeMsgCallback                   0x0800666b   Thumb Code     2  test_msg_push.o(i.uavAttitudeMsgCallback)
    i.uavStateMsgCallback                    0x0800666c   Section        0  test_msg_push.o(i.uavStateMsgCallback)
    uavStateMsgCallback                      0x0800666d   Thumb Code     2  test_msg_push.o(i.uavStateMsgCallback)
    .constdata                               0x0800666e   Section        5  main.o(.constdata)
    __FUNCTION__                             0x0800666e   Data           5  main.o(.constdata)
    .constdata                               0x08006674   Section       36  application.o(.constdata)
    __FUNCTION__                             0x08006674   Data          15  application.o(.constdata)
    .constdata                               0x08006698   Section     2108  psdk_aes.o(.constdata)
    s_aesSbox                                0x08006698   Data         256  psdk_aes.o(.constdata)
    s_aesInvsbox                             0x08006798   Data         256  psdk_aes.o(.constdata)
    s_gfMul                                  0x08006898   Data        1536  psdk_aes.o(.constdata)
    .constdata                               0x08006ed4   Section      768  psdk_crc.o(.constdata)
    s_CrcTab8                                0x08006ed4   Data         256  psdk_crc.o(.constdata)
    s_CrcTab16                               0x08006fd4   Data         512  psdk_crc.o(.constdata)
    .constdata                               0x080071d4   Section       23  psdk_debug.o(.constdata)
    __FUNCTION__                             0x080071d4   Data          23  psdk_debug.o(.constdata)
    .constdata                               0x080071eb   Section       47  psdk_proto.o(.constdata)
    __FUNCTION__                             0x080071eb   Data          18  psdk_proto.o(.constdata)
    __FUNCTION__                             0x080071fd   Data          29  psdk_proto.o(.constdata)
    .constdata                               0x0800721c   Section      105  psdk_app_func.o(.constdata)
    s_appFuncProtCmdList                     0x0800721c   Data          48  psdk_app_func.o(.constdata)
    __FUNCTION__                             0x0800724c   Data          31  psdk_app_func.o(.constdata)
    __FUNCTION__                             0x0800726b   Data          26  psdk_app_func.o(.constdata)
    .constdata                               0x08007288   Section       72  psdk_msg_subcribe.o(.constdata)
    s_PushDataMsgSubProtCmdList              0x08007288   Data          72  psdk_msg_subcribe.o(.constdata)
    .constdata                               0x080072d0   Section       48  psdk_payload_gimbal.o(.constdata)
    s_PayloadGimbalCmdList                   0x080072d0   Data          48  psdk_payload_gimbal.o(.constdata)
    .constdata                               0x08007300   Section       48  psdk_upper.o(.constdata)
    s_payloadStateProtCmdList                0x08007300   Data          48  psdk_upper.o(.constdata)
    .constdata                               0x08007330   Section      107  test_app_func.o(.constdata)
    s_TestWidgetList                         0x08007330   Data          52  test_app_func.o(.constdata)
    __FUNCTION__                             0x08007365   Data          30  test_app_func.o(.constdata)
    __FUNCTION__                             0x08007383   Data          24  test_app_func.o(.constdata)
    .constdata                               0x0800739c   Section       36  test_msg_push.o(.constdata)
    .constdata                               0x080073c0   Section      115  test_payload_gimbal_emu.o(.constdata)
    __FUNCTION__                             0x080073d4   Data          24  test_payload_gimbal_emu.o(.constdata)
    __FUNCTION__                             0x080073ec   Data          21  test_payload_gimbal_emu.o(.constdata)
    __FUNCTION__                             0x08007401   Data          23  test_payload_gimbal_emu.o(.constdata)
    __FUNCTION__                             0x08007418   Data          27  test_payload_gimbal_emu.o(.constdata)
    .conststring                             0x08007434   Section      193  application.o(.conststring)
    .conststring                             0x080074f8   Section       75  psdk_proto.o(.conststring)
    .conststring                             0x08007544   Section      149  psdk_app_func.o(.conststring)
    .conststring                             0x080075dc   Section        4  test_app_func.o(.conststring)
    .data                                    0x20000000   Section        1  log_printf.o(.data)
    isLogInit                                0x20000000   Data           1  log_printf.o(.data)
    .data                                    0x20000004   Section       16  motordriver.o(.data)
    .data                                    0x20000014   Section        4  adc.o(.data)
    .data                                    0x20000018   Section       19  communicate.o(.data)
    .data                                    0x2000002b   Section       20  stm32f10x_rcc.o(.data)
    APBAHBPrescTable                         0x2000002b   Data          16  stm32f10x_rcc.o(.data)
    ADCPrescTable                            0x2000003b   Data           4  stm32f10x_rcc.o(.data)
    .data                                    0x20000040   Section     1024  psdk_crc.o(.data)
    s_CrcTab32                               0x20000040   Data        1024  psdk_crc.o(.data)
    .data                                    0x20000440   Section       17  psdk_app_func.o(.data)
    s_receiveFromAppFunc                     0x20000440   Data           4  psdk_app_func.o(.data)
    s_getWidgetValueFunc                     0x20000444   Data           4  psdk_app_func.o(.data)
    s_setWidgetValueFunc                     0x20000448   Data           4  psdk_app_func.o(.data)
    s_widgetList                             0x2000044c   Data           4  psdk_app_func.o(.data)
    s_widgetItemCount                        0x20000450   Data           1  psdk_app_func.o(.data)
    .data                                    0x20000451   Section        1  psdk_payload_gimbal.o(.data)
    s_isSupportGimbal                        0x20000451   Data           1  psdk_payload_gimbal.o(.data)
    .data                                    0x20000452   Section        4  psdk_upper.o(.data)
    s_fixSkyport                             0x20000452   Data           4  psdk_upper.o(.data)
    .data                                    0x20000458   Section       12  test_app_func.o(.data)
    .data                                    0x20000464   Section       16  test_payload_gimbal_emu.o(.data)
    gimbalMode                               0x20000464   Data           1  test_payload_gimbal_emu.o(.data)
    isYawLimit                               0x20000465   Data           1  test_payload_gimbal_emu.o(.data)
    isRollLimit                              0x20000466   Data           1  test_payload_gimbal_emu.o(.data)
    isPitchLimit                             0x20000467   Data           1  test_payload_gimbal_emu.o(.data)
    pitch                                    0x20000468   Data           2  test_payload_gimbal_emu.o(.data)
    roll                                     0x2000046a   Data           2  test_payload_gimbal_emu.o(.data)
    yaw                                      0x2000046c   Data           2  test_payload_gimbal_emu.o(.data)
    pitchSpeed                               0x2000046e   Data           2  test_payload_gimbal_emu.o(.data)
    rollSpeed                                0x20000470   Data           2  test_payload_gimbal_emu.o(.data)
    yawSpeed                                 0x20000472   Data           2  test_payload_gimbal_emu.o(.data)
    .data                                    0x20000474   Section        4  mvars.o(.data)
    .data                                    0x20000478   Section        4  mvars.o(.data)
    .bss                                     0x2000047c   Section       20  main.o(.bss)
    .bss                                     0x20000490   Section     2724  application.o(.bss)
    s_uartRecBuf                             0x200008a0   Data        1024  application.o(.bss)
    s_printBuffer                            0x20000ca0   Data         512  application.o(.bss)
    s_userInfo                               0x20000ea0   Data         148  application.o(.bss)
    .bss                                     0x20000f34   Section     3144  uart.o(.bss)
    s_uart1ReadRingBuffer                    0x20000f34   Data          12  uart.o(.bss)
    s_uart1WriteRingBuffer                   0x20000f40   Data          12  uart.o(.bss)
    s_uart1ReadBuf                           0x20000f4c   Data         512  uart.o(.bss)
    s_uart1WriteBuf                          0x2000114c   Data         512  uart.o(.bss)
    s_uart2ReadRingBuffer                    0x2000134c   Data          12  uart.o(.bss)
    s_uart2WriteRingBuffer                   0x20001358   Data          12  uart.o(.bss)
    s_uart2ReadBuf                           0x20001364   Data         512  uart.o(.bss)
    s_uart2WriteBuf                          0x20001564   Data         512  uart.o(.bss)
    s_uart3ReadRingBuffer                    0x20001764   Data          12  uart.o(.bss)
    s_uart3WriteRingBuffer                   0x20001770   Data          12  uart.o(.bss)
    s_uart3ReadBuf                           0x2000177c   Data         512  uart.o(.bss)
    s_uart3WriteBuf                          0x2000197c   Data         512  uart.o(.bss)
    .bss                                     0x20001b7c   Section       36  psdk_msg_subcribe.o(.bss)
    s_PushDataMsgCallbackList                0x20001b7c   Data          36  psdk_msg_subcribe.o(.bss)
    .bss                                     0x20001ba0   Section       20  psdk_payload_gimbal.o(.bss)
    s_gimbalHandler                          0x20001ba0   Data          20  psdk_payload_gimbal.o(.bss)
    .bss                                     0x20001bb4   Section      181  psdk_upper.o(.bss)
    s_userInfo                               0x20001bb4   Data         148  psdk_upper.o(.bss)
    s_customInfo                             0x20001c48   Data          33  psdk_upper.o(.bss)
    .bss                                     0x20001c69   Section     1024  test_app_func.o(.bss)
    receivePrint                             0x20001c69   Data        1024  test_app_func.o(.bss)
    HEAP                                     0x20002070   Section      512  startup_stm32f10x_md.o(HEAP)
    STACK                                    0x20002270   Section     1024  startup_stm32f10x_md.o(STACK)

    Global Symbols

    Symbol Name                              Value     Ov Type        Size  Object(Section)

    BuildAttributes$$THM_ISAv4$P$D$K$B$S$PE$A:L22UL41UL21$X:L11$S22US41US21$IEEE1$IW$USESV6$~STKCKD$USESV7$~SHL$OTIME$ROPI$EBA8$MICROLIB$REQ8$PRES8$EABIv2 0x00000000   Number         0  anon$$obj.o ABSOLUTE
    __ARM_use_no_argv                        0x00000000   Number         0  main.o ABSOLUTE
    _printf_a                                0x00000000   Number         0  stubs.o ABSOLUTE
    _printf_c                                0x00000000   Number         0  stubs.o ABSOLUTE
    _printf_charcount                        0x00000000   Number         0  stubs.o ABSOLUTE
    _printf_d                                0x00000000   Number         0  stubs.o ABSOLUTE
    _printf_e                                0x00000000   Number         0  stubs.o ABSOLUTE
    _printf_f                                0x00000000   Number         0  stubs.o ABSOLUTE
    _printf_flags                            0x00000000   Number         0  stubs.o ABSOLUTE
    _printf_fp_dec                           0x00000000   Number         0  stubs.o ABSOLUTE
    _printf_fp_hex                           0x00000000   Number         0  stubs.o ABSOLUTE
    _printf_g                                0x00000000   Number         0  stubs.o ABSOLUTE
    _printf_i                                0x00000000   Number         0  stubs.o ABSOLUTE
    _printf_int_dec                          0x00000000   Number         0  stubs.o ABSOLUTE
    _printf_l                                0x00000000   Number         0  stubs.o ABSOLUTE
    _printf_lc                               0x00000000   Number         0  stubs.o ABSOLUTE
    _printf_ll                               0x00000000   Number         0  stubs.o ABSOLUTE
    _printf_lld                              0x00000000   Number         0  stubs.o ABSOLUTE
    _printf_lli                              0x00000000   Number         0  stubs.o ABSOLUTE
    _printf_llo                              0x00000000   Number         0  stubs.o ABSOLUTE
    _printf_llu                              0x00000000   Number         0  stubs.o ABSOLUTE
    _printf_llx                              0x00000000   Number         0  stubs.o ABSOLUTE
    _printf_longlong_dec                     0x00000000   Number         0  stubs.o ABSOLUTE
    _printf_longlong_hex                     0x00000000   Number         0  stubs.o ABSOLUTE
    _printf_longlong_oct                     0x00000000   Number         0  stubs.o ABSOLUTE
    _printf_ls                               0x00000000   Number         0  stubs.o ABSOLUTE
    _printf_mbtowc                           0x00000000   Number         0  stubs.o ABSOLUTE
    _printf_n                                0x00000000   Number         0  stubs.o ABSOLUTE
    _printf_o                                0x00000000   Number         0  stubs.o ABSOLUTE
    _printf_p                                0x00000000   Number         0  stubs.o ABSOLUTE
    _printf_percent                          0x00000000   Number         0  stubs.o ABSOLUTE
    _printf_pre_padding                      0x00000000   Number         0  stubs.o ABSOLUTE
    _printf_return_value                     0x00000000   Number         0  stubs.o ABSOLUTE
    _printf_s                                0x00000000   Number         0  stubs.o ABSOLUTE
    _printf_sizespec                         0x00000000   Number         0  stubs.o ABSOLUTE
    _printf_str                              0x00000000   Number         0  stubs.o ABSOLUTE
    _printf_truncate_signed                  0x00000000   Number         0  stubs.o ABSOLUTE
    _printf_truncate_unsigned                0x00000000   Number         0  stubs.o ABSOLUTE
    _printf_u                                0x00000000   Number         0  stubs.o ABSOLUTE
    _printf_wc                               0x00000000   Number         0  stubs.o ABSOLUTE
    _printf_wctomb                           0x00000000   Number         0  stubs.o ABSOLUTE
    _printf_widthprec                        0x00000000   Number         0  stubs.o ABSOLUTE
    _printf_x                                0x00000000   Number         0  stubs.o ABSOLUTE
    __cpp_initialize__aeabi_                  - Undefined Weak Reference
    __cxa_finalize                            - Undefined Weak Reference
    _clock_init                               - Undefined Weak Reference
    _microlib_exit                            - Undefined Weak Reference
    __Vectors_Size                           0x000000ec   Number         0  startup_stm32f10x_md.o ABSOLUTE
    __Vectors                                0x08000000   Data           4  startup_stm32f10x_md.o(RESET)
    __Vectors_End                            0x080000ec   Data           0  startup_stm32f10x_md.o(RESET)
    __main                                   0x080000ed   Thumb Code     0  entry.o(.ARM.Collect$$$$00000000)
    _main_stk                                0x080000ed   Thumb Code     0  entry2.o(.ARM.Collect$$$$00000001)
    _main_scatterload                        0x080000f1   Thumb Code     0  entry5.o(.ARM.Collect$$$$00000004)
    __main_after_scatterload                 0x080000f5   Thumb Code     0  entry5.o(.ARM.Collect$$$$00000004)
    _main_clock                              0x080000f5   Thumb Code     0  entry7b.o(.ARM.Collect$$$$00000008)
    _main_cpp_init                           0x080000f5   Thumb Code     0  entry8b.o(.ARM.Collect$$$$0000000A)
    _main_init                               0x080000f5   Thumb Code     0  entry9a.o(.ARM.Collect$$$$0000000B)
    __rt_final_cpp                           0x080000fd   Thumb Code     0  entry10a.o(.ARM.Collect$$$$0000000D)
    __rt_final_exit                          0x080000fd   Thumb Code     0  entry11a.o(.ARM.Collect$$$$0000000F)
    Reset_Handler                            0x08000101   Thumb Code     8  startup_stm32f10x_md.o(.text)
    NMI_Handler                              0x08000109   Thumb Code     2  startup_stm32f10x_md.o(.text)
    HardFault_Handler                        0x0800010b   Thumb Code     2  startup_stm32f10x_md.o(.text)
    MemManage_Handler                        0x0800010d   Thumb Code     2  startup_stm32f10x_md.o(.text)
    BusFault_Handler                         0x0800010f   Thumb Code     2  startup_stm32f10x_md.o(.text)
    UsageFault_Handler                       0x08000111   Thumb Code     2  startup_stm32f10x_md.o(.text)
    SVC_Handler                              0x08000113   Thumb Code     2  startup_stm32f10x_md.o(.text)
    DebugMon_Handler                         0x08000115   Thumb Code     2  startup_stm32f10x_md.o(.text)
    PendSV_Handler                           0x08000117   Thumb Code     2  startup_stm32f10x_md.o(.text)
    SysTick_Handler                          0x08000119   Thumb Code     2  startup_stm32f10x_md.o(.text)
    ADC1_2_IRQHandler                        0x0800011b   Thumb Code     0  startup_stm32f10x_md.o(.text)
    CAN1_RX1_IRQHandler                      0x0800011b   Thumb Code     0  startup_stm32f10x_md.o(.text)
    CAN1_SCE_IRQHandler                      0x0800011b   Thumb Code     0  startup_stm32f10x_md.o(.text)
    DMA1_Channel1_IRQHandler                 0x0800011b   Thumb Code     0  startup_stm32f10x_md.o(.text)
    DMA1_Channel2_IRQHandler                 0x0800011b   Thumb Code     0  startup_stm32f10x_md.o(.text)
    DMA1_Channel3_IRQHandler                 0x0800011b   Thumb Code     0  startup_stm32f10x_md.o(.text)
    DMA1_Channel4_IRQHandler                 0x0800011b   Thumb Code     0  startup_stm32f10x_md.o(.text)
    DMA1_Channel5_IRQHandler                 0x0800011b   Thumb Code     0  startup_stm32f10x_md.o(.text)
    DMA1_Channel6_IRQHandler                 0x0800011b   Thumb Code     0  startup_stm32f10x_md.o(.text)
    DMA1_Channel7_IRQHandler                 0x0800011b   Thumb Code     0  startup_stm32f10x_md.o(.text)
    EXTI0_IRQHandler                         0x0800011b   Thumb Code     0  startup_stm32f10x_md.o(.text)
    EXTI15_10_IRQHandler                     0x0800011b   Thumb Code     0  startup_stm32f10x_md.o(.text)
    EXTI1_IRQHandler                         0x0800011b   Thumb Code     0  startup_stm32f10x_md.o(.text)
    EXTI2_IRQHandler                         0x0800011b   Thumb Code     0  startup_stm32f10x_md.o(.text)
    EXTI3_IRQHandler                         0x0800011b   Thumb Code     0  startup_stm32f10x_md.o(.text)
    EXTI4_IRQHandler                         0x0800011b   Thumb Code     0  startup_stm32f10x_md.o(.text)
    EXTI9_5_IRQHandler                       0x0800011b   Thumb Code     0  startup_stm32f10x_md.o(.text)
    FLASH_IRQHandler                         0x0800011b   Thumb Code     0  startup_stm32f10x_md.o(.text)
    I2C1_ER_IRQHandler                       0x0800011b   Thumb Code     0  startup_stm32f10x_md.o(.text)
    I2C1_EV_IRQHandler                       0x0800011b   Thumb Code     0  startup_stm32f10x_md.o(.text)
    I2C2_ER_IRQHandler                       0x0800011b   Thumb Code     0  startup_stm32f10x_md.o(.text)
    I2C2_EV_IRQHandler                       0x0800011b   Thumb Code     0  startup_stm32f10x_md.o(.text)
    PVD_IRQHandler                           0x0800011b   Thumb Code     0  startup_stm32f10x_md.o(.text)
    RCC_IRQHandler                           0x0800011b   Thumb Code     0  startup_stm32f10x_md.o(.text)
    RTCAlarm_IRQHandler                      0x0800011b   Thumb Code     0  startup_stm32f10x_md.o(.text)
    RTC_IRQHandler                           0x0800011b   Thumb Code     0  startup_stm32f10x_md.o(.text)
    SPI1_IRQHandler                          0x0800011b   Thumb Code     0  startup_stm32f10x_md.o(.text)
    SPI2_IRQHandler                          0x0800011b   Thumb Code     0  startup_stm32f10x_md.o(.text)
    TAMPER_IRQHandler                        0x0800011b   Thumb Code     0  startup_stm32f10x_md.o(.text)
    TIM1_BRK_IRQHandler                      0x0800011b   Thumb Code     0  startup_stm32f10x_md.o(.text)
    TIM1_CC_IRQHandler                       0x0800011b   Thumb Code     0  startup_stm32f10x_md.o(.text)
    TIM1_TRG_COM_IRQHandler                  0x0800011b   Thumb Code     0  startup_stm32f10x_md.o(.text)
    TIM1_UP_IRQHandler                       0x0800011b   Thumb Code     0  startup_stm32f10x_md.o(.text)
    TIM2_IRQHandler                          0x0800011b   Thumb Code     0  startup_stm32f10x_md.o(.text)
    TIM3_IRQHandler                          0x0800011b   Thumb Code     0  startup_stm32f10x_md.o(.text)
    USBWakeUp_IRQHandler                     0x0800011b   Thumb Code     0  startup_stm32f10x_md.o(.text)
    USB_HP_CAN1_TX_IRQHandler                0x0800011b   Thumb Code     0  startup_stm32f10x_md.o(.text)
    USB_LP_CAN1_RX0_IRQHandler               0x0800011b   Thumb Code     0  startup_stm32f10x_md.o(.text)
    WWDG_IRQHandler                          0x0800011b   Thumb Code     0  startup_stm32f10x_md.o(.text)
    __aeabi_memcpy                           0x08000125   Thumb Code    36  memcpya.o(.text)
    __aeabi_memcpy4                          0x08000125   Thumb Code     0  memcpya.o(.text)
    __aeabi_memcpy8                          0x08000125   Thumb Code     0  memcpya.o(.text)
    __aeabi_memset                           0x08000149   Thumb Code    14  memseta.o(.text)
    __aeabi_memset4                          0x08000149   Thumb Code     0  memseta.o(.text)
    __aeabi_memset8                          0x08000149   Thumb Code     0  memseta.o(.text)
    __aeabi_memclr                           0x08000157   Thumb Code     4  memseta.o(.text)
    __aeabi_memclr4                          0x08000157   Thumb Code     0  memseta.o(.text)
    __aeabi_memclr8                          0x08000157   Thumb Code     0  memseta.o(.text)
    _memset$wrapper                          0x0800015b   Thumb Code    18  memseta.o(.text)
    strncpy                                  0x0800016d   Thumb Code    24  strncpy.o(.text)
    strlen                                   0x08000185   Thumb Code    14  strlen.o(.text)
    strcmp                                   0x08000193   Thumb Code    28  strcmp.o(.text)
    strcpy                                   0x080001af   Thumb Code    18  strcpy.o(.text)
    __aeabi_dadd                             0x080001c1   Thumb Code   322  dadd.o(.text)
    __aeabi_dsub                             0x08000303   Thumb Code     6  dadd.o(.text)
    __aeabi_drsub                            0x08000309   Thumb Code     6  dadd.o(.text)
    __aeabi_dmul                             0x0800030f   Thumb Code   228  dmul.o(.text)
    __aeabi_ddiv                             0x080003f3   Thumb Code   222  ddiv.o(.text)
    __aeabi_i2d                              0x080004d1   Thumb Code    34  dflti.o(.text)
    __aeabi_ui2d                             0x080004f3   Thumb Code    26  dfltui.o(.text)
    __aeabi_d2iz                             0x0800050d   Thumb Code    62  dfixi.o(.text)
    __aeabi_f2d                              0x0800054b   Thumb Code    38  f2d.o(.text)
    __aeabi_d2f                              0x08000571   Thumb Code    56  d2f.o(.text)
    __aeabi_uidiv                            0x080005a9   Thumb Code     0  uidiv.o(.text)
    __aeabi_uidivmod                         0x080005a9   Thumb Code    44  uidiv.o(.text)
    __aeabi_uldivmod                         0x080005d5   Thumb Code    98  uldiv.o(.text)
    __aeabi_llsl                             0x08000637   Thumb Code    30  llshl.o(.text)
    _ll_shift_l                              0x08000637   Thumb Code     0  llshl.o(.text)
    __aeabi_llsr                             0x08000655   Thumb Code    32  llushr.o(.text)
    _ll_ushift_r                             0x08000655   Thumb Code     0  llushr.o(.text)
    __aeabi_lasr                             0x08000675   Thumb Code    36  llsshr.o(.text)
    _ll_sshift_r                             0x08000675   Thumb Code     0  llsshr.o(.text)
    __I$use$fp                               0x08000699   Thumb Code     0  iusefp.o(.text)
    _float_round                             0x08000699   Thumb Code    18  fepilogue.o(.text)
    _float_epilogue                          0x080006ab   Thumb Code    92  fepilogue.o(.text)
    _double_round                            0x08000707   Thumb Code    30  depilogue.o(.text)
    _double_epilogue                         0x08000725   Thumb Code   156  depilogue.o(.text)
    __aeabi_d2ulz                            0x080007c1   Thumb Code    48  dfixul.o(.text)
    __aeabi_cdrcmple                         0x080007f1   Thumb Code    48  cdrcmple.o(.text)
    __scatterload                            0x08000821   Thumb Code    28  init.o(.text)
    __scatterload_rt2                        0x08000821   Thumb Code     0  init.o(.text)
    __decompress                             0x08000845   Thumb Code     0  __dclz77c.o(.text)
    __decompress2                            0x08000845   Thumb Code    94  __dclz77c.o(.text)
    ADC1_GPIO_Config                         0x080008a5   Thumb Code    32  adc.o(i.ADC1_GPIO_Config)
    ADC_Cmd                                  0x080008c9   Thumb Code    22  stm32f10x_adc.o(i.ADC_Cmd)
    ADC_GetCalibrationStatus                 0x080008df   Thumb Code    20  stm32f10x_adc.o(i.ADC_GetCalibrationStatus)
    ADC_GetConversionValue                   0x080008f3   Thumb Code     8  stm32f10x_adc.o(i.ADC_GetConversionValue)
    ADC_GetFlagStatus                        0x080008fb   Thumb Code    18  stm32f10x_adc.o(i.ADC_GetFlagStatus)
    ADC_GetResetCalibrationStatus            0x0800090d   Thumb Code    20  stm32f10x_adc.o(i.ADC_GetResetCalibrationStatus)
    ADC_Init                                 0x08000921   Thumb Code    70  stm32f10x_adc.o(i.ADC_Init)
    ADC_RegularChannelConfig                 0x08000971   Thumb Code   184  stm32f10x_adc.o(i.ADC_RegularChannelConfig)
    ADC_ResetCalibration                     0x08000a29   Thumb Code    10  stm32f10x_adc.o(i.ADC_ResetCalibration)
    ADC_SoftwareStartConvCmd                 0x08000a33   Thumb Code    22  stm32f10x_adc.o(i.ADC_SoftwareStartConvCmd)
    ADC_StartCalibration                     0x08000a49   Thumb Code    10  stm32f10x_adc.o(i.ADC_StartCalibration)
    ADCinit                                  0x08000a53   Thumb Code    12  adc.o(i.ADCinit)
    Adc1_Init                                0x08000a61   Thumb Code   114  adc.o(i.Adc1_Init)
    CommunicateUSART_Config                  0x08000f89   Thumb Code   144  communicate.o(i.CommunicateUSART_Config)
    CommunicateUsart_SendString              0x08001021   Thumb Code    52  communicate.o(i.CommunicateUsart_SendString)
    GPIO_Init                                0x08001199   Thumb Code   278  stm32f10x_gpio.o(i.GPIO_Init)
    GPIO_PinRemapConfig                      0x080012b1   Thumb Code   138  stm32f10x_gpio.o(i.GPIO_PinRemapConfig)
    GPIO_ReadOutputDataBit                   0x08001341   Thumb Code    18  stm32f10x_gpio.o(i.GPIO_ReadOutputDataBit)
    GPIO_WriteBit                            0x08001353   Thumb Code    10  stm32f10x_gpio.o(i.GPIO_WriteBit)
    Get_Adc                                  0x0800135d   Thumb Code    32  adc.o(i.Get_Adc)
    GimbalEmu_ControlSpeed                   0x080014a9   Thumb Code   260  test_payload_gimbal_emu.o(i.GimbalEmu_ControlSpeed)
    GimbalEmu_GetGimbalParam                 0x0800161d   Thumb Code   556  test_payload_gimbal_emu.o(i.GimbalEmu_GetGimbalParam)
    GimbalEmu_ReturnHead                     0x08001881   Thumb Code    32  test_payload_gimbal_emu.o(i.GimbalEmu_ReturnHead)
    GimbalEmu_SetGimbalMode                  0x080018cd   Thumb Code    26  test_payload_gimbal_emu.o(i.GimbalEmu_SetGimbalMode)
    GimbalEmu_StartCalibration               0x08001911   Thumb Code    20  test_payload_gimbal_emu.o(i.GimbalEmu_StartCalibration)
    LED_Init                                 0x08001951   Thumb Code    38  led_button_switch.o(i.LED_Init)
    LOG_Init                                 0x0800197d   Thumb Code    20  log_printf.o(i.LOG_Init)
    MotorDriverGPIO_Init                     0x08001995   Thumb Code    40  motordriver.o(i.MotorDriverGPIO_Init)
    NVIC_Init                                0x08001aed   Thumb Code   100  misc.o(i.NVIC_Init)
    PsdkAes_Decrypt                          0x08001c79   Thumb Code   112  psdk_aes.o(i.PsdkAes_Decrypt)
    PsdkAes_Encrypt                          0x08001d09   Thumb Code   112  psdk_aes.o(i.PsdkAes_Encrypt)
    PsdkAes_SetupDecrypt                     0x08002929   Thumb Code   634  psdk_aes.o(i.PsdkAes_SetupDecrypt)
    PsdkAppFunc_Init                         0x08003009   Thumb Code    62  psdk_app_func.o(i.PsdkAppFunc_Init)
    PsdkAppFunc_PushMsgToFloatingWindow      0x08003061   Thumb Code    94  psdk_app_func.o(i.PsdkAppFunc_PushMsgToFloatingWindow)
    PsdkAppFunc_RegGetWidgetValueCallback    0x080030c1   Thumb Code    10  psdk_app_func.o(i.PsdkAppFunc_RegGetWidgetValueCallback)
    PsdkAppFunc_RegSetWidgetValueCallback    0x080030d1   Thumb Code    10  psdk_app_func.o(i.PsdkAppFunc_RegSetWidgetValueCallback)
    PsdkAppFunc_SetReceiveFromAppCallback    0x080030e1   Thumb Code    10  psdk_app_func.o(i.PsdkAppFunc_SetReceiveFromAppCallback)
    PsdkAppFunc_SetWidgetList                0x080030f1   Thumb Code    14  psdk_app_func.o(i.PsdkAppFunc_SetWidgetList)
    PsdkAppFunc_TransferToApp                0x08003109   Thumb Code   172  psdk_app_func.o(i.PsdkAppFunc_TransferToApp)
    PsdkBigLEDTest                           0x080031b5   Thumb Code    98  application.o(i.PsdkBigLEDTest)
    PsdkCrc_Crc16                            0x0800325d   Thumb Code    74  psdk_crc.o(i.PsdkCrc_Crc16)
    PsdkCrc_Crc32                            0x080032cd   Thumb Code    76  psdk_crc.o(i.PsdkCrc_Crc32)
    PsdkDebug_AssertFailed                   0x0800333d   Thumb Code    20  psdk_debug.o(i.PsdkDebug_AssertFailed)
    PsdkGimbal_Init                          0x08003389   Thumb Code    48  psdk_payload_gimbal.o(i.PsdkGimbal_Init)
    PsdkMsgSub_Init                          0x080033c5   Thumb Code    38  psdk_msg_subcribe.o(i.PsdkMsgSub_Init)
    PsdkMsgSub_RegMsgCallbackList            0x080033f5   Thumb Code    20  psdk_msg_subcribe.o(i.PsdkMsgSub_RegMsgCallbackList)
    PsdkProcessRec                           0x080035c5   Thumb Code    32  application.o(i.PsdkProcessRec)
    PsdkProtParse_AddByte                    0x080035ed   Thumb Code   224  psdk_proto_parse.o(i.PsdkProtParse_AddByte)
    PsdkProtParse_Init                       0x080036d5   Thumb Code     8  psdk_proto_parse.o(i.PsdkProtParse_Init)
    PsdkProt_GetCurrentSendSeq               0x080036dd   Thumb Code    18  psdk_proto.o(i.PsdkProt_GetCurrentSendSeq)
    PsdkProto_DealCmd                        0x080037d9   Thumb Code   236  psdk_proto.o(i.PsdkProto_DealCmd)
    PsdkProto_Init                           0x08003aeb   Thumb Code    78  psdk_proto.o(i.PsdkProto_Init)
    PsdkProto_ProcessReceiveData             0x08003b39   Thumb Code   110  psdk_proto.o(i.PsdkProto_ProcessReceiveData)
    PsdkProto_RegCmdSetHandler               0x08003c71   Thumb Code   114  psdk_proto.o(i.PsdkProto_RegCmdSetHandler)
    PsdkProto_RegSendDataFunc                0x08003ce3   Thumb Code    16  psdk_proto.o(i.PsdkProto_RegSendDataFunc)
    PsdkProto_Send                           0x08003cf3   Thumb Code    64  psdk_proto.o(i.PsdkProto_Send)
    PsdkProto_SendAckData                    0x08003d33   Thumb Code    62  psdk_proto.o(i.PsdkProto_SendAckData)
    PsdkUpper_Init                           0x08003d71   Thumb Code   100  psdk_upper.o(i.PsdkUpper_Init)
    PsdkUpper_ProcessReceiveData             0x08003de1   Thumb Code    20  psdk_upper.o(i.PsdkUpper_ProcessReceiveData)
    PsdkUpper_RegSendFunction                0x08003df5   Thumb Code    16  psdk_upper.o(i.PsdkUpper_RegSendFunction)
    Psdk_Read                                0x08003e05   Thumb Code    22  application.o(i.Psdk_Read)
    Psdk_Write                               0x08003e1b   Thumb Code    20  application.o(i.Psdk_Write)
    RCC_ADCCLKConfig                         0x08003e31   Thumb Code    18  stm32f10x_rcc.o(i.RCC_ADCCLKConfig)
    RCC_APB1PeriphClockCmd                   0x08003e49   Thumb Code    26  stm32f10x_rcc.o(i.RCC_APB1PeriphClockCmd)
    RCC_APB1PeriphResetCmd                   0x08003e69   Thumb Code    26  stm32f10x_rcc.o(i.RCC_APB1PeriphResetCmd)
    RCC_APB2PeriphClockCmd                   0x08003e89   Thumb Code    26  stm32f10x_rcc.o(i.RCC_APB2PeriphClockCmd)
    RCC_APB2PeriphResetCmd                   0x08003ea9   Thumb Code    26  stm32f10x_rcc.o(i.RCC_APB2PeriphResetCmd)
    RCC_Configuration                        0x08003ec9   Thumb Code    90  main.o(i.RCC_Configuration)
    RCC_DeInit                               0x08003f25   Thumb Code    64  stm32f10x_rcc.o(i.RCC_DeInit)
    RCC_GetClocksFreq                        0x08003f71   Thumb Code   192  stm32f10x_rcc.o(i.RCC_GetClocksFreq)
    RCC_GetFlagStatus                        0x08004045   Thumb Code    56  stm32f10x_rcc.o(i.RCC_GetFlagStatus)
    RCC_GetSYSCLKSource                      0x08004081   Thumb Code    10  stm32f10x_rcc.o(i.RCC_GetSYSCLKSource)
    RCC_HCLKConfig                           0x08004091   Thumb Code    18  stm32f10x_rcc.o(i.RCC_HCLKConfig)
    RCC_HSICmd                               0x080040a9   Thumb Code     6  stm32f10x_rcc.o(i.RCC_HSICmd)
    RCC_PCLK1Config                          0x080040b5   Thumb Code    18  stm32f10x_rcc.o(i.RCC_PCLK1Config)
    RCC_PCLK2Config                          0x080040cd   Thumb Code    20  stm32f10x_rcc.o(i.RCC_PCLK2Config)
    RCC_PLLCmd                               0x080040e5   Thumb Code     6  stm32f10x_rcc.o(i.RCC_PLLCmd)
    RCC_PLLConfig                            0x080040f1   Thumb Code    24  stm32f10x_rcc.o(i.RCC_PLLConfig)
    RCC_SYSCLKConfig                         0x0800410d   Thumb Code    18  stm32f10x_rcc.o(i.RCC_SYSCLKConfig)
    RingBuf_Get                              0x08004143   Thumb Code   116  dji_ringbuffer.o(i.RingBuf_Get)
    RingBuf_Init                             0x080041b7   Thumb Code    36  dji_ringbuffer.o(i.RingBuf_Init)
    RingBuf_Put                              0x080041db   Thumb Code   124  dji_ringbuffer.o(i.RingBuf_Put)
    SystemInit                               0x08004371   Thumb Code    78  system_stm32f10x.o(i.SystemInit)
    TIM4_IRQHandler                          0x080043d1   Thumb Code    86  motordriver.o(i.TIM4_IRQHandler)
    TIM4_init                                0x08004439   Thumb Code   104  motordriver.o(i.TIM4_init)
    TIM_ARRPreloadConfig                     0x080044a5   Thumb Code    24  stm32f10x_tim.o(i.TIM_ARRPreloadConfig)
    TIM_ClearITPendingBit                    0x080044bd   Thumb Code     6  stm32f10x_tim.o(i.TIM_ClearITPendingBit)
    TIM_Cmd                                  0x080044c3   Thumb Code    24  stm32f10x_tim.o(i.TIM_Cmd)
    TIM_DeInit                               0x080044dd   Thumb Code   424  stm32f10x_tim.o(i.TIM_DeInit)
    TIM_GetITStatus                          0x080046c5   Thumb Code    34  stm32f10x_tim.o(i.TIM_GetITStatus)
    TIM_ITConfig                             0x080046e7   Thumb Code    18  stm32f10x_tim.o(i.TIM_ITConfig)
    TIM_TimeBaseInit                         0x080046f9   Thumb Code   122  stm32f10x_tim.o(i.TIM_TimeBaseInit)
    Test_GetWidgetValueFunc                  0x0800479d   Thumb Code    20  test_app_func.o(i.Test_GetWidgetValueFunc)
    Test_ReceiveFromMobileSDKFunc            0x080047b5   Thumb Code    34  test_app_func.o(i.Test_ReceiveFromMobileSDKFunc)
    Test_SetWidgetValueFunc                  0x080047f1   Thumb Code   108  test_app_func.o(i.Test_SetWidgetValueFunc)
    TurnOFFLED                               0x08004885   Thumb Code    14  motordriver.o(i.TurnOFFLED)
    TurnONLED                                0x08004899   Thumb Code    16  motordriver.o(i.TurnONLED)
    UART_Init                                0x080048ad   Thumb Code   528  uart.o(i.UART_Init)
    UART_Printf                              0x08004b01   Thumb Code    62  log_printf.o(i.UART_Printf)
    UART_Read                                0x08004b45   Thumb Code    80  uart.o(i.UART_Read)
    UART_Write                               0x08004ba1   Thumb Code   116  uart.o(i.UART_Write)
    USART1_IRQHandler                        0x08004c2d   Thumb Code    84  uart.o(i.USART1_IRQHandler)
    USART2_IRQHandler                        0x08004c8d   Thumb Code    84  uart.o(i.USART2_IRQHandler)
    USART3_IRQHandler                        0x08004ced   Thumb Code    84  uart.o(i.USART3_IRQHandler)
    USART_Cmd                                0x08004d4d   Thumb Code    24  stm32f10x_usart.o(i.USART_Cmd)
    USART_GetFlagStatus                      0x08004d65   Thumb Code    26  stm32f10x_usart.o(i.USART_GetFlagStatus)
    USART_GetITStatus                        0x08004d7f   Thumb Code    84  stm32f10x_usart.o(i.USART_GetITStatus)
    USART_ITConfig                           0x08004dd3   Thumb Code    74  stm32f10x_usart.o(i.USART_ITConfig)
    USART_Init                               0x08004e1d   Thumb Code   210  stm32f10x_usart.o(i.USART_Init)
    USART_ReceiveData                        0x08004ef5   Thumb Code    10  stm32f10x_usart.o(i.USART_ReceiveData)
    USART_SendData                           0x08004eff   Thumb Code     8  stm32f10x_usart.o(i.USART_SendData)
    Usart_SendByte                           0x08004f07   Thumb Code    30  communicate.o(i.Usart_SendByte)
    __0sprintf                               0x08004f25   Thumb Code    34  printfa.o(i.__0sprintf)
    __1sprintf                               0x08004f25   Thumb Code     0  printfa.o(i.__0sprintf)
    __2sprintf                               0x08004f25   Thumb Code     0  printfa.o(i.__0sprintf)
    __c89sprintf                             0x08004f25   Thumb Code     0  printfa.o(i.__0sprintf)
    sprintf                                  0x08004f25   Thumb Code     0  printfa.o(i.__0sprintf)
    __0vsnprintf                             0x08004f4d   Thumb Code    32  printfa.o(i.__0vsnprintf)
    __1vsnprintf                             0x08004f4d   Thumb Code     0  printfa.o(i.__0vsnprintf)
    __2vsnprintf                             0x08004f4d   Thumb Code     0  printfa.o(i.__0vsnprintf)
    __c89vsnprintf                           0x08004f4d   Thumb Code     0  printfa.o(i.__0vsnprintf)
    vsnprintf                                0x08004f4d   Thumb Code     0  printfa.o(i.__0vsnprintf)
    __scatterload_copy                       0x08004f71   Thumb Code    14  handlers.o(i.__scatterload_copy)
    __scatterload_null                       0x08004f7f   Thumb Code     2  handlers.o(i.__scatterload_null)
    __scatterload_zeroinit                   0x08004f81   Thumb Code    14  handlers.o(i.__scatterload_zeroinit)
    application_init                         0x08005845   Thumb Code   110  application.o(i.application_init)
    free                                     0x080058ed   Thumb Code    76  malloc.o(i.free)
    main                                     0x08005941   Thumb Code   158  main.o(i.main)
    malloc                                   0x08005a25   Thumb Code    92  malloc.o(i.malloc)
    md5_final                                0x08005a91   Thumb Code   234  psdk_md5.o(i.md5_final)
    md5_init                                 0x08005b7d   Thumb Code    30  psdk_md5.o(i.md5_init)
    md5_transform                            0x08005ba5   Thumb Code  2434  psdk_md5.o(i.md5_transform)
    md5_update                               0x08006625   Thumb Code    68  psdk_md5.o(i.md5_update)
    g_TestWidgetCount                        0x08007364   Data           1  test_app_func.o(.constdata)
    g_PushDataMsgCallbackList                0x0800739c   Data          36  test_msg_push.o(.constdata)
    g_testGimbalHandler                      0x080073c0   Data          20  test_payload_gimbal_emu.o(.constdata)
    Region$$Table$$Base                      0x080075e0   Number         0  anon$$obj.o(Region$$Table)
    Region$$Table$$Limit                     0x08007600   Number         0  anon$$obj.o(Region$$Table)
    task_Run_couter                          0x20000004   Data           4  motordriver.o(.data)
    task_Run_flag                            0x20000008   Data           1  motordriver.o(.data)
    Motor_Run_couter                         0x2000000c   Data           4  motordriver.o(.data)
    Motor_Run_flag                           0x20000010   Data           1  motordriver.o(.data)
    Motor_Direction_flag                     0x20000011   Data           1  motordriver.o(.data)
    LastDirectionFlag                        0x20000012   Data           1  motordriver.o(.data)
    LED_Open_Flag                            0x20000013   Data           1  motordriver.o(.data)
    ADC_value                                0x20000014   Data           4  adc.o(.data)
    USART_RX_STA                             0x20000018   Data           2  communicate.o(.data)
    rxFlag                                   0x2000001a   Data           1  communicate.o(.data)
    finishFlah                               0x2000001b   Data           1  communicate.o(.data)
    rxCounter                                0x2000001c   Data           2  communicate.o(.data)
    rxCounterf                               0x2000001e   Data           2  communicate.o(.data)
    USART_TX_BUF                             0x20000020   Data          11  communicate.o(.data)
    switch1Val                               0x20000458   Data           4  test_app_func.o(.data)
    LastSwitch1Val                           0x2000045c   Data           4  test_app_func.o(.data)
    g_TestWidgetList                         0x20000460   Data           4  test_app_func.o(.data)
    __microlib_freelist                      0x20000474   Data           4  mvars.o(.data)
    __microlib_freelist_initialised          0x20000478   Data           4  mvars.o(.data)
    SYSclock                                 0x2000047c   Data          20  main.o(.bss)
    s_psdkUpperHandle                        0x20000490   Data        1040  application.o(.bss)
    __heap_base                              0x20002070   Data           0  startup_stm32f10x_md.o(HEAP)
    __heap_limit                             0x20002270   Data           0  startup_stm32f10x_md.o(HEAP)
    __initial_sp                             0x20002670   Data           0  startup_stm32f10x_md.o(STACK)



==============================================================================

Memory Map of the image

  Image Entry point : 0x080000ed

  Load Region LR_IROM1 (Base: 0x08000000, Size: 0x00007a7c, Max: 0x00010000, ABSOLUTE, COMPRESSED[0x00007a3c])

    Execution Region ER_IROM1 (Base: 0x08000000, Size: 0x00007600, Max: 0x00010000, ABSOLUTE)

    Base Addr    Size         Type   Attr      Idx    E Section Name        Object

    0x08000000   0x000000ec   Data   RO         3598    RESET               startup_stm32f10x_md.o
    0x080000ec   0x00000000   Code   RO         3649  * .ARM.Collect$$$$00000000  mc_w.l(entry.o)
    0x080000ec   0x00000004   Code   RO         3971    .ARM.Collect$$$$00000001  mc_w.l(entry2.o)
    0x080000f0   0x00000004   Code   RO         3974    .ARM.Collect$$$$00000004  mc_w.l(entry5.o)
    0x080000f4   0x00000000   Code   RO         3976    .ARM.Collect$$$$00000008  mc_w.l(entry7b.o)
    0x080000f4   0x00000000   Code   RO         3978    .ARM.Collect$$$$0000000A  mc_w.l(entry8b.o)
    0x080000f4   0x00000008   Code   RO         3979    .ARM.Collect$$$$0000000B  mc_w.l(entry9a.o)
    0x080000fc   0x00000000   Code   RO         3981    .ARM.Collect$$$$0000000D  mc_w.l(entry10a.o)
    0x080000fc   0x00000000   Code   RO         3983    .ARM.Collect$$$$0000000F  mc_w.l(entry11a.o)
    0x080000fc   0x00000004   Code   RO         3972    .ARM.Collect$$$$00002712  mc_w.l(entry2.o)
    0x08000100   0x00000024   Code   RO         3599    .text               startup_stm32f10x_md.o
    0x08000124   0x00000024   Code   RO         3652    .text               mc_w.l(memcpya.o)
    0x08000148   0x00000024   Code   RO         3654    .text               mc_w.l(memseta.o)
    0x0800016c   0x00000018   Code   RO         3656    .text               mc_w.l(strncpy.o)
    0x08000184   0x0000000e   Code   RO         3658    .text               mc_w.l(strlen.o)
    0x08000192   0x0000001c   Code   RO         3660    .text               mc_w.l(strcmp.o)
    0x080001ae   0x00000012   Code   RO         3662    .text               mc_w.l(strcpy.o)
    0x080001c0   0x0000014e   Code   RO         3955    .text               mf_w.l(dadd.o)
    0x0800030e   0x000000e4   Code   RO         3957    .text               mf_w.l(dmul.o)
    0x080003f2   0x000000de   Code   RO         3959    .text               mf_w.l(ddiv.o)
    0x080004d0   0x00000022   Code   RO         3961    .text               mf_w.l(dflti.o)
    0x080004f2   0x0000001a   Code   RO         3963    .text               mf_w.l(dfltui.o)
    0x0800050c   0x0000003e   Code   RO         3965    .text               mf_w.l(dfixi.o)
    0x0800054a   0x00000026   Code   RO         3967    .text               mf_w.l(f2d.o)
    0x08000570   0x00000038   Code   RO         3969    .text               mf_w.l(d2f.o)
    0x080005a8   0x0000002c   Code   RO         3988    .text               mc_w.l(uidiv.o)
    0x080005d4   0x00000062   Code   RO         3990    .text               mc_w.l(uldiv.o)
    0x08000636   0x0000001e   Code   RO         3992    .text               mc_w.l(llshl.o)
    0x08000654   0x00000020   Code   RO         3994    .text               mc_w.l(llushr.o)
    0x08000674   0x00000024   Code   RO         3996    .text               mc_w.l(llsshr.o)
    0x08000698   0x00000000   Code   RO         4000    .text               mc_w.l(iusefp.o)
    0x08000698   0x0000006e   Code   RO         4001    .text               mf_w.l(fepilogue.o)
    0x08000706   0x000000ba   Code   RO         4003    .text               mf_w.l(depilogue.o)
    0x080007c0   0x00000030   Code   RO         4005    .text               mf_w.l(dfixul.o)
    0x080007f0   0x00000030   Code   RO         4007    .text               mf_w.l(cdrcmple.o)
    0x08000820   0x00000024   Code   RO         4009    .text               mc_w.l(init.o)
    0x08000844   0x0000005e   Code   RO         4021    .text               mc_w.l(__dclz77c.o)
    0x080008a2   0x00000002   PAD
    0x080008a4   0x00000024   Code   RO          702    i.ADC1_GPIO_Config  adc.o
    0x080008c8   0x00000016   Code   RO         1137    i.ADC_Cmd           stm32f10x_adc.o
    0x080008de   0x00000014   Code   RO         1145    i.ADC_GetCalibrationStatus  stm32f10x_adc.o
    0x080008f2   0x00000008   Code   RO         1146    i.ADC_GetConversionValue  stm32f10x_adc.o
    0x080008fa   0x00000012   Code   RO         1148    i.ADC_GetFlagStatus  stm32f10x_adc.o
    0x0800090c   0x00000014   Code   RO         1151    i.ADC_GetResetCalibrationStatus  stm32f10x_adc.o
    0x08000920   0x00000050   Code   RO         1155    i.ADC_Init          stm32f10x_adc.o
    0x08000970   0x000000b8   Code   RO         1159    i.ADC_RegularChannelConfig  stm32f10x_adc.o
    0x08000a28   0x0000000a   Code   RO         1160    i.ADC_ResetCalibration  stm32f10x_adc.o
    0x08000a32   0x00000016   Code   RO         1162    i.ADC_SoftwareStartConvCmd  stm32f10x_adc.o
    0x08000a48   0x0000000a   Code   RO         1164    i.ADC_StartCalibration  stm32f10x_adc.o
    0x08000a52   0x0000000c   Code   RO          703    i.ADCinit           adc.o
    0x08000a5e   0x00000002   PAD
    0x08000a60   0x00000078   Code   RO          704    i.Adc1_Init         adc.o
    0x08000ad8   0x00000054   Code   RO         2918    i.AppFuncCmd_GetWidgetGroupCount  psdk_app_func.o
    0x08000b2c   0x0000026c   Code   RO         2919    i.AppFuncCmd_GetWidgetGroupValue  psdk_app_func.o
    0x08000d98   0x0000003c   Code   RO         2920    i.AppFuncCmd_GetWidgetListLength  psdk_app_func.o
    0x08000dd4   0x0000013c   Code   RO         2921    i.AppFuncCmd_GetWidgetListValue  psdk_app_func.o
    0x08000f10   0x00000058   Code   RO         2922    i.AppFuncCmd_SetWidgetValue  psdk_app_func.o
    0x08000f68   0x00000020   Code   RO         2923    i.AppFuncCmd_TT_AppToLoad  psdk_app_func.o
    0x08000f88   0x00000098   Code   RO          750    i.CommunicateUSART_Config  communicate.o
    0x08001020   0x00000034   Code   RO          751    i.CommunicateUsart_SendString  communicate.o
    0x08001054   0x00000144   Code   RO          195    i.FillInUserInfo    application.o
    0x08001198   0x00000116   Code   RO          799    i.GPIO_Init         stm32f10x_gpio.o
    0x080012ae   0x00000002   PAD
    0x080012b0   0x00000090   Code   RO          801    i.GPIO_PinRemapConfig  stm32f10x_gpio.o
    0x08001340   0x00000012   Code   RO          805    i.GPIO_ReadOutputDataBit  stm32f10x_gpio.o
    0x08001352   0x0000000a   Code   RO          810    i.GPIO_WriteBit     stm32f10x_gpio.o
    0x0800135c   0x00000024   Code   RO          705    i.Get_Adc           adc.o
    0x08001380   0x00000030   Code   RO         3283    i.GimbalCmd_ControlSpeed  psdk_payload_gimbal.o
    0x080013b0   0x00000034   Code   RO         3284    i.GimbalCmd_GetGimbalState  psdk_payload_gimbal.o
    0x080013e4   0x00000030   Code   RO         3285    i.GimbalCmd_ReturnHead  psdk_payload_gimbal.o
    0x08001414   0x00000030   Code   RO         3286    i.GimbalCmd_SetGimbalMode  psdk_payload_gimbal.o
    0x08001444   0x00000030   Code   RO         3287    i.GimbalCmd_StartCalibration  psdk_payload_gimbal.o
    0x08001474   0x00000034   Code   RO         3288    i.GimbalCmd_SupportState  psdk_payload_gimbal.o
    0x080014a8   0x00000174   Code   RO         3544    i.GimbalEmu_ControlSpeed  test_payload_gimbal_emu.o
    0x0800161c   0x00000264   Code   RO         3545    i.GimbalEmu_GetGimbalParam  test_payload_gimbal_emu.o
    0x08001880   0x0000004c   Code   RO         3546    i.GimbalEmu_ReturnHead  test_payload_gimbal_emu.o
    0x080018cc   0x00000044   Code   RO         3547    i.GimbalEmu_SetGimbalMode  test_payload_gimbal_emu.o
    0x08001910   0x00000040   Code   RO         3548    i.GimbalEmu_StartCalibration  test_payload_gimbal_emu.o
    0x08001950   0x0000002c   Code   RO          377    i.LED_Init          led_button_switch.o
    0x0800197c   0x00000018   Code   RO          412    i.LOG_Init          log_printf.o
    0x08001994   0x0000002c   Code   RO          596    i.MotorDriverGPIO_Init  motordriver.o
    0x080019c0   0x00000020   Code   RO         3012    i.MsgPushCmd_GpsRawData  psdk_msg_subcribe.o
    0x080019e0   0x00000020   Code   RO         3013    i.MsgPushCmd_PushAppDateTime  psdk_msg_subcribe.o
    0x08001a00   0x00000020   Code   RO         3014    i.MsgPushCmd_PushAttitude  psdk_msg_subcribe.o
    0x08001a20   0x00000020   Code   RO         3015    i.MsgPushCmd_PushBandWidth  psdk_msg_subcribe.o
    0x08001a40   0x00000020   Code   RO         3016    i.MsgPushCmd_PushBaroHeight  psdk_msg_subcribe.o
    0x08001a60   0x0000002c   Code   RO         3017    i.MsgPushCmd_PushBatteryInfo  psdk_msg_subcribe.o
    0x08001a8c   0x00000020   Code   RO         3018    i.MsgPushCmd_PushGpsInfo  psdk_msg_subcribe.o
    0x08001aac   0x00000020   Code   RO         3019    i.MsgPushCmd_PushUavState  psdk_msg_subcribe.o
    0x08001acc   0x00000020   Code   RO         3020    i.MsgPushCmd_RtkRawData  psdk_msg_subcribe.o
    0x08001aec   0x00000070   Code   RO         2534    i.NVIC_Init         misc.o
    0x08001b5c   0x0000011c   Code   RO         2582    i.PsdkAes_AddRoundKey  psdk_aes.o
    0x08001c78   0x00000090   Code   RO         2583    i.PsdkAes_Decrypt   psdk_aes.o
    0x08001d08   0x00000090   Code   RO         2584    i.PsdkAes_Encrypt   psdk_aes.o
    0x08001d98   0x0000054c   Code   RO         2585    i.PsdkAes_InvMixColumns  psdk_aes.o
    0x080022e4   0x00000032   Code   RO         2586    i.PsdkAes_InvShiftRows  psdk_aes.o
    0x08002316   0x00000002   PAD
    0x08002318   0x00000148   Code   RO         2587    i.PsdkAes_InvSubBytes  psdk_aes.o
    0x08002460   0x000000ec   Code   RO         2588    i.PsdkAes_KeySetup  psdk_aes.o
    0x0800254c   0x000003dc   Code   RO         2589    i.PsdkAes_MixColumns  psdk_aes.o
    0x08002928   0x0000027a   Code   RO         2590    i.PsdkAes_SetupDecrypt  psdk_aes.o
    0x08002ba2   0x00000292   Code   RO         2591    i.PsdkAes_SetupEncrypt  psdk_aes.o
    0x08002e34   0x00000032   Code   RO         2592    i.PsdkAes_ShiftRows  psdk_aes.o
    0x08002e66   0x00000002   PAD
    0x08002e68   0x00000148   Code   RO         2593    i.PsdkAes_SubBytes  psdk_aes.o
    0x08002fb0   0x00000058   Code   RO         2594    i.PsdkAes_SubWord   psdk_aes.o
    0x08003008   0x00000058   Code   RO         2924    i.PsdkAppFunc_Init  psdk_app_func.o
    0x08003060   0x0000005e   Code   RO         2925    i.PsdkAppFunc_PushMsgToFloatingWindow  psdk_app_func.o
    0x080030be   0x00000002   PAD
    0x080030c0   0x00000010   Code   RO         2926    i.PsdkAppFunc_RegGetWidgetValueCallback  psdk_app_func.o
    0x080030d0   0x00000010   Code   RO         2927    i.PsdkAppFunc_RegSetWidgetValueCallback  psdk_app_func.o
    0x080030e0   0x00000010   Code   RO         2928    i.PsdkAppFunc_SetReceiveFromAppCallback  psdk_app_func.o
    0x080030f0   0x00000018   Code   RO         2929    i.PsdkAppFunc_SetWidgetList  psdk_app_func.o
    0x08003108   0x000000ac   Code   RO         2930    i.PsdkAppFunc_TransferToApp  psdk_app_func.o
    0x080031b4   0x000000a8   Code   RO          196    i.PsdkBigLEDTest    application.o
    0x0800325c   0x00000070   Code   RO         2670    i.PsdkCrc_Crc16     psdk_crc.o
    0x080032cc   0x00000070   Code   RO         2671    i.PsdkCrc_Crc32     psdk_crc.o
    0x0800333c   0x0000004c   Code   RO         2709    i.PsdkDebug_AssertFailed  psdk_debug.o
    0x08003388   0x0000003c   Code   RO         3289    i.PsdkGimbal_Init   psdk_payload_gimbal.o
    0x080033c4   0x00000030   Code   RO         3021    i.PsdkMsgSub_Init   psdk_msg_subcribe.o
    0x080033f4   0x00000018   Code   RO         3022    i.PsdkMsgSub_RegMsgCallbackList  psdk_msg_subcribe.o
    0x0800340c   0x00000034   Code   RO         3341    i.PsdkPayloadStateCmd_GetPayloadProductAlias  psdk_upper.o
    0x08003440   0x00000050   Code   RO         3342    i.PsdkPayloadStateCmd_GetPayloadProductInfo  psdk_upper.o
    0x08003490   0x00000048   Code   RO         3343    i.PsdkPayloadStateCmd_GetSkyportVersionInfo  psdk_upper.o
    0x080034d8   0x00000038   Code   RO         3344    i.PsdkPayloadStateCmd_GetVersion  psdk_upper.o
    0x08003510   0x00000080   Code   RO         3345    i.PsdkPayloadStateCmd_IdentityVerify  psdk_upper.o
    0x08003590   0x00000032   Code   RO         3346    i.PsdkPayloadStateCmd_LinkHandShake  psdk_upper.o
    0x080035c2   0x00000002   PAD
    0x080035c4   0x00000028   Code   RO          199    i.PsdkProcessRec    application.o
    0x080035ec   0x000000e0   Code   RO         2862    i.PsdkProtParse_AddByte  psdk_proto_parse.o
    0x080036cc   0x00000008   Code   RO         2863    i.PsdkProtParse_ErrorProcess  psdk_proto_parse.o
    0x080036d4   0x00000008   Code   RO         2864    i.PsdkProtParse_Init  psdk_proto_parse.o
    0x080036dc   0x00000012   Code   RO         2773    i.PsdkProt_GetCurrentSendSeq  psdk_proto.o
    0x080036ee   0x000000ea   Code   RO         3347    i.PsdkProtoUpper_CalTransferKey  psdk_upper.o
    0x080037d8   0x00000124   Code   RO         2775    i.PsdkProto_DealCmd  psdk_proto.o
    0x080038fc   0x0000003a   Code   RO         2776    i.PsdkProto_DealFrame  psdk_proto.o
    0x08003936   0x0000007c   Code   RO         2777    i.PsdkProto_FrameToInfoData  psdk_proto.o
    0x080039b2   0x00000138   Code   RO         2778    i.PsdkProto_InfoDataToFrame  psdk_proto.o
    0x08003aea   0x0000004e   Code   RO         2779    i.PsdkProto_Init    psdk_proto.o
    0x08003b38   0x00000138   Code   RO         2780    i.PsdkProto_ProcessReceiveData  psdk_proto.o
    0x08003c70   0x00000072   Code   RO         2781    i.PsdkProto_RegCmdSetHandler  psdk_proto.o
    0x08003ce2   0x00000010   Code   RO         2782    i.PsdkProto_RegSendDataFunc  psdk_proto.o
    0x08003cf2   0x00000040   Code   RO         2783    i.PsdkProto_Send    psdk_proto.o
    0x08003d32   0x0000003e   Code   RO         2784    i.PsdkProto_SendAckData  psdk_proto.o
    0x08003d70   0x00000070   Code   RO         3348    i.PsdkUpper_Init    psdk_upper.o
    0x08003de0   0x00000014   Code   RO         3349    i.PsdkUpper_ProcessReceiveData  psdk_upper.o
    0x08003df4   0x00000010   Code   RO         3350    i.PsdkUpper_RegSendFunction  psdk_upper.o
    0x08003e04   0x00000016   Code   RO          201    i.Psdk_Read         application.o
    0x08003e1a   0x00000014   Code   RO          202    i.Psdk_Write        application.o
    0x08003e2e   0x00000002   PAD
    0x08003e30   0x00000018   Code   RO          919    i.RCC_ADCCLKConfig  stm32f10x_rcc.o
    0x08003e48   0x00000020   Code   RO          921    i.RCC_APB1PeriphClockCmd  stm32f10x_rcc.o
    0x08003e68   0x00000020   Code   RO          922    i.RCC_APB1PeriphResetCmd  stm32f10x_rcc.o
    0x08003e88   0x00000020   Code   RO          923    i.RCC_APB2PeriphClockCmd  stm32f10x_rcc.o
    0x08003ea8   0x00000020   Code   RO          924    i.RCC_APB2PeriphResetCmd  stm32f10x_rcc.o
    0x08003ec8   0x0000005a   Code   RO            4    i.RCC_Configuration  main.o
    0x08003f22   0x00000002   PAD
    0x08003f24   0x0000004c   Code   RO          930    i.RCC_DeInit        stm32f10x_rcc.o
    0x08003f70   0x000000d4   Code   RO          931    i.RCC_GetClocksFreq  stm32f10x_rcc.o
    0x08004044   0x0000003c   Code   RO          932    i.RCC_GetFlagStatus  stm32f10x_rcc.o
    0x08004080   0x00000010   Code   RO          934    i.RCC_GetSYSCLKSource  stm32f10x_rcc.o
    0x08004090   0x00000018   Code   RO          935    i.RCC_HCLKConfig    stm32f10x_rcc.o
    0x080040a8   0x0000000c   Code   RO          937    i.RCC_HSICmd        stm32f10x_rcc.o
    0x080040b4   0x00000018   Code   RO          942    i.RCC_PCLK1Config   stm32f10x_rcc.o
    0x080040cc   0x00000018   Code   RO          943    i.RCC_PCLK2Config   stm32f10x_rcc.o
    0x080040e4   0x0000000c   Code   RO          944    i.RCC_PLLCmd        stm32f10x_rcc.o
    0x080040f0   0x0000001c   Code   RO          945    i.RCC_PLLConfig     stm32f10x_rcc.o
    0x0800410c   0x00000018   Code   RO          948    i.RCC_SYSCLKConfig  stm32f10x_rcc.o
    0x08004124   0x0000001e   Code   RO          300    i.RingBuf_CutBufSizeToPowOfTwo  dji_ringbuffer.o
    0x08004142   0x00000074   Code   RO          301    i.RingBuf_Get       dji_ringbuffer.o
    0x080041b6   0x00000024   Code   RO          303    i.RingBuf_Init      dji_ringbuffer.o
    0x080041da   0x0000007c   Code   RO          304    i.RingBuf_Put       dji_ringbuffer.o
    0x08004256   0x00000008   Code   RO         3606    i.SetSysClock       system_stm32f10x.o
    0x0800425e   0x00000002   PAD
    0x08004260   0x000000e0   Code   RO         3607    i.SetSysClockTo72   system_stm32f10x.o
    0x08004340   0x00000030   Code   RO         3353    i.Str_PutStrToBuff  psdk_upper.o
    0x08004370   0x00000060   Code   RO         3609    i.SystemInit        system_stm32f10x.o
    0x080043d0   0x00000068   Code   RO          597    i.TIM4_IRQHandler   motordriver.o
    0x08004438   0x0000006c   Code   RO          598    i.TIM4_init         motordriver.o
    0x080044a4   0x00000018   Code   RO         1786    i.TIM_ARRPreloadConfig  stm32f10x_tim.o
    0x080044bc   0x00000006   Code   RO         1793    i.TIM_ClearITPendingBit  stm32f10x_tim.o
    0x080044c2   0x00000018   Code   RO         1798    i.TIM_Cmd           stm32f10x_tim.o
    0x080044da   0x00000002   PAD
    0x080044dc   0x000001e8   Code   RO         1803    i.TIM_DeInit        stm32f10x_tim.o
    0x080046c4   0x00000022   Code   RO         1819    i.TIM_GetITStatus   stm32f10x_tim.o
    0x080046e6   0x00000012   Code   RO         1823    i.TIM_ITConfig      stm32f10x_tim.o
    0x080046f8   0x000000a4   Code   RO         1869    i.TIM_TimeBaseInit  stm32f10x_tim.o
    0x0800479c   0x00000018   Code   RO         3433    i.Test_GetWidgetValueFunc  test_app_func.o
    0x080047b4   0x0000003c   Code   RO         3434    i.Test_ReceiveFromMobileSDKFunc  test_app_func.o
    0x080047f0   0x00000094   Code   RO         3435    i.Test_SetWidgetValueFunc  test_app_func.o
    0x08004884   0x00000014   Code   RO          599    i.TurnOFFLED        motordriver.o
    0x08004898   0x00000014   Code   RO          600    i.TurnONLED         motordriver.o
    0x080048ac   0x00000254   Code   RO          537    i.UART_Init         uart.o
    0x08004b00   0x00000044   Code   RO          413    i.UART_Printf       log_printf.o
    0x08004b44   0x0000005c   Code   RO          538    i.UART_Read         uart.o
    0x08004ba0   0x0000008c   Code   RO          539    i.UART_Write        uart.o
    0x08004c2c   0x00000060   Code   RO          540    i.USART1_IRQHandler  uart.o
    0x08004c8c   0x00000060   Code   RO          541    i.USART2_IRQHandler  uart.o
    0x08004cec   0x00000060   Code   RO          542    i.USART3_IRQHandler  uart.o
    0x08004d4c   0x00000018   Code   RO         2346    i.USART_Cmd         stm32f10x_usart.o
    0x08004d64   0x0000001a   Code   RO         2349    i.USART_GetFlagStatus  stm32f10x_usart.o
    0x08004d7e   0x00000054   Code   RO         2350    i.USART_GetITStatus  stm32f10x_usart.o
    0x08004dd2   0x0000004a   Code   RO         2352    i.USART_ITConfig    stm32f10x_usart.o
    0x08004e1c   0x000000d8   Code   RO         2353    i.USART_Init        stm32f10x_usart.o
    0x08004ef4   0x0000000a   Code   RO         2360    i.USART_ReceiveData  stm32f10x_usart.o
    0x08004efe   0x00000008   Code   RO         2363    i.USART_SendData    stm32f10x_usart.o
    0x08004f06   0x0000001e   Code   RO          752    i.Usart_SendByte    communicate.o
    0x08004f24   0x00000028   Code   RO         3901    i.__0sprintf        mc_w.l(printfa.o)
    0x08004f4c   0x00000024   Code   RO         3904    i.__0vsnprintf      mc_w.l(printfa.o)
    0x08004f70   0x0000000e   Code   RO         4015    i.__scatterload_copy  mc_w.l(handlers.o)
    0x08004f7e   0x00000002   Code   RO         4016    i.__scatterload_null  mc_w.l(handlers.o)
    0x08004f80   0x0000000e   Code   RO         4017    i.__scatterload_zeroinit  mc_w.l(handlers.o)
    0x08004f8e   0x00000002   PAD
    0x08004f90   0x00000164   Code   RO         3906    i._fp_digits        mc_w.l(printfa.o)
    0x080050f4   0x000006dc   Code   RO         3907    i._printf_core      mc_w.l(printfa.o)
    0x080057d0   0x00000024   Code   RO         3908    i._printf_post_padding  mc_w.l(printfa.o)
    0x080057f4   0x0000002e   Code   RO         3909    i._printf_pre_padding  mc_w.l(printfa.o)
    0x08005822   0x00000016   Code   RO         3910    i._snputc           mc_w.l(printfa.o)
    0x08005838   0x0000000a   Code   RO         3911    i._sputc            mc_w.l(printfa.o)
    0x08005842   0x00000002   Code   RO         3478    i.appDateTimeMsgCallback  test_msg_push.o
    0x08005844   0x00000098   Code   RO          203    i.application_init  application.o
    0x080058dc   0x00000002   Code   RO         3479    i.bandWidthMsgCallback  test_msg_push.o
    0x080058de   0x00000002   Code   RO         3480    i.baroHeightDataMsgCallback  test_msg_push.o
    0x080058e0   0x0000000a   Code   RO         3481    i.batteryInfoMsgCallback  test_msg_push.o
    0x080058ea   0x00000002   PAD
    0x080058ec   0x00000050   Code   RO         3927    i.free              mc_w.l(malloc.o)
    0x0800593c   0x00000002   Code   RO         3482    i.gpsInfoMsgCallback  test_msg_push.o
    0x0800593e   0x00000002   Code   RO         3483    i.gpsRawDataMsgCallback  test_msg_push.o
    0x08005940   0x000000e4   Code   RO            5    i.main              main.o
    0x08005a24   0x0000006c   Code   RO         3928    i.malloc            mc_w.l(malloc.o)
    0x08005a90   0x000000ea   Code   RO         2731    i.md5_final         psdk_md5.o
    0x08005b7a   0x00000002   PAD
    0x08005b7c   0x00000028   Code   RO         2732    i.md5_init          psdk_md5.o
    0x08005ba4   0x00000a80   Code   RO         2733    i.md5_transform     psdk_md5.o
    0x08006624   0x00000044   Code   RO         2734    i.md5_update        psdk_md5.o
    0x08006668   0x00000002   Code   RO         3484    i.rtkRawDataMsgCallback  test_msg_push.o
    0x0800666a   0x00000002   Code   RO         3485    i.uavAttitudeMsgCallback  test_msg_push.o
    0x0800666c   0x00000002   Code   RO         3486    i.uavStateMsgCallback  test_msg_push.o
    0x0800666e   0x00000005   Data   RO            7    .constdata          main.o
    0x08006673   0x00000001   PAD
    0x08006674   0x00000024   Data   RO          205    .constdata          application.o
    0x08006698   0x0000083c   Data   RO         2595    .constdata          psdk_aes.o
    0x08006ed4   0x00000300   Data   RO         2673    .constdata          psdk_crc.o
    0x080071d4   0x00000017   Data   RO         2710    .constdata          psdk_debug.o
    0x080071eb   0x0000002f   Data   RO         2785    .constdata          psdk_proto.o
    0x0800721a   0x00000002   PAD
    0x0800721c   0x00000069   Data   RO         2931    .constdata          psdk_app_func.o
    0x08007285   0x00000003   PAD
    0x08007288   0x00000048   Data   RO         3024    .constdata          psdk_msg_subcribe.o
    0x080072d0   0x00000030   Data   RO         3291    .constdata          psdk_payload_gimbal.o
    0x08007300   0x00000030   Data   RO         3355    .constdata          psdk_upper.o
    0x08007330   0x0000006b   Data   RO         3437    .constdata          test_app_func.o
    0x0800739b   0x00000001   PAD
    0x0800739c   0x00000024   Data   RO         3487    .constdata          test_msg_push.o
    0x080073c0   0x00000073   Data   RO         3549    .constdata          test_payload_gimbal_emu.o
    0x08007433   0x00000001   PAD
    0x08007434   0x000000c1   Data   RO          206    .conststring        application.o
    0x080074f5   0x00000003   PAD
    0x080074f8   0x0000004b   Data   RO         2786    .conststring        psdk_proto.o
    0x08007543   0x00000001   PAD
    0x08007544   0x00000095   Data   RO         2932    .conststring        psdk_app_func.o
    0x080075d9   0x00000003   PAD
    0x080075dc   0x00000004   Data   RO         3438    .conststring        test_app_func.o
    0x080075e0   0x00000020   Data   RO         4013    Region$$Table       anon$$obj.o


    Execution Region RW_IRAM1 (Base: 0x20000000, Size: 0x00002670, Max: 0x00005000, ABSOLUTE, COMPRESSED[0x0000043c])

    Base Addr    Size         Type   Attr      Idx    E Section Name        Object

    0x20000000   0x00000001   Data   RW          414    .data               log_printf.o
    0x20000001   0x00000003   PAD
    0x20000004   0x00000010   Data   RW          601    .data               motordriver.o
    0x20000014   0x00000004   Data   RW          706    .data               adc.o
    0x20000018   0x00000013   Data   RW          754    .data               communicate.o
    0x2000002b   0x00000014   Data   RW          951    .data               stm32f10x_rcc.o
    0x2000003f   0x00000001   PAD
    0x20000040   0x00000400   Data   RW         2674    .data               psdk_crc.o
    0x20000440   0x00000011   Data   RW         2933    .data               psdk_app_func.o
    0x20000451   0x00000001   Data   RW         3292    .data               psdk_payload_gimbal.o
    0x20000452   0x00000004   Data   RW         3356    .data               psdk_upper.o
    0x20000456   0x00000002   PAD
    0x20000458   0x0000000c   Data   RW         3439    .data               test_app_func.o
    0x20000464   0x00000010   Data   RW         3550    .data               test_payload_gimbal_emu.o
    0x20000474   0x00000004   Data   RW         3998    .data               mc_w.l(mvars.o)
    0x20000478   0x00000004   Data   RW         3999    .data               mc_w.l(mvars.o)
    0x2000047c   0x00000014   Zero   RW            6    .bss                main.o
    0x20000490   0x00000aa4   Zero   RW          204    .bss                application.o
    0x20000f34   0x00000c48   Zero   RW          543    .bss                uart.o
    0x20001b7c   0x00000024   Zero   RW         3023    .bss                psdk_msg_subcribe.o
    0x20001ba0   0x00000014   Zero   RW         3290    .bss                psdk_payload_gimbal.o
    0x20001bb4   0x000000b5   Zero   RW         3354    .bss                psdk_upper.o
    0x20001c69   0x00000400   Zero   RW         3436    .bss                test_app_func.o
    0x20002069   0x00000007   PAD
    0x20002070   0x00000200   Zero   RW         3597    HEAP                startup_stm32f10x_md.o
    0x20002270   0x00000400   Zero   RW         3596    STACK               startup_stm32f10x_md.o


==============================================================================

Image component sizes


      Code (inc. data)   RO Data    RW Data    ZI Data      Debug   Object Name

       204         14          0          4          0       2131   adc.o
       726        274        229          0       2724       5329   application.o
       234          8          0         19          0       2813   communicate.o
       306          0          0          0          0       3215   dji_ringbuffer.o
        44          6          0          0          0        487   led_button_switch.o
        92         10          0          1          0       1801   log_printf.o
       318         70          5          0         20     255714   main.o
       112         12          0          0          0       1064   misc.o
       296         36          0         16          0      23407   motordriver.o
      5288         98       2108          0          0      10263   psdk_aes.o
      1626        114        254         17          0      10437   psdk_app_func.o
       224         74        768       1024          0       2012   psdk_crc.o
        76         56         23          0          0        973   psdk_debug.o
      3030        264          0          0          0       5324   psdk_md5.o
       372         66         72          0         36       7598   psdk_msg_subcribe.o
       356         40         48          1         20       5722   psdk_payload_gimbal.o
      1450        258        122          0          0       8743   psdk_proto.o
       240          0          0          0          0       2473   psdk_proto_parse.o
       868         34         48          4        181       8644   psdk_upper.o
        36          8        236          0       1536        828   startup_stm32f10x_md.o
       394         10          0          0          0       8153   stm32f10x_adc.o
       450          6          0          0          0       4063   stm32f10x_gpio.o
       664        110          0         20          0      11772   stm32f10x_rcc.o
       758        106          0          0          0       5022   stm32f10x_tim.o
       442          6          0          0          0       6257   stm32f10x_usart.o
         0          0          0          0          0       1760   sys.o
       328         28          0          0          0       2045   system_stm32f10x.o
       232         70        111         12       1024       3131   test_app_func.o
        26          0         36          0          0       5040   test_msg_push.o
      1192        298        115         16          0       4744   test_payload_gimbal_emu.o
      1116        140          0          0       3144      14217   uart.o

    ----------------------------------------------------------------------
     21524       2216       4222       1140       8692     425182   Object Totals
         0          0         32          0          0          0   (incl. Generated)
        24          0         15          6          7          0   (incl. Padding)

    ----------------------------------------------------------------------

      Code (inc. data)   RO Data    RW Data    ZI Data      Debug   Library Member Name

        94          0          0          0          0          0   __dclz77c.o
         0          0          0          0          0          0   entry.o
         0          0          0          0          0          0   entry10a.o
         0          0          0          0          0          0   entry11a.o
         8          4          0          0          0          0   entry2.o
         4          0          0          0          0          0   entry5.o
         0          0          0          0          0          0   entry7b.o
         0          0          0          0          0          0   entry8b.o
         8          4          0          0          0          0   entry9a.o
        30          0          0          0          0          0   handlers.o
        36          8          0          0          0         68   init.o
         0          0          0          0          0          0   iusefp.o
        30          0          0          0          0         68   llshl.o
        36          0          0          0          0         68   llsshr.o
        32          0          0          0          0         68   llushr.o
       188         20          0          0          0        160   malloc.o
        36          0          0          0          0         68   memcpya.o
        36          0          0          0          0        108   memseta.o
         0          0          0          8          0          0   mvars.o
      2302         90          0          0          0        660   printfa.o
        28          0          0          0          0         76   strcmp.o
        18          0          0          0          0         68   strcpy.o
        14          0          0          0          0         68   strlen.o
        24          0          0          0          0         76   strncpy.o
        44          0          0          0          0         80   uidiv.o
        98          0          0          0          0         92   uldiv.o
        48          0          0          0          0         68   cdrcmple.o
        56          0          0          0          0         88   d2f.o
       334          0          0          0          0        148   dadd.o
       222          0          0          0          0        100   ddiv.o
       186          0          0          0          0        176   depilogue.o
        62          0          0          0          0         80   dfixi.o
        48          0          0          0          0         68   dfixul.o
        34          0          0          0          0         76   dflti.o
        26          0          0          0          0         76   dfltui.o
       228          0          0          0          0         96   dmul.o
        38          0          0          0          0         68   f2d.o
       110          0          0          0          0        168   fepilogue.o

    ----------------------------------------------------------------------
      4462        126          0          8          0       2940   Library Totals
         4          0          0          0          0          0   (incl. Padding)

    ----------------------------------------------------------------------

      Code (inc. data)   RO Data    RW Data    ZI Data      Debug   Library Name

      3066        126          0          8          0       1728   mc_w.l
      1392          0          0          0          0       1212   mf_w.l

    ----------------------------------------------------------------------
      4462        126          0          8          0       2940   Library Totals

    ----------------------------------------------------------------------

==============================================================================


      Code (inc. data)   RO Data    RW Data    ZI Data      Debug   

     25986       2342       4222       1148       8692     417850   Grand Totals
     25986       2342       4222       1084       8692     417850   ELF Image Totals (compressed)
     25986       2342       4222       1084          0          0   ROM Totals

==============================================================================

    Total RO  Size (Code + RO Data)                30208 (  29.50kB)
    Total RW  Size (RW Data + ZI Data)              9840 (   9.61kB)
    Total ROM Size (Code + RO Data + RW Data)      31292 (  30.56kB)

==============================================================================

