Component: ARM Compiler 5.05 update 1 (build 106) Tool: armlink [4d0efa]

==============================================================================

Section Cross References

    main.o(i.RCC_Configuration) refers to stm32f10x_rcc.o(i.RCC_DeInit) for RCC_DeInit
    main.o(i.RCC_Configuration) refers to stm32f10x_rcc.o(i.RCC_HSICmd) for RCC_HSICmd
    main.o(i.RCC_Configuration) refers to stm32f10x_rcc.o(i.RCC_GetFlagStatus) for RCC_GetFlagStatus
    main.o(i.RCC_Configuration) refers to stm32f10x_rcc.o(i.RCC_HCLKConfig) for RCC_HCLKConfig
    main.o(i.RCC_Configuration) refers to stm32f10x_rcc.o(i.RCC_PCLK1Config) for RCC_PCLK1Config
    main.o(i.RCC_Configuration) refers to stm32f10x_rcc.o(i.RCC_PCLK2Config) for RCC_PCLK2Config
    main.o(i.RCC_Configuration) refers to stm32f10x_rcc.o(i.RCC_PLLConfig) for RCC_PLLConfig
    main.o(i.RCC_Configuration) refers to stm32f10x_rcc.o(i.RCC_PLLCmd) for RCC_PLLCmd
    main.o(i.RCC_Configuration) refers to stm32f10x_rcc.o(i.RCC_SYSCLKConfig) for RCC_SYSCLKConfig
    main.o(i.RCC_Configuration) refers to stm32f10x_rcc.o(i.RCC_GetSYSCLKSource) for RCC_GetSYSCLKSource
    main.o(i.main) refers to main.o(i.RCC_Configuration) for RCC_Configuration
    main.o(i.main) refers to application.o(i.application_init) for application_init
    main.o(i.main) refers to motordriver.o(i.TIM4_init) for TIM4_init
    main.o(i.main) refers to motordriver.o(i.MotorDriverGPIO_Init) for MotorDriverGPIO_Init
    main.o(i.main) refers to stm32f10x_rcc.o(i.RCC_GetClocksFreq) for RCC_GetClocksFreq
    main.o(i.main) refers to log_printf.o(i.UART_Printf) for UART_Printf
    main.o(i.main) refers to adc.o(i.ADCinit) for ADCinit
    main.o(i.main) refers to application.o(i.PsdkProcessRec) for PsdkProcessRec
    main.o(i.main) refers to adc.o(i.Get_Adc) for Get_Adc
    main.o(i.main) refers to dflt_clz.o(x$fpl$dfltu) for __aeabi_ui2d
    main.o(i.main) refers to ddiv.o(x$fpl$ddiv) for __aeabi_ddiv
    main.o(i.main) refers to dmul.o(x$fpl$dmul) for __aeabi_dmul
    main.o(i.main) refers to d2f.o(x$fpl$d2f) for __aeabi_d2f
    main.o(i.main) refers to stm32f10x_gpio.o(i.GPIO_ReadOutputDataBit) for GPIO_ReadOutputDataBit
    main.o(i.main) refers to stm32f10x_gpio.o(i.GPIO_WriteBit) for GPIO_WriteBit
    main.o(i.main) refers to application.o(i.PsdkMotorTest) for PsdkMotorTest
    main.o(i.main) refers to main.o(.bss) for SYSclock
    main.o(i.main) refers to main.o(.constdata) for __FUNCTION__
    main.o(i.main) refers to adc.o(.data) for ADC_value
    main.o(i.main) refers to motordriver.o(.data) for task_Run_flag
    application.o(i.FillInUserInfo) refers to rt_memclr.o(.text) for __aeabi_memclr
    application.o(i.FillInUserInfo) refers to strcpy.o(.text) for strcpy
    application.o(i.FillInUserInfo) refers to log_printf.o(i.UART_Printf) for UART_Printf
    application.o(i.FillInUserInfo) refers to strcmpv7m.o(.text) for strcmp
    application.o(i.FillInUserInfo) refers to application.o(.constdata) for __FUNCTION__
    application.o(i.FillInUserInfo) refers to application.o(.conststring) for .conststring
    application.o(i.PsdkBigLEDTest) refers to _printf_percent.o(.ARM.Collect$$_printf_percent$$00000000) for _printf_percent
    application.o(i.PsdkBigLEDTest) refers to _printf_f.o(.ARM.Collect$$_printf_percent$$00000003) for _printf_f
    application.o(i.PsdkBigLEDTest) refers to _printf_s.o(.ARM.Collect$$_printf_percent$$00000014) for _printf_s
    application.o(i.PsdkBigLEDTest) refers to printf1.o(x$fpl$printf1) for _printf_fp_dec
    application.o(i.PsdkBigLEDTest) refers to _printf_str.o(.text) for _printf_str
    application.o(i.PsdkBigLEDTest) refers to f2d.o(x$fpl$f2d) for __aeabi_f2d
    application.o(i.PsdkBigLEDTest) refers to __2sprintf.o(.text) for __2sprintf
    application.o(i.PsdkBigLEDTest) refers to psdk_app_func.o(i.PsdkAppFunc_PushMsgToFloatingWindow) for PsdkAppFunc_PushMsgToFloatingWindow
    application.o(i.PsdkBigLEDTest) refers to strlen.o(.text) for strlen
    application.o(i.PsdkBigLEDTest) refers to psdk_app_func.o(i.PsdkAppFunc_TransferToApp) for PsdkAppFunc_TransferToApp
    application.o(i.PsdkBigLEDTest) refers to application.o(.constdata) for .constdata
    application.o(i.PsdkBigLEDTest) refers to motordriver.o(.data) for LED_Open_Flag
    application.o(i.PsdkBigLEDTest) refers to adc.o(.data) for ADC_value
    application.o(i.PsdkBigLEDTest) refers to application.o(.bss) for s_printBuffer
    application.o(i.PsdkMotorTest) refers to _printf_percent.o(.ARM.Collect$$_printf_percent$$00000000) for _printf_percent
    application.o(i.PsdkMotorTest) refers to _printf_f.o(.ARM.Collect$$_printf_percent$$00000003) for _printf_f
    application.o(i.PsdkMotorTest) refers to _printf_s.o(.ARM.Collect$$_printf_percent$$00000014) for _printf_s
    application.o(i.PsdkMotorTest) refers to printf1.o(x$fpl$printf1) for _printf_fp_dec
    application.o(i.PsdkMotorTest) refers to _printf_str.o(.text) for _printf_str
    application.o(i.PsdkMotorTest) refers to f2d.o(x$fpl$f2d) for __aeabi_f2d
    application.o(i.PsdkMotorTest) refers to __2sprintf.o(.text) for __2sprintf
    application.o(i.PsdkMotorTest) refers to psdk_app_func.o(i.PsdkAppFunc_PushMsgToFloatingWindow) for PsdkAppFunc_PushMsgToFloatingWindow
    application.o(i.PsdkMotorTest) refers to strlen.o(.text) for strlen
    application.o(i.PsdkMotorTest) refers to psdk_app_func.o(i.PsdkAppFunc_TransferToApp) for PsdkAppFunc_TransferToApp
    application.o(i.PsdkMotorTest) refers to application.o(.constdata) for .constdata
    application.o(i.PsdkMotorTest) refers to motordriver.o(.data) for Motor_Run_flag
    application.o(i.PsdkMotorTest) refers to adc.o(.data) for ADC_value
    application.o(i.PsdkMotorTest) refers to application.o(.bss) for s_printBuffer
    application.o(i.PsdkProcessRec) refers to application.o(i.Psdk_Read) for Psdk_Read
    application.o(i.PsdkProcessRec) refers to psdk_upper.o(i.PsdkUpper_ProcessReceiveData) for PsdkUpper_ProcessReceiveData
    application.o(i.PsdkProcessRec) refers to application.o(.bss) for s_uartRecBuf
    application.o(i.Psdk_Read) refers to uart.o(i.UART_Read) for UART_Read
    application.o(i.Psdk_Write) refers to uart.o(i.UART_Write) for UART_Write
    application.o(i.application_init) refers to led_button_switch.o(i.LED_Init) for LED_Init
    application.o(i.application_init) refers to led_button_switch.o(i.LED_Control) for LED_Control
    application.o(i.application_init) refers to log_printf.o(i.LOG_Init) for LOG_Init
    application.o(i.application_init) refers to uart.o(i.UART_Init) for UART_Init
    application.o(i.application_init) refers to application.o(i.FillInUserInfo) for FillInUserInfo
    application.o(i.application_init) refers to psdk_upper.o(i.PsdkUpper_Init) for PsdkUpper_Init
    application.o(i.application_init) refers to psdk_upper.o(i.PsdkUpper_RegSendFunction) for PsdkUpper_RegSendFunction
    application.o(i.application_init) refers to psdk_app_func.o(i.PsdkAppFunc_Init) for PsdkAppFunc_Init
    application.o(i.application_init) refers to psdk_app_func.o(i.PsdkAppFunc_SetReceiveFromAppCallback) for PsdkAppFunc_SetReceiveFromAppCallback
    application.o(i.application_init) refers to psdk_app_func.o(i.PsdkAppFunc_SetWidgetList) for PsdkAppFunc_SetWidgetList
    application.o(i.application_init) refers to psdk_app_func.o(i.PsdkAppFunc_RegGetWidgetValueCallback) for PsdkAppFunc_RegGetWidgetValueCallback
    application.o(i.application_init) refers to psdk_app_func.o(i.PsdkAppFunc_RegSetWidgetValueCallback) for PsdkAppFunc_RegSetWidgetValueCallback
    application.o(i.application_init) refers to psdk_msg_subcribe.o(i.PsdkMsgSub_Init) for PsdkMsgSub_Init
    application.o(i.application_init) refers to psdk_msg_subcribe.o(i.PsdkMsgSub_RegMsgCallbackList) for PsdkMsgSub_RegMsgCallbackList
    application.o(i.application_init) refers to psdk_payload_gimbal.o(i.PsdkGimbal_Init) for PsdkGimbal_Init
    application.o(i.application_init) refers to application.o(.bss) for s_userInfo
    application.o(i.application_init) refers to application.o(i.Psdk_Write) for Psdk_Write
    application.o(i.application_init) refers to test_app_func.o(i.Test_ReceiveFromMobileSDKFunc) for Test_ReceiveFromMobileSDKFunc
    application.o(i.application_init) refers to test_app_func.o(.constdata) for g_TestWidgetCount
    application.o(i.application_init) refers to test_app_func.o(.data) for g_TestWidgetList
    application.o(i.application_init) refers to test_app_func.o(i.Test_GetWidgetValueFunc) for Test_GetWidgetValueFunc
    application.o(i.application_init) refers to test_app_func.o(i.Test_SetWidgetValueFunc) for Test_SetWidgetValueFunc
    application.o(i.application_init) refers to test_msg_push.o(.constdata) for g_PushDataMsgCallbackList
    application.o(i.application_init) refers to test_payload_gimbal_emu.o(.constdata) for g_testGimbalHandler
    application.o(.constdata) refers to application.o(.conststring) for .conststring
    dji_ringbuffer.o(i.RingBuf_Get) refers to rt_memcpy_v6.o(.text) for __aeabi_memcpy
    dji_ringbuffer.o(i.RingBuf_Init) refers to dji_ringbuffer.o(i.RingBuf_CutBufSizeToPowOfTwo) for RingBuf_CutBufSizeToPowOfTwo
    dji_ringbuffer.o(i.RingBuf_Put) refers to rt_memcpy_v6.o(.text) for __aeabi_memcpy
    led_button_switch.o(i.LED_Control) refers to stm32f10x_gpio.o(i.GPIO_ResetBits) for GPIO_ResetBits
    led_button_switch.o(i.LED_Control) refers to stm32f10x_gpio.o(i.GPIO_SetBits) for GPIO_SetBits
    led_button_switch.o(i.LED_Control) refers to stm32f10x_gpio.o(i.GPIO_ReadOutputDataBit) for GPIO_ReadOutputDataBit
    led_button_switch.o(i.LED_Init) refers to stm32f10x_rcc.o(i.RCC_APB2PeriphClockCmd) for RCC_APB2PeriphClockCmd
    led_button_switch.o(i.LED_Init) refers to stm32f10x_gpio.o(i.GPIO_Init) for GPIO_Init
    log_printf.o(i.LOG_Init) refers to uart.o(i.UART_Init) for UART_Init
    log_printf.o(i.LOG_Init) refers to log_printf.o(.data) for isLogInit
    log_printf.o(i.UART_Printf) refers to vsnprintf.o(.text) for vsnprintf
    log_printf.o(i.UART_Printf) refers to strlen.o(.text) for strlen
    log_printf.o(i.UART_Printf) refers to uart.o(i.UART_Write) for UART_Write
    log_printf.o(i.UART_Printf) refers to log_printf.o(.data) for isLogInit
    sys.o(i.NVIC_Configuration) refers to misc.o(i.NVIC_PriorityGroupConfig) for NVIC_PriorityGroupConfig
    sys.o(i.NVIC_Configuration) refers to sys.o(i.Wrap_NVIC_SetPriority) for Wrap_NVIC_SetPriority
    sys.o(i.SysTick_Configuration) refers to stm32f10x_rcc.o(i.RCC_GetClocksFreq) for RCC_GetClocksFreq
    sys.o(i.SysTick_Configuration) refers to sys.o(i.NVIC_SetPriority) for NVIC_SetPriority
    sys.o(i.Sys_Delay) refers to sys.o(i.Sys_GetTick) for Sys_GetTick
    sys.o(i.Sys_GetTick) refers to sys.o(.data) for uwTick
    sys.o(i.Sys_IncTick) refers to sys.o(.data) for uwTick
    sys.o(i.Sys_Init) refers to sys.o(i.NVIC_Configuration) for NVIC_Configuration
    sys.o(i.Sys_Init) refers to sys.o(i.SysTick_Configuration) for SysTick_Configuration
    sys.o(i.Wrap_NVIC_SetPriority) refers to sys.o(i.NVIC_SetPriority) for NVIC_SetPriority
    uart.o(i.UART_Init) refers to dji_ringbuffer.o(i.RingBuf_Init) for RingBuf_Init
    uart.o(i.UART_Init) refers to stm32f10x_rcc.o(i.RCC_APB2PeriphClockCmd) for RCC_APB2PeriphClockCmd
    uart.o(i.UART_Init) refers to stm32f10x_gpio.o(i.GPIO_PinRemapConfig) for GPIO_PinRemapConfig
    uart.o(i.UART_Init) refers to stm32f10x_gpio.o(i.GPIO_Init) for GPIO_Init
    uart.o(i.UART_Init) refers to misc.o(i.NVIC_Init) for NVIC_Init
    uart.o(i.UART_Init) refers to stm32f10x_usart.o(i.USART_Init) for USART_Init
    uart.o(i.UART_Init) refers to stm32f10x_usart.o(i.USART_Cmd) for USART_Cmd
    uart.o(i.UART_Init) refers to stm32f10x_usart.o(i.USART_ITConfig) for USART_ITConfig
    uart.o(i.UART_Init) refers to stm32f10x_rcc.o(i.RCC_APB1PeriphClockCmd) for RCC_APB1PeriphClockCmd
    uart.o(i.UART_Init) refers to uart.o(.bss) for s_uart1ReadBuf
    uart.o(i.UART_Read) refers to dji_ringbuffer.o(i.RingBuf_Get) for RingBuf_Get
    uart.o(i.UART_Read) refers to uart.o(.bss) for s_uart1ReadRingBuffer
    uart.o(i.UART_Write) refers to dji_ringbuffer.o(i.RingBuf_Put) for RingBuf_Put
    uart.o(i.UART_Write) refers to stm32f10x_usart.o(i.USART_ITConfig) for USART_ITConfig
    uart.o(i.UART_Write) refers to uart.o(.bss) for s_uart1WriteRingBuffer
    uart.o(i.USART1_IRQHandler) refers to stm32f10x_usart.o(i.USART_GetITStatus) for USART_GetITStatus
    uart.o(i.USART1_IRQHandler) refers to stm32f10x_usart.o(i.USART_ReceiveData) for USART_ReceiveData
    uart.o(i.USART1_IRQHandler) refers to dji_ringbuffer.o(i.RingBuf_Put) for RingBuf_Put
    uart.o(i.USART1_IRQHandler) refers to dji_ringbuffer.o(i.RingBuf_Get) for RingBuf_Get
    uart.o(i.USART1_IRQHandler) refers to stm32f10x_usart.o(i.USART_SendData) for USART_SendData
    uart.o(i.USART1_IRQHandler) refers to stm32f10x_usart.o(i.USART_ITConfig) for USART_ITConfig
    uart.o(i.USART1_IRQHandler) refers to uart.o(.bss) for s_uart1ReadRingBuffer
    uart.o(i.USART2_IRQHandler) refers to stm32f10x_usart.o(i.USART_GetITStatus) for USART_GetITStatus
    uart.o(i.USART2_IRQHandler) refers to stm32f10x_usart.o(i.USART_ReceiveData) for USART_ReceiveData
    uart.o(i.USART2_IRQHandler) refers to dji_ringbuffer.o(i.RingBuf_Put) for RingBuf_Put
    uart.o(i.USART2_IRQHandler) refers to dji_ringbuffer.o(i.RingBuf_Get) for RingBuf_Get
    uart.o(i.USART2_IRQHandler) refers to stm32f10x_usart.o(i.USART_SendData) for USART_SendData
    uart.o(i.USART2_IRQHandler) refers to stm32f10x_usart.o(i.USART_ITConfig) for USART_ITConfig
    uart.o(i.USART2_IRQHandler) refers to uart.o(.bss) for s_uart2ReadRingBuffer
    uart.o(i.USART3_IRQHandler) refers to stm32f10x_usart.o(i.USART_GetITStatus) for USART_GetITStatus
    uart.o(i.USART3_IRQHandler) refers to stm32f10x_usart.o(i.USART_ReceiveData) for USART_ReceiveData
    uart.o(i.USART3_IRQHandler) refers to dji_ringbuffer.o(i.RingBuf_Put) for RingBuf_Put
    uart.o(i.USART3_IRQHandler) refers to dji_ringbuffer.o(i.RingBuf_Get) for RingBuf_Get
    uart.o(i.USART3_IRQHandler) refers to stm32f10x_usart.o(i.USART_SendData) for USART_SendData
    uart.o(i.USART3_IRQHandler) refers to stm32f10x_usart.o(i.USART_ITConfig) for USART_ITConfig
    uart.o(i.USART3_IRQHandler) refers to uart.o(.bss) for s_uart3ReadRingBuffer
    motordriver.o(i.MotorDriverGPIO_Init) refers to stm32f10x_rcc.o(i.RCC_APB2PeriphClockCmd) for RCC_APB2PeriphClockCmd
    motordriver.o(i.MotorDriverGPIO_Init) refers to stm32f10x_gpio.o(i.GPIO_Init) for GPIO_Init
    motordriver.o(i.TIM4_IRQHandler) refers to stm32f10x_tim.o(i.TIM_GetITStatus) for TIM_GetITStatus
    motordriver.o(i.TIM4_IRQHandler) refers to stm32f10x_tim.o(i.TIM_ClearITPendingBit) for TIM_ClearITPendingBit
    motordriver.o(i.TIM4_IRQHandler) refers to motordriver.o(i.TurnDownMotro) for TurnDownMotro
    motordriver.o(i.TIM4_IRQHandler) refers to motordriver.o(i.TurnUpMotro) for TurnUpMotro
    motordriver.o(i.TIM4_IRQHandler) refers to motordriver.o(i.TurnOFFMotro) for TurnOFFMotro
    motordriver.o(i.TIM4_IRQHandler) refers to motordriver.o(.data) for task_Run_couter
    motordriver.o(i.TIM4_init) refers to stm32f10x_tim.o(i.TIM_DeInit) for TIM_DeInit
    motordriver.o(i.TIM4_init) refers to stm32f10x_rcc.o(i.RCC_APB1PeriphClockCmd) for RCC_APB1PeriphClockCmd
    motordriver.o(i.TIM4_init) refers to stm32f10x_tim.o(i.TIM_TimeBaseInit) for TIM_TimeBaseInit
    motordriver.o(i.TIM4_init) refers to stm32f10x_tim.o(i.TIM_ARRPreloadConfig) for TIM_ARRPreloadConfig
    motordriver.o(i.TIM4_init) refers to stm32f10x_tim.o(i.TIM_ITConfig) for TIM_ITConfig
    motordriver.o(i.TIM4_init) refers to stm32f10x_tim.o(i.TIM_Cmd) for TIM_Cmd
    motordriver.o(i.TIM4_init) refers to misc.o(i.NVIC_Init) for NVIC_Init
    motordriver.o(i.TurnDownMotro) refers to stm32f10x_gpio.o(i.GPIO_WriteBit) for GPIO_WriteBit
    motordriver.o(i.TurnOFFLED) refers to stm32f10x_gpio.o(i.GPIO_WriteBit) for GPIO_WriteBit
    motordriver.o(i.TurnOFFMotro) refers to stm32f10x_gpio.o(i.GPIO_WriteBit) for GPIO_WriteBit
    motordriver.o(i.TurnONLED) refers to stm32f10x_gpio.o(i.GPIO_WriteBit) for GPIO_WriteBit
    motordriver.o(i.TurnUpMotro) refers to stm32f10x_gpio.o(i.GPIO_WriteBit) for GPIO_WriteBit
    gua_timer1_pwm.o(i.GUA_Timer1_PWM_Config_Init) refers to stm32f10x_rcc.o(i.RCC_APB2PeriphClockCmd) for RCC_APB2PeriphClockCmd
    gua_timer1_pwm.o(i.GUA_Timer1_PWM_Config_Init) refers to stm32f10x_tim.o(i.TIM_TimeBaseInit) for TIM_TimeBaseInit
    gua_timer1_pwm.o(i.GUA_Timer1_PWM_Config_Init) refers to stm32f10x_tim.o(i.TIM_OC1Init) for TIM_OC1Init
    gua_timer1_pwm.o(i.GUA_Timer1_PWM_Config_Init) refers to stm32f10x_tim.o(i.TIM_OC2Init) for TIM_OC2Init
    gua_timer1_pwm.o(i.GUA_Timer1_PWM_Config_Init) refers to gua_timer1_pwm.o(i.GUA_Timer1_PWM_Status) for GUA_Timer1_PWM_Status
    gua_timer1_pwm.o(i.GUA_Timer1_PWM_Config_Init) refers to stm32f10x_tim.o(i.TIM_OC2PreloadConfig) for TIM_OC2PreloadConfig
    gua_timer1_pwm.o(i.GUA_Timer1_PWM_Config_Init) refers to stm32f10x_tim.o(i.TIM_ARRPreloadConfig) for TIM_ARRPreloadConfig
    gua_timer1_pwm.o(i.GUA_Timer1_PWM_Config_Init) refers to stm32f10x_tim.o(i.TIM_Cmd) for TIM_Cmd
    gua_timer1_pwm.o(i.GUA_Timer1_PWM_IO_Init) refers to stm32f10x_rcc.o(i.RCC_APB2PeriphClockCmd) for RCC_APB2PeriphClockCmd
    gua_timer1_pwm.o(i.GUA_Timer1_PWM_IO_Init) refers to stm32f10x_gpio.o(i.GPIO_Init) for GPIO_Init
    gua_timer1_pwm.o(i.GUA_Timer1_PWM_Init) refers to gua_timer1_pwm.o(i.GUA_Timer1_PWM_IO_Init) for GUA_Timer1_PWM_IO_Init
    gua_timer1_pwm.o(i.GUA_Timer1_PWM_Init) refers to gua_timer1_pwm.o(i.GUA_Timer1_PWM_Config_Init) for GUA_Timer1_PWM_Config_Init
    gua_timer1_pwm.o(i.GUA_Timer1_PWM_SetDutyCycle) refers to stm32f10x_tim.o(i.TIM_SetCompare1) for TIM_SetCompare1
    gua_timer1_pwm.o(i.GUA_Timer1_PWM_SetDutyCycle) refers to stm32f10x_tim.o(i.TIM_SetCompare2) for TIM_SetCompare2
    gua_timer1_pwm.o(i.GUA_Timer1_PWM_Status) refers to stm32f10x_tim.o(i.TIM_SetCounter) for TIM_SetCounter
    gua_timer1_pwm.o(i.GUA_Timer1_PWM_Status) refers to stm32f10x_tim.o(i.TIM_CtrlPWMOutputs) for TIM_CtrlPWMOutputs
    adc.o(i.ADC1_GPIO_Config) refers to stm32f10x_rcc.o(i.RCC_APB2PeriphClockCmd) for RCC_APB2PeriphClockCmd
    adc.o(i.ADC1_GPIO_Config) refers to stm32f10x_gpio.o(i.GPIO_Init) for GPIO_Init
    adc.o(i.ADCinit) refers to adc.o(i.ADC1_GPIO_Config) for ADC1_GPIO_Config
    adc.o(i.ADCinit) refers to adc.o(i.Adc1_Init) for Adc1_Init
    adc.o(i.Adc1_Init) refers to stm32f10x_rcc.o(i.RCC_APB2PeriphClockCmd) for RCC_APB2PeriphClockCmd
    adc.o(i.Adc1_Init) refers to stm32f10x_rcc.o(i.RCC_ADCCLKConfig) for RCC_ADCCLKConfig
    adc.o(i.Adc1_Init) refers to stm32f10x_adc.o(i.ADC_Init) for ADC_Init
    adc.o(i.Adc1_Init) refers to stm32f10x_adc.o(i.ADC_RegularChannelConfig) for ADC_RegularChannelConfig
    adc.o(i.Adc1_Init) refers to stm32f10x_adc.o(i.ADC_Cmd) for ADC_Cmd
    adc.o(i.Adc1_Init) refers to stm32f10x_adc.o(i.ADC_ResetCalibration) for ADC_ResetCalibration
    adc.o(i.Adc1_Init) refers to stm32f10x_adc.o(i.ADC_GetResetCalibrationStatus) for ADC_GetResetCalibrationStatus
    adc.o(i.Adc1_Init) refers to stm32f10x_adc.o(i.ADC_StartCalibration) for ADC_StartCalibration
    adc.o(i.Adc1_Init) refers to stm32f10x_adc.o(i.ADC_GetCalibrationStatus) for ADC_GetCalibrationStatus
    adc.o(i.Get_Adc) refers to stm32f10x_adc.o(i.ADC_SoftwareStartConvCmd) for ADC_SoftwareStartConvCmd
    adc.o(i.Get_Adc) refers to stm32f10x_adc.o(i.ADC_GetFlagStatus) for ADC_GetFlagStatus
    adc.o(i.Get_Adc) refers to stm32f10x_adc.o(i.ADC_GetConversionValue) for ADC_GetConversionValue
    stm32f10x_gpio.o(i.GPIO_AFIODeInit) refers to stm32f10x_rcc.o(i.RCC_APB2PeriphResetCmd) for RCC_APB2PeriphResetCmd
    stm32f10x_gpio.o(i.GPIO_DeInit) refers to stm32f10x_rcc.o(i.RCC_APB2PeriphResetCmd) for RCC_APB2PeriphResetCmd
    stm32f10x_rcc.o(i.RCC_GetClocksFreq) refers to stm32f10x_rcc.o(.data) for APBAHBPrescTable
    stm32f10x_rcc.o(i.RCC_WaitForHSEStartUp) refers to stm32f10x_rcc.o(i.RCC_GetFlagStatus) for RCC_GetFlagStatus
    stm32f10x_adc.o(i.ADC_DeInit) refers to stm32f10x_rcc.o(i.RCC_APB2PeriphResetCmd) for RCC_APB2PeriphResetCmd
    stm32f10x_flash.o(i.FLASH_EnableWriteProtection) refers to stm32f10x_flash.o(i.FLASH_WaitForLastOperation) for FLASH_WaitForLastOperation
    stm32f10x_flash.o(i.FLASH_EraseAllBank1Pages) refers to stm32f10x_flash.o(i.FLASH_WaitForLastBank1Operation) for FLASH_WaitForLastBank1Operation
    stm32f10x_flash.o(i.FLASH_EraseAllPages) refers to stm32f10x_flash.o(i.FLASH_WaitForLastOperation) for FLASH_WaitForLastOperation
    stm32f10x_flash.o(i.FLASH_EraseOptionBytes) refers to stm32f10x_flash.o(i.FLASH_GetReadOutProtectionStatus) for FLASH_GetReadOutProtectionStatus
    stm32f10x_flash.o(i.FLASH_EraseOptionBytes) refers to stm32f10x_flash.o(i.FLASH_WaitForLastOperation) for FLASH_WaitForLastOperation
    stm32f10x_flash.o(i.FLASH_ErasePage) refers to stm32f10x_flash.o(i.FLASH_WaitForLastOperation) for FLASH_WaitForLastOperation
    stm32f10x_flash.o(i.FLASH_ProgramHalfWord) refers to stm32f10x_flash.o(i.FLASH_WaitForLastOperation) for FLASH_WaitForLastOperation
    stm32f10x_flash.o(i.FLASH_ProgramOptionByteData) refers to stm32f10x_flash.o(i.FLASH_WaitForLastOperation) for FLASH_WaitForLastOperation
    stm32f10x_flash.o(i.FLASH_ProgramWord) refers to stm32f10x_flash.o(i.FLASH_WaitForLastOperation) for FLASH_WaitForLastOperation
    stm32f10x_flash.o(i.FLASH_ReadOutProtection) refers to stm32f10x_flash.o(i.FLASH_WaitForLastOperation) for FLASH_WaitForLastOperation
    stm32f10x_flash.o(i.FLASH_UserOptionByteConfig) refers to stm32f10x_flash.o(i.FLASH_WaitForLastOperation) for FLASH_WaitForLastOperation
    stm32f10x_flash.o(i.FLASH_WaitForLastBank1Operation) refers to stm32f10x_flash.o(i.FLASH_GetBank1Status) for FLASH_GetBank1Status
    stm32f10x_flash.o(i.FLASH_WaitForLastOperation) refers to stm32f10x_flash.o(i.FLASH_GetBank1Status) for FLASH_GetBank1Status
    stm32f10x_pwr.o(i.PWR_DeInit) refers to stm32f10x_rcc.o(i.RCC_APB1PeriphResetCmd) for RCC_APB1PeriphResetCmd
    stm32f10x_tim.o(i.TIM_DeInit) refers to stm32f10x_rcc.o(i.RCC_APB2PeriphResetCmd) for RCC_APB2PeriphResetCmd
    stm32f10x_tim.o(i.TIM_DeInit) refers to stm32f10x_rcc.o(i.RCC_APB1PeriphResetCmd) for RCC_APB1PeriphResetCmd
    stm32f10x_tim.o(i.TIM_ETRClockMode1Config) refers to stm32f10x_tim.o(i.TIM_ETRConfig) for TIM_ETRConfig
    stm32f10x_tim.o(i.TIM_ETRClockMode2Config) refers to stm32f10x_tim.o(i.TIM_ETRConfig) for TIM_ETRConfig
    stm32f10x_tim.o(i.TIM_ICInit) refers to stm32f10x_tim.o(i.TI1_Config) for TI1_Config
    stm32f10x_tim.o(i.TIM_ICInit) refers to stm32f10x_tim.o(i.TIM_SetIC1Prescaler) for TIM_SetIC1Prescaler
    stm32f10x_tim.o(i.TIM_ICInit) refers to stm32f10x_tim.o(i.TI2_Config) for TI2_Config
    stm32f10x_tim.o(i.TIM_ICInit) refers to stm32f10x_tim.o(i.TIM_SetIC2Prescaler) for TIM_SetIC2Prescaler
    stm32f10x_tim.o(i.TIM_ICInit) refers to stm32f10x_tim.o(i.TI3_Config) for TI3_Config
    stm32f10x_tim.o(i.TIM_ICInit) refers to stm32f10x_tim.o(i.TIM_SetIC3Prescaler) for TIM_SetIC3Prescaler
    stm32f10x_tim.o(i.TIM_ICInit) refers to stm32f10x_tim.o(i.TI4_Config) for TI4_Config
    stm32f10x_tim.o(i.TIM_ICInit) refers to stm32f10x_tim.o(i.TIM_SetIC4Prescaler) for TIM_SetIC4Prescaler
    stm32f10x_tim.o(i.TIM_ITRxExternalClockConfig) refers to stm32f10x_tim.o(i.TIM_SelectInputTrigger) for TIM_SelectInputTrigger
    stm32f10x_tim.o(i.TIM_PWMIConfig) refers to stm32f10x_tim.o(i.TI1_Config) for TI1_Config
    stm32f10x_tim.o(i.TIM_PWMIConfig) refers to stm32f10x_tim.o(i.TIM_SetIC1Prescaler) for TIM_SetIC1Prescaler
    stm32f10x_tim.o(i.TIM_PWMIConfig) refers to stm32f10x_tim.o(i.TI2_Config) for TI2_Config
    stm32f10x_tim.o(i.TIM_PWMIConfig) refers to stm32f10x_tim.o(i.TIM_SetIC2Prescaler) for TIM_SetIC2Prescaler
    stm32f10x_tim.o(i.TIM_TIxExternalClockConfig) refers to stm32f10x_tim.o(i.TI2_Config) for TI2_Config
    stm32f10x_tim.o(i.TIM_TIxExternalClockConfig) refers to stm32f10x_tim.o(i.TI1_Config) for TI1_Config
    stm32f10x_tim.o(i.TIM_TIxExternalClockConfig) refers to stm32f10x_tim.o(i.TIM_SelectInputTrigger) for TIM_SelectInputTrigger
    stm32f10x_usart.o(i.USART_DeInit) refers to stm32f10x_rcc.o(i.RCC_APB2PeriphResetCmd) for RCC_APB2PeriphResetCmd
    stm32f10x_usart.o(i.USART_DeInit) refers to stm32f10x_rcc.o(i.RCC_APB1PeriphResetCmd) for RCC_APB1PeriphResetCmd
    stm32f10x_usart.o(i.USART_Init) refers to stm32f10x_rcc.o(i.RCC_GetClocksFreq) for RCC_GetClocksFreq
    psdk_aes.o(i.PsdkAes_Decrypt) refers to psdk_debug.o(i.PsdkDebug_AssertFailed) for PsdkDebug_AssertFailed
    psdk_aes.o(i.PsdkAes_Decrypt) refers to psdk_aes.o(i.PsdkAes_KeySetup) for PsdkAes_KeySetup
    psdk_aes.o(i.PsdkAes_Decrypt) refers to psdk_aes.o(i.PsdkAes_SetupDecrypt) for PsdkAes_SetupDecrypt
    psdk_aes.o(i.PsdkAes_Encrypt) refers to psdk_debug.o(i.PsdkDebug_AssertFailed) for PsdkDebug_AssertFailed
    psdk_aes.o(i.PsdkAes_Encrypt) refers to psdk_aes.o(i.PsdkAes_KeySetup) for PsdkAes_KeySetup
    psdk_aes.o(i.PsdkAes_Encrypt) refers to psdk_aes.o(i.PsdkAes_SetupEncrypt) for PsdkAes_SetupEncrypt
    psdk_aes.o(i.PsdkAes_InvMixColumns) refers to psdk_aes.o(.constdata) for s_gfMul
    psdk_aes.o(i.PsdkAes_InvSubBytes) refers to psdk_aes.o(.constdata) for s_aesInvsbox
    psdk_aes.o(i.PsdkAes_KeySetup) refers to rt_memcpy_w.o(.text) for __aeabi_memcpy4
    psdk_aes.o(i.PsdkAes_KeySetup) refers to psdk_aes.o(i.PsdkAes_SubWord) for PsdkAes_SubWord
    psdk_aes.o(i.PsdkAes_KeySetup) refers to psdk_aes.o(.constdata) for .constdata
    psdk_aes.o(i.PsdkAes_MixColumns) refers to psdk_aes.o(.constdata) for s_gfMul
    psdk_aes.o(i.PsdkAes_SetupDecrypt) refers to psdk_aes.o(i.PsdkAes_AddRoundKey) for PsdkAes_AddRoundKey
    psdk_aes.o(i.PsdkAes_SetupDecrypt) refers to psdk_aes.o(i.PsdkAes_InvShiftRows) for PsdkAes_InvShiftRows
    psdk_aes.o(i.PsdkAes_SetupDecrypt) refers to psdk_aes.o(i.PsdkAes_InvSubBytes) for PsdkAes_InvSubBytes
    psdk_aes.o(i.PsdkAes_SetupDecrypt) refers to psdk_aes.o(i.PsdkAes_InvMixColumns) for PsdkAes_InvMixColumns
    psdk_aes.o(i.PsdkAes_SetupEncrypt) refers to psdk_aes.o(i.PsdkAes_AddRoundKey) for PsdkAes_AddRoundKey
    psdk_aes.o(i.PsdkAes_SetupEncrypt) refers to psdk_aes.o(i.PsdkAes_SubBytes) for PsdkAes_SubBytes
    psdk_aes.o(i.PsdkAes_SetupEncrypt) refers to psdk_aes.o(i.PsdkAes_ShiftRows) for PsdkAes_ShiftRows
    psdk_aes.o(i.PsdkAes_SetupEncrypt) refers to psdk_aes.o(i.PsdkAes_MixColumns) for PsdkAes_MixColumns
    psdk_aes.o(i.PsdkAes_SubBytes) refers to psdk_aes.o(.constdata) for s_aesSbox
    psdk_aes.o(i.PsdkAes_SubWord) refers to psdk_aes.o(.constdata) for s_aesSbox
    psdk_crc.o(i.PsdkCrc_Crc16) refers to psdk_debug.o(i.PsdkDebug_AssertFailed) for PsdkDebug_AssertFailed
    psdk_crc.o(i.PsdkCrc_Crc16) refers to psdk_crc.o(.constdata) for s_CrcTab16
    psdk_crc.o(i.PsdkCrc_Crc32) refers to psdk_debug.o(i.PsdkDebug_AssertFailed) for PsdkDebug_AssertFailed
    psdk_crc.o(i.PsdkCrc_Crc32) refers to psdk_crc.o(.data) for s_CrcTab32
    psdk_crc.o(i.PsdkCrc_Crc8) refers to psdk_debug.o(i.PsdkDebug_AssertFailed) for PsdkDebug_AssertFailed
    psdk_crc.o(i.PsdkCrc_Crc8) refers to psdk_crc.o(.constdata) for s_CrcTab8
    psdk_debug.o(i.PsdkDebug_AssertFailed) refers to log_printf.o(i.UART_Printf) for UART_Printf
    psdk_debug.o(i.PsdkDebug_AssertFailed) refers to psdk_debug.o(.constdata) for __FUNCTION__
    psdk_md5.o(i.md5_final) refers to psdk_md5.o(i.md5_transform) for md5_transform
    psdk_md5.o(i.md5_final) refers to rt_memclr_w.o(.text) for __aeabi_memclr4
    psdk_md5.o(i.md5_update) refers to psdk_md5.o(i.md5_transform) for md5_transform
    psdk_proto.o(i.PsdkProto_DealCmd) refers to log_printf.o(i.UART_Printf) for UART_Printf
    psdk_proto.o(i.PsdkProto_DealCmd) refers to psdk_proto.o(i.PsdkProto_SendAckData) for PsdkProto_SendAckData
    psdk_proto.o(i.PsdkProto_DealCmd) refers to psdk_proto.o(.constdata) for __FUNCTION__
    psdk_proto.o(i.PsdkProto_DealCmd) refers to psdk_proto.o(.conststring) for .conststring
    psdk_proto.o(i.PsdkProto_DealFrame) refers to psdk_proto.o(i.PsdkProto_FrameToInfoData) for PsdkProto_FrameToInfoData
    psdk_proto.o(i.PsdkProto_DealFrame) refers to psdk_proto.o(i.PsdkProto_DealCmd) for PsdkProto_DealCmd
    psdk_proto.o(i.PsdkProto_FrameToInfoData) refers to psdk_aes.o(i.PsdkAes_Decrypt) for PsdkAes_Decrypt
    psdk_proto.o(i.PsdkProto_FrameToInfoData) refers to rt_memcpy_v6.o(.text) for __aeabi_memcpy
    psdk_proto.o(i.PsdkProto_InfoDataToFrame) refers to psdk_crc.o(i.PsdkCrc_Crc16) for PsdkCrc_Crc16
    psdk_proto.o(i.PsdkProto_InfoDataToFrame) refers to h1_alloc.o(.text) for malloc
    psdk_proto.o(i.PsdkProto_InfoDataToFrame) refers to rt_memclr.o(.text) for __aeabi_memclr
    psdk_proto.o(i.PsdkProto_InfoDataToFrame) refers to rt_memcpy_v6.o(.text) for __aeabi_memcpy
    psdk_proto.o(i.PsdkProto_InfoDataToFrame) refers to psdk_aes.o(i.PsdkAes_Encrypt) for PsdkAes_Encrypt
    psdk_proto.o(i.PsdkProto_InfoDataToFrame) refers to h1_free.o(.text) for free
    psdk_proto.o(i.PsdkProto_InfoDataToFrame) refers to psdk_crc.o(i.PsdkCrc_Crc32) for PsdkCrc_Crc32
    psdk_proto.o(i.PsdkProto_Init) refers to rt_memcpy_v6.o(.text) for __aeabi_memcpy
    psdk_proto.o(i.PsdkProto_Init) refers to psdk_proto_parse.o(i.PsdkProtParse_Init) for PsdkProtParse_Init
    psdk_proto.o(i.PsdkProto_Init) refers to rt_memclr_w.o(.text) for __aeabi_memclr4
    psdk_proto.o(i.PsdkProto_Init) refers to rt_memclr.o(.text) for __aeabi_memclr
    psdk_proto.o(i.PsdkProto_ProcessReceiveData) refers to psdk_proto_parse.o(i.PsdkProtParse_AddByte) for PsdkProtParse_AddByte
    psdk_proto.o(i.PsdkProto_ProcessReceiveData) refers to psdk_proto.o(i.PsdkProto_DealFrame) for PsdkProto_DealFrame
    psdk_proto.o(i.PsdkProto_ProcessReceiveData) refers to log_printf.o(i.UART_Printf) for UART_Printf
    psdk_proto.o(i.PsdkProto_ProcessReceiveData) refers to psdk_proto.o(.constdata) for __FUNCTION__
    psdk_proto.o(i.PsdkProto_Send) refers to psdk_proto.o(i.PsdkProto_InfoDataToFrame) for PsdkProto_InfoDataToFrame
    psdk_proto.o(i.PsdkProto_SendAckData) refers to psdk_proto.o(i.PsdkProto_Send) for PsdkProto_Send
    psdk_proto_parse.o(i.PsdkProtParse_AddByte) refers to psdk_proto_parse.o(i.PsdkProtParse_ErrorProcess) for PsdkProtParse_ErrorProcess
    psdk_proto_parse.o(i.PsdkProtParse_AddByte) refers to psdk_crc.o(i.PsdkCrc_Crc16) for PsdkCrc_Crc16
    psdk_proto_parse.o(i.PsdkProtParse_AddByte) refers to psdk_crc.o(i.PsdkCrc_Crc32) for PsdkCrc_Crc32
    psdk_app_func.o(i.AppFuncCmd_GetWidgetGroupCount) refers to psdk_proto.o(i.PsdkProto_SendAckData) for PsdkProto_SendAckData
    psdk_app_func.o(i.AppFuncCmd_GetWidgetGroupCount) refers to psdk_app_func.o(.data) for s_widgetItemCount
    psdk_app_func.o(i.AppFuncCmd_GetWidgetGroupValue) refers to log_printf.o(i.UART_Printf) for UART_Printf
    psdk_app_func.o(i.AppFuncCmd_GetWidgetGroupValue) refers to psdk_proto.o(i.PsdkProto_SendAckData) for PsdkProto_SendAckData
    psdk_app_func.o(i.AppFuncCmd_GetWidgetGroupValue) refers to psdk_app_func.o(.data) for s_widgetItemCount
    psdk_app_func.o(i.AppFuncCmd_GetWidgetGroupValue) refers to psdk_app_func.o(.constdata) for __FUNCTION__
    psdk_app_func.o(i.AppFuncCmd_GetWidgetGroupValue) refers to psdk_app_func.o(.conststring) for .conststring
    psdk_app_func.o(i.AppFuncCmd_GetWidgetListLength) refers to psdk_proto.o(i.PsdkProto_SendAckData) for PsdkProto_SendAckData
    psdk_app_func.o(i.AppFuncCmd_GetWidgetListLength) refers to psdk_app_func.o(.data) for s_widgetList
    psdk_app_func.o(i.AppFuncCmd_GetWidgetListValue) refers to rt_memclr.o(.text) for __aeabi_memclr
    psdk_app_func.o(i.AppFuncCmd_GetWidgetListValue) refers to strncpy.o(.text) for strncpy
    psdk_app_func.o(i.AppFuncCmd_GetWidgetListValue) refers to psdk_proto.o(i.PsdkProto_SendAckData) for PsdkProto_SendAckData
    psdk_app_func.o(i.AppFuncCmd_GetWidgetListValue) refers to psdk_app_func.o(.data) for s_widgetItemCount
    psdk_app_func.o(i.AppFuncCmd_SetWidgetValue) refers to log_printf.o(i.UART_Printf) for UART_Printf
    psdk_app_func.o(i.AppFuncCmd_SetWidgetValue) refers to psdk_proto.o(i.PsdkProto_SendAckData) for PsdkProto_SendAckData
    psdk_app_func.o(i.AppFuncCmd_SetWidgetValue) refers to psdk_app_func.o(.data) for s_setWidgetValueFunc
    psdk_app_func.o(i.AppFuncCmd_SetWidgetValue) refers to psdk_app_func.o(.constdata) for __FUNCTION__
    psdk_app_func.o(i.AppFuncCmd_SetWidgetValue) refers to psdk_app_func.o(.conststring) for .conststring
    psdk_app_func.o(i.AppFuncCmd_TT_AppToLoad) refers to psdk_app_func.o(.data) for s_receiveFromAppFunc
    psdk_app_func.o(i.PsdkAppFunc_Init) refers to psdk_proto.o(i.PsdkProto_RegCmdSetHandler) for PsdkProto_RegCmdSetHandler
    psdk_app_func.o(i.PsdkAppFunc_Init) refers to psdk_app_func.o(.data) for s_receiveFromAppFunc
    psdk_app_func.o(i.PsdkAppFunc_Init) refers to psdk_app_func.o(.constdata) for s_appFuncProtCmdList
    psdk_app_func.o(i.PsdkAppFunc_PushMsgToFloatingWindow) refers to strlen.o(.text) for strlen
    psdk_app_func.o(i.PsdkAppFunc_PushMsgToFloatingWindow) refers to psdk_proto.o(i.PsdkProt_GetCurrentSendSeq) for PsdkProt_GetCurrentSendSeq
    psdk_app_func.o(i.PsdkAppFunc_PushMsgToFloatingWindow) refers to psdk_proto.o(i.PsdkProto_Send) for PsdkProto_Send
    psdk_app_func.o(i.PsdkAppFunc_RegGetWidgetValueCallback) refers to psdk_app_func.o(.data) for s_getWidgetValueFunc
    psdk_app_func.o(i.PsdkAppFunc_RegSetWidgetValueCallback) refers to psdk_app_func.o(.data) for s_setWidgetValueFunc
    psdk_app_func.o(i.PsdkAppFunc_SetReceiveFromAppCallback) refers to psdk_app_func.o(.data) for s_receiveFromAppFunc
    psdk_app_func.o(i.PsdkAppFunc_SetWidgetList) refers to psdk_app_func.o(.data) for s_widgetItemCount
    psdk_app_func.o(i.PsdkAppFunc_TransferToApp) refers to psdk_proto.o(i.PsdkProt_GetCurrentSendSeq) for PsdkProt_GetCurrentSendSeq
    psdk_app_func.o(i.PsdkAppFunc_TransferToApp) refers to psdk_proto.o(i.PsdkProto_Send) for PsdkProto_Send
    psdk_app_func.o(.constdata) refers to psdk_app_func.o(i.AppFuncCmd_TT_AppToLoad) for AppFuncCmd_TT_AppToLoad
    psdk_app_func.o(.constdata) refers to psdk_app_func.o(i.AppFuncCmd_GetWidgetListLength) for AppFuncCmd_GetWidgetListLength
    psdk_app_func.o(.constdata) refers to psdk_app_func.o(i.AppFuncCmd_GetWidgetListValue) for AppFuncCmd_GetWidgetListValue
    psdk_app_func.o(.constdata) refers to psdk_app_func.o(i.AppFuncCmd_GetWidgetGroupCount) for AppFuncCmd_GetWidgetGroupCount
    psdk_app_func.o(.constdata) refers to psdk_app_func.o(i.AppFuncCmd_GetWidgetGroupValue) for AppFuncCmd_GetWidgetGroupValue
    psdk_app_func.o(.constdata) refers to psdk_app_func.o(i.AppFuncCmd_SetWidgetValue) for AppFuncCmd_SetWidgetValue
    psdk_msg_subcribe.o(i.MsgPushCmd_GpsRawData) refers to psdk_msg_subcribe.o(.bss) for s_PushDataMsgCallbackList
    psdk_msg_subcribe.o(i.MsgPushCmd_PushAppDateTime) refers to psdk_msg_subcribe.o(.bss) for s_PushDataMsgCallbackList
    psdk_msg_subcribe.o(i.MsgPushCmd_PushAttitude) refers to psdk_msg_subcribe.o(.bss) for s_PushDataMsgCallbackList
    psdk_msg_subcribe.o(i.MsgPushCmd_PushBandWidth) refers to psdk_msg_subcribe.o(.bss) for s_PushDataMsgCallbackList
    psdk_msg_subcribe.o(i.MsgPushCmd_PushBaroHeight) refers to psdk_msg_subcribe.o(.bss) for s_PushDataMsgCallbackList
    psdk_msg_subcribe.o(i.MsgPushCmd_PushBatteryInfo) refers to psdk_proto.o(i.PsdkProto_SendAckData) for PsdkProto_SendAckData
    psdk_msg_subcribe.o(i.MsgPushCmd_PushBatteryInfo) refers to psdk_msg_subcribe.o(.bss) for s_PushDataMsgCallbackList
    psdk_msg_subcribe.o(i.MsgPushCmd_PushGpsInfo) refers to psdk_msg_subcribe.o(.bss) for s_PushDataMsgCallbackList
    psdk_msg_subcribe.o(i.MsgPushCmd_PushUavState) refers to psdk_msg_subcribe.o(.bss) for s_PushDataMsgCallbackList
    psdk_msg_subcribe.o(i.MsgPushCmd_RtkRawData) refers to psdk_msg_subcribe.o(.bss) for s_PushDataMsgCallbackList
    psdk_msg_subcribe.o(i.PsdkMsgSub_Init) refers to rt_memclr_w.o(.text) for __aeabi_memclr4
    psdk_msg_subcribe.o(i.PsdkMsgSub_Init) refers to psdk_proto.o(i.PsdkProto_RegCmdSetHandler) for PsdkProto_RegCmdSetHandler
    psdk_msg_subcribe.o(i.PsdkMsgSub_Init) refers to psdk_msg_subcribe.o(.bss) for s_PushDataMsgCallbackList
    psdk_msg_subcribe.o(i.PsdkMsgSub_Init) refers to psdk_msg_subcribe.o(.constdata) for s_PushDataMsgSubProtCmdList
    psdk_msg_subcribe.o(i.PsdkMsgSub_RegMsgCallbackList) refers to rt_memcpy_w.o(.text) for __aeabi_memcpy4
    psdk_msg_subcribe.o(i.PsdkMsgSub_RegMsgCallbackList) refers to psdk_msg_subcribe.o(.bss) for s_PushDataMsgCallbackList
    psdk_msg_subcribe.o(.constdata) refers to psdk_msg_subcribe.o(i.MsgPushCmd_PushBandWidth) for MsgPushCmd_PushBandWidth
    psdk_msg_subcribe.o(.constdata) refers to psdk_msg_subcribe.o(i.MsgPushCmd_PushAttitude) for MsgPushCmd_PushAttitude
    psdk_msg_subcribe.o(.constdata) refers to psdk_msg_subcribe.o(i.MsgPushCmd_PushBatteryInfo) for MsgPushCmd_PushBatteryInfo
    psdk_msg_subcribe.o(.constdata) refers to psdk_msg_subcribe.o(i.MsgPushCmd_PushGpsInfo) for MsgPushCmd_PushGpsInfo
    psdk_msg_subcribe.o(.constdata) refers to psdk_msg_subcribe.o(i.MsgPushCmd_PushUavState) for MsgPushCmd_PushUavState
    psdk_msg_subcribe.o(.constdata) refers to psdk_msg_subcribe.o(i.MsgPushCmd_PushAppDateTime) for MsgPushCmd_PushAppDateTime
    psdk_msg_subcribe.o(.constdata) refers to psdk_msg_subcribe.o(i.MsgPushCmd_PushBaroHeight) for MsgPushCmd_PushBaroHeight
    psdk_msg_subcribe.o(.constdata) refers to psdk_msg_subcribe.o(i.MsgPushCmd_GpsRawData) for MsgPushCmd_GpsRawData
    psdk_msg_subcribe.o(.constdata) refers to psdk_msg_subcribe.o(i.MsgPushCmd_RtkRawData) for MsgPushCmd_RtkRawData
    psdk_payload_camera.o(i.CameraCmd_FormatSDCard) refers to psdk_proto.o(i.PsdkProto_SendAckData) for PsdkProto_SendAckData
    psdk_payload_camera.o(i.CameraCmd_FormatSDCard) refers to psdk_payload_camera.o(.bss) for s_cameraHandler
    psdk_payload_camera.o(i.CameraCmd_GetDigitalZoomFactor) refers to psdk_proto.o(i.PsdkProto_SendAckData) for PsdkProto_SendAckData
    psdk_payload_camera.o(i.CameraCmd_GetDigitalZoomFactor) refers to psdk_payload_camera.o(.bss) for s_cameraHandler
    psdk_payload_camera.o(i.CameraCmd_GetDigitalZoomSpec) refers to psdk_proto.o(i.PsdkProto_SendAckData) for PsdkProto_SendAckData
    psdk_payload_camera.o(i.CameraCmd_GetDigitalZoomSpec) refers to psdk_payload_camera.o(.bss) for s_cameraHandler
    psdk_payload_camera.o(i.CameraCmd_GetFocusAssistantSettings) refers to psdk_proto.o(i.PsdkProto_SendAckData) for PsdkProto_SendAckData
    psdk_payload_camera.o(i.CameraCmd_GetFocusAssistantSettings) refers to psdk_payload_camera.o(.bss) for s_cameraHandler
    psdk_payload_camera.o(i.CameraCmd_GetFocusMode) refers to psdk_proto.o(i.PsdkProto_SendAckData) for PsdkProto_SendAckData
    psdk_payload_camera.o(i.CameraCmd_GetFocusMode) refers to psdk_payload_camera.o(.bss) for s_cameraHandler
    psdk_payload_camera.o(i.CameraCmd_GetFocusRingValue) refers to psdk_proto.o(i.PsdkProto_SendAckData) for PsdkProto_SendAckData
    psdk_payload_camera.o(i.CameraCmd_GetFocusRingValue) refers to psdk_payload_camera.o(.bss) for s_cameraHandler
    psdk_payload_camera.o(i.CameraCmd_GetFocusRingValueUpperBound) refers to psdk_proto.o(i.PsdkProto_SendAckData) for PsdkProto_SendAckData
    psdk_payload_camera.o(i.CameraCmd_GetFocusRingValueUpperBound) refers to psdk_payload_camera.o(.bss) for s_cameraHandler
    psdk_payload_camera.o(i.CameraCmd_GetFocusZone) refers to psdk_proto.o(i.PsdkProto_SendAckData) for PsdkProto_SendAckData
    psdk_payload_camera.o(i.CameraCmd_GetFocusZone) refers to psdk_payload_camera.o(.bss) for s_cameraHandler
    psdk_payload_camera.o(i.CameraCmd_GetMeteringMode) refers to psdk_proto.o(i.PsdkProto_SendAckData) for PsdkProto_SendAckData
    psdk_payload_camera.o(i.CameraCmd_GetMeteringMode) refers to psdk_payload_camera.o(.bss) for s_cameraHandler
    psdk_payload_camera.o(i.CameraCmd_GetMode) refers to psdk_proto.o(i.PsdkProto_SendAckData) for PsdkProto_SendAckData
    psdk_payload_camera.o(i.CameraCmd_GetMode) refers to psdk_payload_camera.o(.bss) for s_cameraHandler
    psdk_payload_camera.o(i.CameraCmd_GetOpticalZoomFactor) refers to psdk_proto.o(i.PsdkProto_SendAckData) for PsdkProto_SendAckData
    psdk_payload_camera.o(i.CameraCmd_GetOpticalZoomFactor) refers to psdk_payload_camera.o(.bss) for s_cameraHandler
    psdk_payload_camera.o(i.CameraCmd_GetOpticalZoomFocalLength) refers to psdk_proto.o(i.PsdkProto_SendAckData) for PsdkProto_SendAckData
    psdk_payload_camera.o(i.CameraCmd_GetOpticalZoomFocalLength) refers to psdk_payload_camera.o(.bss) for s_cameraHandler
    psdk_payload_camera.o(i.CameraCmd_GetOpticalZoomSpec) refers to psdk_proto.o(i.PsdkProto_SendAckData) for PsdkProto_SendAckData
    psdk_payload_camera.o(i.CameraCmd_GetOpticalZoomSpec) refers to psdk_payload_camera.o(.bss) for s_cameraHandler
    psdk_payload_camera.o(i.CameraCmd_GetRecordVideoState) refers to psdk_proto.o(i.PsdkProto_SendAckData) for PsdkProto_SendAckData
    psdk_payload_camera.o(i.CameraCmd_GetRecordVideoState) refers to psdk_payload_camera.o(.bss) for s_cameraHandler
    psdk_payload_camera.o(i.CameraCmd_GetSDCardState) refers to psdk_proto.o(i.PsdkProto_SendAckData) for PsdkProto_SendAckData
    psdk_payload_camera.o(i.CameraCmd_GetSDCardState) refers to psdk_payload_camera.o(.bss) for s_cameraHandler
    psdk_payload_camera.o(i.CameraCmd_GetShootPhotoMode) refers to psdk_proto.o(i.PsdkProto_SendAckData) for PsdkProto_SendAckData
    psdk_payload_camera.o(i.CameraCmd_GetShootPhotoMode) refers to psdk_payload_camera.o(.bss) for s_cameraHandler
    psdk_payload_camera.o(i.CameraCmd_GetShootPhotoState) refers to psdk_proto.o(i.PsdkProto_SendAckData) for PsdkProto_SendAckData
    psdk_payload_camera.o(i.CameraCmd_GetShootPhotoState) refers to psdk_payload_camera.o(.bss) for s_cameraHandler
    psdk_payload_camera.o(i.CameraCmd_GetSpotMetering) refers to psdk_proto.o(i.PsdkProto_SendAckData) for PsdkProto_SendAckData
    psdk_payload_camera.o(i.CameraCmd_GetSpotMetering) refers to psdk_payload_camera.o(.bss) for s_cameraHandler
    psdk_payload_camera.o(i.CameraCmd_RecordVideo) refers to psdk_proto.o(i.PsdkProto_SendAckData) for PsdkProto_SendAckData
    psdk_payload_camera.o(i.CameraCmd_RecordVideo) refers to psdk_payload_camera.o(.bss) for s_cameraHandler
    psdk_payload_camera.o(i.CameraCmd_SetDigitalZoomFactor) refers to psdk_proto.o(i.PsdkProto_SendAckData) for PsdkProto_SendAckData
    psdk_payload_camera.o(i.CameraCmd_SetDigitalZoomFactor) refers to psdk_payload_camera.o(.bss) for s_cameraHandler
    psdk_payload_camera.o(i.CameraCmd_SetFocusAssistantSettings) refers to psdk_proto.o(i.PsdkProto_SendAckData) for PsdkProto_SendAckData
    psdk_payload_camera.o(i.CameraCmd_SetFocusAssistantSettings) refers to psdk_payload_camera.o(.bss) for s_cameraHandler
    psdk_payload_camera.o(i.CameraCmd_SetFocusMode) refers to psdk_proto.o(i.PsdkProto_SendAckData) for PsdkProto_SendAckData
    psdk_payload_camera.o(i.CameraCmd_SetFocusMode) refers to psdk_payload_camera.o(.bss) for s_cameraHandler
    psdk_payload_camera.o(i.CameraCmd_SetFocusRingValue) refers to psdk_proto.o(i.PsdkProto_SendAckData) for PsdkProto_SendAckData
    psdk_payload_camera.o(i.CameraCmd_SetFocusRingValue) refers to psdk_payload_camera.o(.bss) for s_cameraHandler
    psdk_payload_camera.o(i.CameraCmd_SetFocusZone) refers to psdk_proto.o(i.PsdkProto_SendAckData) for PsdkProto_SendAckData
    psdk_payload_camera.o(i.CameraCmd_SetFocusZone) refers to psdk_payload_camera.o(.bss) for s_cameraHandler
    psdk_payload_camera.o(i.CameraCmd_SetMeteringMode) refers to psdk_proto.o(i.PsdkProto_SendAckData) for PsdkProto_SendAckData
    psdk_payload_camera.o(i.CameraCmd_SetMeteringMode) refers to psdk_payload_camera.o(.bss) for s_cameraHandler
    psdk_payload_camera.o(i.CameraCmd_SetMode) refers to psdk_proto.o(i.PsdkProto_SendAckData) for PsdkProto_SendAckData
    psdk_payload_camera.o(i.CameraCmd_SetMode) refers to psdk_payload_camera.o(.bss) for s_cameraHandler
    psdk_payload_camera.o(i.CameraCmd_SetOpticalZoomFocalLength) refers to psdk_proto.o(i.PsdkProto_SendAckData) for PsdkProto_SendAckData
    psdk_payload_camera.o(i.CameraCmd_SetOpticalZoomFocalLength) refers to psdk_payload_camera.o(.bss) for s_cameraHandler
    psdk_payload_camera.o(i.CameraCmd_SetShootPhotoMode) refers to psdk_proto.o(i.PsdkProto_SendAckData) for PsdkProto_SendAckData
    psdk_payload_camera.o(i.CameraCmd_SetShootPhotoMode) refers to psdk_payload_camera.o(.bss) for s_cameraHandler
    psdk_payload_camera.o(i.CameraCmd_SetSpotMetering) refers to psdk_proto.o(i.PsdkProto_SendAckData) for PsdkProto_SendAckData
    psdk_payload_camera.o(i.CameraCmd_SetSpotMetering) refers to psdk_payload_camera.o(.bss) for s_cameraHandler
    psdk_payload_camera.o(i.CameraCmd_ShootPhoto) refers to psdk_proto.o(i.PsdkProto_SendAckData) for PsdkProto_SendAckData
    psdk_payload_camera.o(i.CameraCmd_ShootPhoto) refers to psdk_payload_camera.o(.bss) for s_cameraHandler
    psdk_payload_camera.o(i.CameraCmd_StartContinuousOpticalZoom) refers to psdk_proto.o(i.PsdkProto_SendAckData) for PsdkProto_SendAckData
    psdk_payload_camera.o(i.CameraCmd_StartContinuousOpticalZoom) refers to psdk_payload_camera.o(.bss) for s_cameraHandler
    psdk_payload_camera.o(i.CameraCmd_StopContinuousOpticalZoom) refers to psdk_proto.o(i.PsdkProto_SendAckData) for PsdkProto_SendAckData
    psdk_payload_camera.o(i.CameraCmd_StopContinuousOpticalZoom) refers to psdk_payload_camera.o(.bss) for s_cameraHandler
    psdk_payload_camera.o(i.CameraCmd_SupportState) refers to psdk_proto.o(i.PsdkProto_SendAckData) for PsdkProto_SendAckData
    psdk_payload_camera.o(i.CameraCmd_SupportState) refers to psdk_payload_camera.o(.data) for s_isSupportCamera
    psdk_payload_camera.o(i.CameraCmd_SupportState) refers to psdk_payload_camera.o(.bss) for s_cameraHandler
    psdk_payload_camera.o(i.PsdkCamera_Init) refers to rt_memcpy_w.o(.text) for __aeabi_memcpy4
    psdk_payload_camera.o(i.PsdkCamera_Init) refers to psdk_proto.o(i.PsdkProto_RegCmdSetHandler) for PsdkProto_RegCmdSetHandler
    psdk_payload_camera.o(i.PsdkCamera_Init) refers to psdk_payload_camera.o(.bss) for s_cameraHandler
    psdk_payload_camera.o(i.PsdkCamera_Init) refers to psdk_payload_camera.o(.constdata) for s_PayloadCameraCmdList
    psdk_payload_camera.o(i.PsdkCamera_Init) refers to psdk_payload_camera.o(.data) for s_isSupportCamera
    psdk_payload_camera.o(.constdata) refers to psdk_payload_camera.o(i.CameraCmd_SupportState) for CameraCmd_SupportState
    psdk_payload_camera.o(.constdata) refers to psdk_payload_camera.o(i.CameraCmd_SetMode) for CameraCmd_SetMode
    psdk_payload_camera.o(.constdata) refers to psdk_payload_camera.o(i.CameraCmd_GetMode) for CameraCmd_GetMode
    psdk_payload_camera.o(.constdata) refers to psdk_payload_camera.o(i.CameraCmd_ShootPhoto) for CameraCmd_ShootPhoto
    psdk_payload_camera.o(.constdata) refers to psdk_payload_camera.o(i.CameraCmd_GetShootPhotoState) for CameraCmd_GetShootPhotoState
    psdk_payload_camera.o(.constdata) refers to psdk_payload_camera.o(i.CameraCmd_SetShootPhotoMode) for CameraCmd_SetShootPhotoMode
    psdk_payload_camera.o(.constdata) refers to psdk_payload_camera.o(i.CameraCmd_GetShootPhotoMode) for CameraCmd_GetShootPhotoMode
    psdk_payload_camera.o(.constdata) refers to psdk_payload_camera.o(i.CameraCmd_RecordVideo) for CameraCmd_RecordVideo
    psdk_payload_camera.o(.constdata) refers to psdk_payload_camera.o(i.CameraCmd_GetRecordVideoState) for CameraCmd_GetRecordVideoState
    psdk_payload_camera.o(.constdata) refers to psdk_payload_camera.o(i.CameraCmd_GetSDCardState) for CameraCmd_GetSDCardState
    psdk_payload_camera.o(.constdata) refers to psdk_payload_camera.o(i.CameraCmd_FormatSDCard) for CameraCmd_FormatSDCard
    psdk_payload_camera.o(.constdata) refers to psdk_payload_camera.o(i.CameraCmd_SetMeteringMode) for CameraCmd_SetMeteringMode
    psdk_payload_camera.o(.constdata) refers to psdk_payload_camera.o(i.CameraCmd_GetMeteringMode) for CameraCmd_GetMeteringMode
    psdk_payload_camera.o(.constdata) refers to psdk_payload_camera.o(i.CameraCmd_SetSpotMetering) for CameraCmd_SetSpotMetering
    psdk_payload_camera.o(.constdata) refers to psdk_payload_camera.o(i.CameraCmd_GetSpotMetering) for CameraCmd_GetSpotMetering
    psdk_payload_camera.o(.constdata) refers to psdk_payload_camera.o(i.CameraCmd_SetFocusMode) for CameraCmd_SetFocusMode
    psdk_payload_camera.o(.constdata) refers to psdk_payload_camera.o(i.CameraCmd_GetFocusMode) for CameraCmd_GetFocusMode
    psdk_payload_camera.o(.constdata) refers to psdk_payload_camera.o(i.CameraCmd_SetFocusZone) for CameraCmd_SetFocusZone
    psdk_payload_camera.o(.constdata) refers to psdk_payload_camera.o(i.CameraCmd_GetFocusZone) for CameraCmd_GetFocusZone
    psdk_payload_camera.o(.constdata) refers to psdk_payload_camera.o(i.CameraCmd_SetFocusAssistantSettings) for CameraCmd_SetFocusAssistantSettings
    psdk_payload_camera.o(.constdata) refers to psdk_payload_camera.o(i.CameraCmd_GetFocusAssistantSettings) for CameraCmd_GetFocusAssistantSettings
    psdk_payload_camera.o(.constdata) refers to psdk_payload_camera.o(i.CameraCmd_GetFocusRingValueUpperBound) for CameraCmd_GetFocusRingValueUpperBound
    psdk_payload_camera.o(.constdata) refers to psdk_payload_camera.o(i.CameraCmd_SetFocusRingValue) for CameraCmd_SetFocusRingValue
    psdk_payload_camera.o(.constdata) refers to psdk_payload_camera.o(i.CameraCmd_GetFocusRingValue) for CameraCmd_GetFocusRingValue
    psdk_payload_camera.o(.constdata) refers to psdk_payload_camera.o(i.CameraCmd_GetDigitalZoomSpec) for CameraCmd_GetDigitalZoomSpec
    psdk_payload_camera.o(.constdata) refers to psdk_payload_camera.o(i.CameraCmd_SetDigitalZoomFactor) for CameraCmd_SetDigitalZoomFactor
    psdk_payload_camera.o(.constdata) refers to psdk_payload_camera.o(i.CameraCmd_GetDigitalZoomFactor) for CameraCmd_GetDigitalZoomFactor
    psdk_payload_camera.o(.constdata) refers to psdk_payload_camera.o(i.CameraCmd_GetOpticalZoomSpec) for CameraCmd_GetOpticalZoomSpec
    psdk_payload_camera.o(.constdata) refers to psdk_payload_camera.o(i.CameraCmd_SetOpticalZoomFocalLength) for CameraCmd_SetOpticalZoomFocalLength
    psdk_payload_camera.o(.constdata) refers to psdk_payload_camera.o(i.CameraCmd_GetOpticalZoomFocalLength) for CameraCmd_GetOpticalZoomFocalLength
    psdk_payload_camera.o(.constdata) refers to psdk_payload_camera.o(i.CameraCmd_GetOpticalZoomFactor) for CameraCmd_GetOpticalZoomFactor
    psdk_payload_camera.o(.constdata) refers to psdk_payload_camera.o(i.CameraCmd_StartContinuousOpticalZoom) for CameraCmd_StartContinuousOpticalZoom
    psdk_payload_camera.o(.constdata) refers to psdk_payload_camera.o(i.CameraCmd_StopContinuousOpticalZoom) for CameraCmd_StopContinuousOpticalZoom
    psdk_payload_gimbal.o(i.GimbalCmd_ControlSpeed) refers to psdk_proto.o(i.PsdkProto_SendAckData) for PsdkProto_SendAckData
    psdk_payload_gimbal.o(i.GimbalCmd_ControlSpeed) refers to psdk_payload_gimbal.o(.bss) for s_gimbalHandler
    psdk_payload_gimbal.o(i.GimbalCmd_GetGimbalState) refers to psdk_proto.o(i.PsdkProto_SendAckData) for PsdkProto_SendAckData
    psdk_payload_gimbal.o(i.GimbalCmd_GetGimbalState) refers to psdk_payload_gimbal.o(.bss) for s_gimbalHandler
    psdk_payload_gimbal.o(i.GimbalCmd_ReturnHead) refers to psdk_proto.o(i.PsdkProto_SendAckData) for PsdkProto_SendAckData
    psdk_payload_gimbal.o(i.GimbalCmd_ReturnHead) refers to psdk_payload_gimbal.o(.bss) for s_gimbalHandler
    psdk_payload_gimbal.o(i.GimbalCmd_SetGimbalMode) refers to psdk_proto.o(i.PsdkProto_SendAckData) for PsdkProto_SendAckData
    psdk_payload_gimbal.o(i.GimbalCmd_SetGimbalMode) refers to psdk_payload_gimbal.o(.bss) for s_gimbalHandler
    psdk_payload_gimbal.o(i.GimbalCmd_StartCalibration) refers to psdk_proto.o(i.PsdkProto_SendAckData) for PsdkProto_SendAckData
    psdk_payload_gimbal.o(i.GimbalCmd_StartCalibration) refers to psdk_payload_gimbal.o(.bss) for s_gimbalHandler
    psdk_payload_gimbal.o(i.GimbalCmd_SupportState) refers to psdk_proto.o(i.PsdkProto_SendAckData) for PsdkProto_SendAckData
    psdk_payload_gimbal.o(i.GimbalCmd_SupportState) refers to psdk_payload_gimbal.o(.data) for s_isSupportGimbal
    psdk_payload_gimbal.o(i.PsdkGimbal_Init) refers to rt_memcpy_w.o(.text) for __aeabi_memcpy4
    psdk_payload_gimbal.o(i.PsdkGimbal_Init) refers to psdk_proto.o(i.PsdkProto_RegCmdSetHandler) for PsdkProto_RegCmdSetHandler
    psdk_payload_gimbal.o(i.PsdkGimbal_Init) refers to psdk_payload_gimbal.o(.bss) for s_gimbalHandler
    psdk_payload_gimbal.o(i.PsdkGimbal_Init) refers to psdk_payload_gimbal.o(.constdata) for s_PayloadGimbalCmdList
    psdk_payload_gimbal.o(i.PsdkGimbal_Init) refers to psdk_payload_gimbal.o(.data) for s_isSupportGimbal
    psdk_payload_gimbal.o(.constdata) refers to psdk_payload_gimbal.o(i.GimbalCmd_GetGimbalState) for GimbalCmd_GetGimbalState
    psdk_payload_gimbal.o(.constdata) refers to psdk_payload_gimbal.o(i.GimbalCmd_SetGimbalMode) for GimbalCmd_SetGimbalMode
    psdk_payload_gimbal.o(.constdata) refers to psdk_payload_gimbal.o(i.GimbalCmd_ReturnHead) for GimbalCmd_ReturnHead
    psdk_payload_gimbal.o(.constdata) refers to psdk_payload_gimbal.o(i.GimbalCmd_ControlSpeed) for GimbalCmd_ControlSpeed
    psdk_payload_gimbal.o(.constdata) refers to psdk_payload_gimbal.o(i.GimbalCmd_StartCalibration) for GimbalCmd_StartCalibration
    psdk_payload_gimbal.o(.constdata) refers to psdk_payload_gimbal.o(i.GimbalCmd_SupportState) for GimbalCmd_SupportState
    psdk_upper.o(i.PsdkPayloadStateCmd_GetPayloadProductAlias) refers to rt_memcpy_v6.o(.text) for __aeabi_memcpy
    psdk_upper.o(i.PsdkPayloadStateCmd_GetPayloadProductAlias) refers to psdk_proto.o(i.PsdkProto_SendAckData) for PsdkProto_SendAckData
    psdk_upper.o(i.PsdkPayloadStateCmd_GetPayloadProductAlias) refers to psdk_upper.o(.bss) for s_customInfo
    psdk_upper.o(i.PsdkPayloadStateCmd_GetPayloadProductInfo) refers to rt_memcpy_v6.o(.text) for __aeabi_memcpy
    psdk_upper.o(i.PsdkPayloadStateCmd_GetPayloadProductInfo) refers to psdk_proto.o(i.PsdkProto_SendAckData) for PsdkProto_SendAckData
    psdk_upper.o(i.PsdkPayloadStateCmd_GetPayloadProductInfo) refers to psdk_upper.o(.bss) for s_userInfo
    psdk_upper.o(i.PsdkPayloadStateCmd_GetSkyportVersionInfo) refers to psdk_proto.o(i.PsdkProto_SendAckData) for PsdkProto_SendAckData
    psdk_upper.o(i.PsdkPayloadStateCmd_GetSkyportVersionInfo) refers to psdk_upper.o(.data) for s_fixSkyport
    psdk_upper.o(i.PsdkPayloadStateCmd_GetVersion) refers to psdk_proto.o(i.PsdkProto_SendAckData) for PsdkProto_SendAckData
    psdk_upper.o(i.PsdkPayloadStateCmd_IdentityVerify) refers to strlen.o(.text) for strlen
    psdk_upper.o(i.PsdkPayloadStateCmd_IdentityVerify) refers to psdk_upper.o(i.Str_PutStrToBuff) for Str_PutStrToBuff
    psdk_upper.o(i.PsdkPayloadStateCmd_IdentityVerify) refers to psdk_md5.o(i.md5_init) for md5_init
    psdk_upper.o(i.PsdkPayloadStateCmd_IdentityVerify) refers to psdk_md5.o(i.md5_update) for md5_update
    psdk_upper.o(i.PsdkPayloadStateCmd_IdentityVerify) refers to psdk_md5.o(i.md5_final) for md5_final
    psdk_upper.o(i.PsdkPayloadStateCmd_IdentityVerify) refers to psdk_proto.o(i.PsdkProto_SendAckData) for PsdkProto_SendAckData
    psdk_upper.o(i.PsdkPayloadStateCmd_IdentityVerify) refers to psdk_upper.o(.bss) for s_userInfo
    psdk_upper.o(i.PsdkPayloadStateCmd_LinkHandShake) refers to rt_memcpy_v6.o(.text) for __aeabi_memcpy
    psdk_upper.o(i.PsdkPayloadStateCmd_LinkHandShake) refers to psdk_proto.o(i.PsdkProto_SendAckData) for PsdkProto_SendAckData
    psdk_upper.o(i.PsdkProtoUpper_CalTransferKey) refers to strlen.o(.text) for strlen
    psdk_upper.o(i.PsdkProtoUpper_CalTransferKey) refers to h1_alloc.o(.text) for malloc
    psdk_upper.o(i.PsdkProtoUpper_CalTransferKey) refers to rt_memcpy_v6.o(.text) for __aeabi_memcpy
    psdk_upper.o(i.PsdkProtoUpper_CalTransferKey) refers to psdk_md5.o(i.md5_init) for md5_init
    psdk_upper.o(i.PsdkProtoUpper_CalTransferKey) refers to psdk_md5.o(i.md5_update) for md5_update
    psdk_upper.o(i.PsdkProtoUpper_CalTransferKey) refers to psdk_md5.o(i.md5_final) for md5_final
    psdk_upper.o(i.PsdkProtoUpper_CalTransferKey) refers to h1_free.o(.text) for free
    psdk_upper.o(i.PsdkUpper_Init) refers to rt_memcpy_v6.o(.text) for __aeabi_memcpy
    psdk_upper.o(i.PsdkUpper_Init) refers to psdk_upper.o(i.PsdkProtoUpper_CalTransferKey) for PsdkProtoUpper_CalTransferKey
    psdk_upper.o(i.PsdkUpper_Init) refers to psdk_proto.o(i.PsdkProto_Init) for PsdkProto_Init
    psdk_upper.o(i.PsdkUpper_Init) refers to psdk_proto.o(i.PsdkProto_RegCmdSetHandler) for PsdkProto_RegCmdSetHandler
    psdk_upper.o(i.PsdkUpper_Init) refers to psdk_upper.o(.bss) for s_userInfo
    psdk_upper.o(i.PsdkUpper_Init) refers to psdk_upper.o(.constdata) for s_payloadStateProtCmdList
    psdk_upper.o(i.PsdkUpper_ProcessReceiveData) refers to psdk_proto.o(i.PsdkProto_ProcessReceiveData) for PsdkProto_ProcessReceiveData
    psdk_upper.o(i.PsdkUpper_RegSendFunction) refers to psdk_proto.o(i.PsdkProto_RegSendDataFunc) for PsdkProto_RegSendDataFunc
    psdk_upper.o(i.PsdkUpper_SetFixVersion) refers to psdk_upper.o(.data) for s_fixSkyport
    psdk_upper.o(i.PsdkUpper_SetProductAlias) refers to rt_memcpy_v6.o(.text) for __aeabi_memcpy
    psdk_upper.o(i.PsdkUpper_SetProductAlias) refers to psdk_upper.o(.bss) for s_customInfo
    psdk_upper.o(i.Str_PutStrToBuff) refers to strlen.o(.text) for strlen
    psdk_upper.o(i.Str_PutStrToBuff) refers to rt_memcpy_v6.o(.text) for __aeabi_memcpy
    psdk_upper.o(.constdata) refers to psdk_upper.o(i.PsdkPayloadStateCmd_IdentityVerify) for PsdkPayloadStateCmd_IdentityVerify
    psdk_upper.o(.constdata) refers to psdk_upper.o(i.PsdkPayloadStateCmd_GetVersion) for PsdkPayloadStateCmd_GetVersion
    psdk_upper.o(.constdata) refers to psdk_upper.o(i.PsdkPayloadStateCmd_LinkHandShake) for PsdkPayloadStateCmd_LinkHandShake
    psdk_upper.o(.constdata) refers to psdk_upper.o(i.PsdkPayloadStateCmd_GetPayloadProductInfo) for PsdkPayloadStateCmd_GetPayloadProductInfo
    psdk_upper.o(.constdata) refers to psdk_upper.o(i.PsdkPayloadStateCmd_GetSkyportVersionInfo) for PsdkPayloadStateCmd_GetSkyportVersionInfo
    psdk_upper.o(.constdata) refers to psdk_upper.o(i.PsdkPayloadStateCmd_GetPayloadProductAlias) for PsdkPayloadStateCmd_GetPayloadProductAlias
    test_app_func.o(i.Test_GetWidgetValueFunc) refers to test_app_func.o(.data) for switch1Val
    test_app_func.o(i.Test_ReceiveFromMobileSDKFunc) refers to rt_memcpy_v6.o(.text) for __aeabi_memcpy
    test_app_func.o(i.Test_ReceiveFromMobileSDKFunc) refers to log_printf.o(i.UART_Printf) for UART_Printf
    test_app_func.o(i.Test_ReceiveFromMobileSDKFunc) refers to test_app_func.o(.bss) for receivePrint
    test_app_func.o(i.Test_ReceiveFromMobileSDKFunc) refers to test_app_func.o(.constdata) for __FUNCTION__
    test_app_func.o(i.Test_SetWidgetValueFunc) refers to log_printf.o(i.UART_Printf) for UART_Printf
    test_app_func.o(i.Test_SetWidgetValueFunc) refers to test_app_func.o(.data) for g_TestWidgetList
    test_app_func.o(i.Test_SetWidgetValueFunc) refers to test_app_func.o(.constdata) for __FUNCTION__
    test_app_func.o(i.Test_SetWidgetValueFunc) refers to motordriver.o(.data) for Motor_Run_flag
    test_app_func.o(.constdata) refers to test_app_func.o(.conststring) for .conststring
    test_app_func.o(.data) refers to test_app_func.o(.constdata) for s_TestWidgetList
    test_msg_push.o(.constdata) refers to test_msg_push.o(i.bandWidthMsgCallback) for bandWidthMsgCallback
    test_msg_push.o(.constdata) refers to test_msg_push.o(i.uavAttitudeMsgCallback) for uavAttitudeMsgCallback
    test_msg_push.o(.constdata) refers to test_msg_push.o(i.batteryInfoMsgCallback) for batteryInfoMsgCallback
    test_msg_push.o(.constdata) refers to test_msg_push.o(i.gpsInfoMsgCallback) for gpsInfoMsgCallback
    test_msg_push.o(.constdata) refers to test_msg_push.o(i.uavStateMsgCallback) for uavStateMsgCallback
    test_msg_push.o(.constdata) refers to test_msg_push.o(i.appDateTimeMsgCallback) for appDateTimeMsgCallback
    test_msg_push.o(.constdata) refers to test_msg_push.o(i.baroHeightDataMsgCallback) for baroHeightDataMsgCallback
    test_msg_push.o(.constdata) refers to test_msg_push.o(i.gpsRawDataMsgCallback) for gpsRawDataMsgCallback
    test_msg_push.o(.constdata) refers to test_msg_push.o(i.rtkRawDataMsgCallback) for rtkRawDataMsgCallback
    test_payload_gimbal_emu.o(i.GimbalEmu_ControlSpeed) refers to log_printf.o(i.UART_Printf) for UART_Printf
    test_payload_gimbal_emu.o(i.GimbalEmu_ControlSpeed) refers to stm32f10x_gpio.o(i.GPIO_ReadOutputDataBit) for GPIO_ReadOutputDataBit
    test_payload_gimbal_emu.o(i.GimbalEmu_ControlSpeed) refers to stm32f10x_gpio.o(i.GPIO_WriteBit) for GPIO_WriteBit
    test_payload_gimbal_emu.o(i.GimbalEmu_ControlSpeed) refers to test_payload_gimbal_emu.o(.constdata) for __FUNCTION__
    test_payload_gimbal_emu.o(i.GimbalEmu_ControlSpeed) refers to test_payload_gimbal_emu.o(.data) for pitchSpeed
    test_payload_gimbal_emu.o(i.GimbalEmu_GetGimbalParam) refers to dflt_clz.o(x$fpl$dflt) for __aeabi_i2d
    test_payload_gimbal_emu.o(i.GimbalEmu_GetGimbalParam) refers to dmul.o(x$fpl$dmul) for __aeabi_dmul
    test_payload_gimbal_emu.o(i.GimbalEmu_GetGimbalParam) refers to daddsub_clz.o(x$fpl$dadd) for __aeabi_dadd
    test_payload_gimbal_emu.o(i.GimbalEmu_GetGimbalParam) refers to dfix.o(x$fpl$dfix) for __aeabi_d2iz
    test_payload_gimbal_emu.o(i.GimbalEmu_GetGimbalParam) refers to test_payload_gimbal_emu.o(.data) for gimbalMode
    test_payload_gimbal_emu.o(i.GimbalEmu_ReturnHead) refers to log_printf.o(i.UART_Printf) for UART_Printf
    test_payload_gimbal_emu.o(i.GimbalEmu_ReturnHead) refers to test_payload_gimbal_emu.o(.constdata) for __FUNCTION__
    test_payload_gimbal_emu.o(i.GimbalEmu_ReturnHead) refers to test_payload_gimbal_emu.o(.data) for pitch
    test_payload_gimbal_emu.o(i.GimbalEmu_SetGimbalMode) refers to log_printf.o(i.UART_Printf) for UART_Printf
    test_payload_gimbal_emu.o(i.GimbalEmu_SetGimbalMode) refers to test_payload_gimbal_emu.o(.constdata) for __FUNCTION__
    test_payload_gimbal_emu.o(i.GimbalEmu_SetGimbalMode) refers to test_payload_gimbal_emu.o(.data) for gimbalMode
    test_payload_gimbal_emu.o(i.GimbalEmu_StartCalibration) refers to log_printf.o(i.UART_Printf) for UART_Printf
    test_payload_gimbal_emu.o(i.GimbalEmu_StartCalibration) refers to test_payload_gimbal_emu.o(.constdata) for __FUNCTION__
    test_payload_gimbal_emu.o(.constdata) refers to test_payload_gimbal_emu.o(i.GimbalEmu_GetGimbalParam) for GimbalEmu_GetGimbalParam
    test_payload_gimbal_emu.o(.constdata) refers to test_payload_gimbal_emu.o(i.GimbalEmu_SetGimbalMode) for GimbalEmu_SetGimbalMode
    test_payload_gimbal_emu.o(.constdata) refers to test_payload_gimbal_emu.o(i.GimbalEmu_ReturnHead) for GimbalEmu_ReturnHead
    test_payload_gimbal_emu.o(.constdata) refers to test_payload_gimbal_emu.o(i.GimbalEmu_ControlSpeed) for GimbalEmu_ControlSpeed
    test_payload_gimbal_emu.o(.constdata) refers to test_payload_gimbal_emu.o(i.GimbalEmu_StartCalibration) for GimbalEmu_StartCalibration
    startup_stm32f10x_md.o(STACK) refers (Special) to heapauxi.o(.text) for __use_two_region_memory
    startup_stm32f10x_md.o(HEAP) refers (Special) to heapauxi.o(.text) for __use_two_region_memory
    startup_stm32f10x_md.o(RESET) refers (Special) to heapauxi.o(.text) for __use_two_region_memory
    startup_stm32f10x_md.o(RESET) refers to startup_stm32f10x_md.o(STACK) for __initial_sp
    startup_stm32f10x_md.o(RESET) refers to startup_stm32f10x_md.o(.text) for Reset_Handler
    startup_stm32f10x_md.o(RESET) refers to motordriver.o(i.TIM4_IRQHandler) for TIM4_IRQHandler
    startup_stm32f10x_md.o(RESET) refers to uart.o(i.USART1_IRQHandler) for USART1_IRQHandler
    startup_stm32f10x_md.o(RESET) refers to uart.o(i.USART2_IRQHandler) for USART2_IRQHandler
    startup_stm32f10x_md.o(RESET) refers to uart.o(i.USART3_IRQHandler) for USART3_IRQHandler
    startup_stm32f10x_md.o(.text) refers (Special) to heapauxi.o(.text) for __use_two_region_memory
    startup_stm32f10x_md.o(.text) refers to system_stm32f10x.o(i.SystemInit) for SystemInit
    startup_stm32f10x_md.o(.text) refers to __main.o(!!!main) for __main
    startup_stm32f10x_md.o(.text) refers to startup_stm32f10x_md.o(HEAP) for Heap_Mem
    startup_stm32f10x_md.o(.text) refers to startup_stm32f10x_md.o(STACK) for Stack_Mem
    system_stm32f10x.o(i.SetSysClock) refers to system_stm32f10x.o(i.SetSysClockTo72) for SetSysClockTo72
    system_stm32f10x.o(i.SystemCoreClockUpdate) refers to system_stm32f10x.o(.data) for SystemCoreClock
    system_stm32f10x.o(i.SystemInit) refers to system_stm32f10x.o(i.SetSysClock) for SetSysClock
    malloc.o(.text) refers (Special) to hguard.o(.text) for __heap$guard
    malloc.o(.text) refers (Special) to init_alloc.o(.text) for _init_alloc
    malloc.o(.text) refers to rt_heap_descriptor_intlibspace.o(.text) for __rt_heap_descriptor
    malloc.o(.text) refers to heapstubs.o(.text) for __Heap_Alloc
    free.o(.text) refers (Special) to hguard.o(.text) for __heap$guard
    free.o(.text) refers to rt_heap_descriptor_intlibspace.o(.text) for __rt_heap_descriptor
    free.o(.text) refers to heapstubs.o(.text) for __Heap_Free
    h1_alloc.o(.text) refers (Special) to h1_init.o(.text) for __Heap_Initialize
    h1_alloc.o(.text) refers to rt_heap_descriptor_intlibspace.o(.text) for __rt_heap_descriptor
    h1_alloc.o(.text) refers to init_alloc.o(.text) for __Heap_Full
    h1_free.o(.text) refers to rt_heap_descriptor_intlibspace.o(.text) for __rt_heap_descriptor
    h1_alloc_mt.o(.text) refers (Special) to h1_init.o(.text) for __Heap_Initialize
    h1_alloc_mt.o(.text) refers to init_alloc.o(.text) for __Heap_Full
    h1_alloc_mt.o(.text) refers to rt_heap_descriptor_intlibspace.o(.text) for __rt_heap_descriptor
    h1_free_mt.o(.text) refers to rt_heap_descriptor_intlibspace.o(.text) for __rt_heap_descriptor
    heap2.o(i._FDIterate) refers to heap2.o(.conststring) for .conststring
    heap2.o(i.___Heap_ProvideMemory$realtime) refers to fdtree.o(i._FDTree_Delete) for _FDTree_Delete
    heap2.o(i.___Heap_ProvideMemory$realtime) refers to fdtree.o(i._FDTree_Insert) for _FDTree_Insert
    heap2.o(i.___Heap_Stats$realtime) refers to heap2.o(i._Heap2_StatsIterate) for _Heap2_StatsIterate
    heap2.o(i.___Heap_Valid$realtime) refers to heap2.o(i._FDIterate) for _FDIterate
    heap2.o(i.___Heap_Valid$realtime) refers to heap2.o(.conststring) for .conststring
    heap2.o(i._free$realtime) refers to rt_heap_descriptor_intlibspace.o(.text) for __rt_heap_descriptor
    heap2.o(i._free$realtime) refers to fdtree.o(i._FDTree_Delete) for _FDTree_Delete
    heap2.o(i._free$realtime) refers to fdtree.o(i._FDTree_Insert) for _FDTree_Insert
    heap2.o(i._malloc$realtime) refers to rt_heap_descriptor_intlibspace.o(.text) for __rt_heap_descriptor
    heap2.o(i._malloc$realtime) refers to fdtree.o(i._FDTree_FindFirst) for _FDTree_FindFirst
    heap2.o(i._malloc$realtime) refers to init_alloc.o(.text) for __Heap_Full
    heap2.o(i._malloc$realtime) refers to fdtree.o(i._FDTree_RemoveNode) for _FDTree_RemoveNode
    heap2.o(i._malloc$realtime) refers to fdtree.o(i._FDTree_Insert) for _FDTree_Insert
    heap2.o(i._posix_memalign$realtime) refers to rt_heap_descriptor_intlibspace.o(.text) for __rt_heap_descriptor
    heap2.o(i._posix_memalign$realtime) refers to fdtree.o(i._FDTree_FindFirst) for _FDTree_FindFirst
    heap2.o(i._posix_memalign$realtime) refers to init_alloc.o(.text) for __Heap_Full
    heap2.o(i._posix_memalign$realtime) refers to fdtree.o(i._FDTree_RemoveNode) for _FDTree_RemoveNode
    heap2.o(i._posix_memalign$realtime) refers to fdtree.o(i._FDTree_Insert) for _FDTree_Insert
    heap2.o(i._realloc$realtime) refers to rt_heap_descriptor_intlibspace.o(.text) for __rt_heap_descriptor
    heap2.o(i._realloc$realtime) refers to fdtree.o(i._FDTree_Insert) for _FDTree_Insert
    heap2.o(i._realloc$realtime) refers to h1_free.o(.text) for free
    heap2.o(i._realloc$realtime) refers to h1_alloc.o(.text) for malloc
    heap2.o(i._realloc$realtime) refers to fdtree.o(i._FDTree_Delete) for _FDTree_Delete
    heap2.o(i._realloc$realtime) refers to rt_memcpy_w.o(.text) for __aeabi_memcpy4
    heap2mt.o(i._FDIterate) refers to heap2mt.o(.conststring) for .conststring
    heap2mt.o(i.___Heap_Initialize$realtime$concurrent) refers to mutex_dummy.o(.text) for _mutex_initialize
    heap2mt.o(i.___Heap_ProvideMemory$realtime$concurrent) refers to fdtree.o(i._FDTree_Delete) for _FDTree_Delete
    heap2mt.o(i.___Heap_ProvideMemory$realtime$concurrent) refers to fdtree.o(i._FDTree_Insert) for _FDTree_Insert
    heap2mt.o(i.___Heap_Stats$realtime$concurrent) refers to heap2mt.o(i._Heap2_StatsIterate) for _Heap2_StatsIterate
    heap2mt.o(i.___Heap_Valid$realtime$concurrent) refers to heap2mt.o(i._FDIterate) for _FDIterate
    heap2mt.o(i.___Heap_Valid$realtime$concurrent) refers to heap2mt.o(.conststring) for .conststring
    heap2mt.o(i._free$realtime$concurrent) refers to rt_heap_descriptor_intlibspace.o(.text) for __rt_heap_descriptor
    heap2mt.o(i._free$realtime$concurrent) refers to fdtree.o(i._FDTree_Delete) for _FDTree_Delete
    heap2mt.o(i._free$realtime$concurrent) refers to fdtree.o(i._FDTree_Insert) for _FDTree_Insert
    heap2mt.o(i._malloc$realtime$concurrent) refers to rt_heap_descriptor_intlibspace.o(.text) for __rt_heap_descriptor
    heap2mt.o(i._malloc$realtime$concurrent) refers to fdtree.o(i._FDTree_FindFirst) for _FDTree_FindFirst
    heap2mt.o(i._malloc$realtime$concurrent) refers to init_alloc.o(.text) for __Heap_Full
    heap2mt.o(i._malloc$realtime$concurrent) refers to fdtree.o(i._FDTree_RemoveNode) for _FDTree_RemoveNode
    heap2mt.o(i._malloc$realtime$concurrent) refers to fdtree.o(i._FDTree_Insert) for _FDTree_Insert
    heap2mt.o(i._posix_memalign$realtime$concurrent) refers to rt_heap_descriptor_intlibspace.o(.text) for __rt_heap_descriptor
    heap2mt.o(i._posix_memalign$realtime$concurrent) refers to fdtree.o(i._FDTree_FindFirst) for _FDTree_FindFirst
    heap2mt.o(i._posix_memalign$realtime$concurrent) refers to init_alloc.o(.text) for __Heap_Full
    heap2mt.o(i._posix_memalign$realtime$concurrent) refers to fdtree.o(i._FDTree_RemoveNode) for _FDTree_RemoveNode
    heap2mt.o(i._posix_memalign$realtime$concurrent) refers to fdtree.o(i._FDTree_Insert) for _FDTree_Insert
    heap2mt.o(i._realloc$realtime$concurrent) refers to rt_heap_descriptor_intlibspace.o(.text) for __rt_heap_descriptor
    heap2mt.o(i._realloc$realtime$concurrent) refers to fdtree.o(i._FDTree_Insert) for _FDTree_Insert
    heap2mt.o(i._realloc$realtime$concurrent) refers to h1_free.o(.text) for free
    heap2mt.o(i._realloc$realtime$concurrent) refers to h1_alloc.o(.text) for malloc
    heap2mt.o(i._realloc$realtime$concurrent) refers to fdtree.o(i._FDTree_Delete) for _FDTree_Delete
    heap2mt.o(i._realloc$realtime$concurrent) refers to rt_memcpy_w.o(.text) for __aeabi_memcpy4
    vsnprintf.o(.text) refers (Special) to _printf_a.o(.ARM.Collect$$_printf_percent$$00000006) for _printf_a
    vsnprintf.o(.text) refers (Special) to _printf_c.o(.ARM.Collect$$_printf_percent$$00000013) for _printf_c
    vsnprintf.o(.text) refers (Special) to _printf_charcount.o(.text) for _printf_charcount
    vsnprintf.o(.text) refers (Special) to _printf_d.o(.ARM.Collect$$_printf_percent$$00000009) for _printf_d
    vsnprintf.o(.text) refers (Special) to _printf_e.o(.ARM.Collect$$_printf_percent$$00000004) for _printf_e
    vsnprintf.o(.text) refers (Special) to _printf_f.o(.ARM.Collect$$_printf_percent$$00000003) for _printf_f
    vsnprintf.o(.text) refers (Special) to printf1.o(x$fpl$printf1) for _printf_fp_dec
    vsnprintf.o(.text) refers (Special) to printf2.o(x$fpl$printf2) for _printf_fp_hex
    vsnprintf.o(.text) refers (Special) to _printf_g.o(.ARM.Collect$$_printf_percent$$00000005) for _printf_g
    vsnprintf.o(.text) refers (Special) to _printf_i.o(.ARM.Collect$$_printf_percent$$00000008) for _printf_i
    vsnprintf.o(.text) refers (Special) to _printf_dec.o(.text) for _printf_int_dec
    vsnprintf.o(.text) refers (Special) to _printf_l.o(.ARM.Collect$$_printf_percent$$00000012) for _printf_l
    vsnprintf.o(.text) refers (Special) to _printf_lc.o(.ARM.Collect$$_printf_percent$$00000015) for _printf_lc
    vsnprintf.o(.text) refers (Special) to _printf_ll.o(.ARM.Collect$$_printf_percent$$00000007) for _printf_ll
    vsnprintf.o(.text) refers (Special) to _printf_lld.o(.ARM.Collect$$_printf_percent$$0000000E) for _printf_lld
    vsnprintf.o(.text) refers (Special) to _printf_lli.o(.ARM.Collect$$_printf_percent$$0000000D) for _printf_lli
    vsnprintf.o(.text) refers (Special) to _printf_llo.o(.ARM.Collect$$_printf_percent$$00000010) for _printf_llo
    vsnprintf.o(.text) refers (Special) to _printf_llu.o(.ARM.Collect$$_printf_percent$$0000000F) for _printf_llu
    vsnprintf.o(.text) refers (Special) to _printf_llx.o(.ARM.Collect$$_printf_percent$$00000011) for _printf_llx
    vsnprintf.o(.text) refers (Special) to _printf_longlong_dec.o(.text) for _printf_longlong_dec
    vsnprintf.o(.text) refers (Special) to _printf_hex_int_ll_ptr.o(.text) for _printf_longlong_hex
    vsnprintf.o(.text) refers (Special) to _printf_oct_int_ll.o(.text) for _printf_longlong_oct
    vsnprintf.o(.text) refers (Special) to _printf_ls.o(.ARM.Collect$$_printf_percent$$00000016) for _printf_ls
    vsnprintf.o(.text) refers (Special) to _printf_n.o(.ARM.Collect$$_printf_percent$$00000001) for _printf_n
    vsnprintf.o(.text) refers (Special) to _printf_o.o(.ARM.Collect$$_printf_percent$$0000000B) for _printf_o
    vsnprintf.o(.text) refers (Special) to _printf_p.o(.ARM.Collect$$_printf_percent$$00000002) for _printf_p
    vsnprintf.o(.text) refers (Special) to _printf_percent.o(.ARM.Collect$$_printf_percent$$00000000) for _printf_percent
    vsnprintf.o(.text) refers (Special) to _printf_pad.o(.text) for _printf_post_padding
    vsnprintf.o(.text) refers (Special) to _printf_s.o(.ARM.Collect$$_printf_percent$$00000014) for _printf_s
    vsnprintf.o(.text) refers (Special) to _printf_str.o(.text) for _printf_str
    vsnprintf.o(.text) refers (Special) to _printf_truncate.o(.text) for _printf_truncate_signed
    vsnprintf.o(.text) refers (Special) to _printf_u.o(.ARM.Collect$$_printf_percent$$0000000A) for _printf_u
    vsnprintf.o(.text) refers (Special) to _printf_wctomb.o(.text) for _printf_wctomb
    vsnprintf.o(.text) refers (Special) to _printf_x.o(.ARM.Collect$$_printf_percent$$0000000C) for _printf_x
    vsnprintf.o(.text) refers to _printf_char_common.o(.text) for _printf_char_common
    vsnprintf.o(.text) refers to _sputc.o(.text) for _sputc
    vsnprintf.o(.text) refers to _snputc.o(.text) for _snputc
    __2sprintf.o(.text) refers to _printf_char_common.o(.text) for _printf_char_common
    __2sprintf.o(.text) refers to _sputc.o(.text) for _sputc
    noretval__2sprintf.o(.text) refers to _printf_char_common.o(.text) for _printf_char_common
    noretval__2sprintf.o(.text) refers to _sputc.o(.text) for _sputc
    __printf.o(.text) refers to _printf_percent.o(.ARM.Collect$$_printf_percent$$00000000) for _printf_percent
    _printf_str.o(.text) refers (Special) to _printf_char.o(.text) for _printf_cs_common
    _printf_str.o(.text) refers (Weak) to _printf_pad.o(.text) for _printf_pre_padding
    _printf_str.o(.text) refers (Weak) to _printf_pad.o(.text) for _printf_post_padding
    __printf_flags.o(.text) refers to _printf_percent.o(.ARM.Collect$$_printf_percent$$00000000) for _printf_percent
    __printf_flags.o(.text) refers to __printf_flags.o(.constdata) for .constdata
    __printf_ss.o(.text) refers to _printf_percent.o(.ARM.Collect$$_printf_percent$$00000000) for _printf_percent
    __printf_flags_ss.o(.text) refers to _printf_percent.o(.ARM.Collect$$_printf_percent$$00000000) for _printf_percent
    __printf_flags_ss.o(.text) refers to __printf_flags_ss.o(.constdata) for .constdata
    __printf_wp.o(.text) refers to __printf_wp.o(i._is_digit) for _is_digit
    __printf_wp.o(.text) refers to _printf_percent.o(.ARM.Collect$$_printf_percent$$00000000) for _printf_percent
    __printf_flags_wp.o(.text) refers to __printf_wp.o(i._is_digit) for _is_digit
    __printf_flags_wp.o(.text) refers to _printf_percent.o(.ARM.Collect$$_printf_percent$$00000000) for _printf_percent
    __printf_flags_wp.o(.text) refers to __printf_flags_wp.o(.constdata) for .constdata
    __printf_ss_wp.o(.text) refers to __printf_wp.o(i._is_digit) for _is_digit
    __printf_ss_wp.o(.text) refers to _printf_percent.o(.ARM.Collect$$_printf_percent$$00000000) for _printf_percent
    __printf_flags_ss_wp.o(.text) refers to __printf_wp.o(i._is_digit) for _is_digit
    __printf_flags_ss_wp.o(.text) refers to _printf_percent.o(.ARM.Collect$$_printf_percent$$00000000) for _printf_percent
    __printf_flags_ss_wp.o(.text) refers to __printf_flags_ss_wp.o(.constdata) for .constdata
    _printf_s.o(.ARM.Collect$$_printf_percent$$00000014) refers (Weak) to _printf_char.o(.text) for _printf_string
    _printf_f.o(.ARM.Collect$$_printf_percent$$00000003) refers (Weak) to printf1.o(x$fpl$printf1) for _printf_fp_dec
    _printf_percent.o(.ARM.Collect$$_printf_percent$$00000000) refers (Special) to _printf_percent_end.o(.ARM.Collect$$_printf_percent$$00000017) for _printf_percent_end
    rt_memcpy_v6.o(.text) refers to rt_memcpy_w.o(.text) for __aeabi_memcpy4
    rt_memclr.o(.text) refers to rt_memclr_w.o(.text) for _memset_w
    strncpy.o(.text) refers to rt_memclr.o(.text) for __aeabi_memclr
    __main.o(!!!main) refers to __rtentry.o(.ARM.Collect$$rtentry$$00000000) for __rt_entry
    d2f.o(x$fpl$d2f) refers (Special) to usenofp.o(x$fpl$usenofp) for __I$use$fp
    d2f.o(x$fpl$d2f) refers to fretinf.o(x$fpl$fretinf) for __fpl_fretinf
    d2f.o(x$fpl$d2f) refers to dnaninf.o(x$fpl$dnaninf) for __fpl_dnaninf
    daddsub_clz.o(x$fpl$dadd) refers (Special) to usenofp.o(x$fpl$usenofp) for __I$use$fp
    daddsub_clz.o(x$fpl$dadd) refers to daddsub_clz.o(x$fpl$dsub) for _dsub1
    daddsub_clz.o(x$fpl$dadd) refers to dretinf.o(x$fpl$dretinf) for __fpl_dretinf
    daddsub_clz.o(x$fpl$dadd) refers to dnaninf.o(x$fpl$dnaninf) for __fpl_dnaninf
    daddsub_clz.o(x$fpl$drsb) refers (Special) to usenofp.o(x$fpl$usenofp) for __I$use$fp
    daddsub_clz.o(x$fpl$drsb) refers to daddsub_clz.o(x$fpl$dadd) for _dadd1
    daddsub_clz.o(x$fpl$drsb) refers to daddsub_clz.o(x$fpl$dsub) for _dsub1
    daddsub_clz.o(x$fpl$dsub) refers (Special) to usenofp.o(x$fpl$usenofp) for __I$use$fp
    daddsub_clz.o(x$fpl$dsub) refers to daddsub_clz.o(x$fpl$dadd) for _dadd1
    daddsub_clz.o(x$fpl$dsub) refers to dnaninf.o(x$fpl$dnaninf) for __fpl_dnaninf
    ddiv.o(x$fpl$drdiv) refers (Special) to usenofp.o(x$fpl$usenofp) for __I$use$fp
    ddiv.o(x$fpl$drdiv) refers to ddiv.o(x$fpl$ddiv) for ddiv_entry
    ddiv.o(x$fpl$ddiv) refers (Special) to usenofp.o(x$fpl$usenofp) for __I$use$fp
    ddiv.o(x$fpl$ddiv) refers to dretinf.o(x$fpl$dretinf) for __fpl_dretinf
    ddiv.o(x$fpl$ddiv) refers to dnaninf.o(x$fpl$dnaninf) for __fpl_dnaninf
    dfix.o(x$fpl$dfix) refers (Special) to usenofp.o(x$fpl$usenofp) for __I$use$fp
    dfix.o(x$fpl$dfix) refers to dnaninf.o(x$fpl$dnaninf) for __fpl_dnaninf
    dfix.o(x$fpl$dfixr) refers (Special) to usenofp.o(x$fpl$usenofp) for __I$use$fp
    dfix.o(x$fpl$dfixr) refers to dnaninf.o(x$fpl$dnaninf) for __fpl_dnaninf
    dflt_clz.o(x$fpl$dfltu) refers (Special) to usenofp.o(x$fpl$usenofp) for __I$use$fp
    dflt_clz.o(x$fpl$dflt) refers (Special) to usenofp.o(x$fpl$usenofp) for __I$use$fp
    dflt_clz.o(x$fpl$dfltn) refers (Special) to usenofp.o(x$fpl$usenofp) for __I$use$fp
    dmul.o(x$fpl$dmul) refers (Special) to usenofp.o(x$fpl$usenofp) for __I$use$fp
    dmul.o(x$fpl$dmul) refers to dretinf.o(x$fpl$dretinf) for __fpl_dretinf
    dmul.o(x$fpl$dmul) refers to dnaninf.o(x$fpl$dnaninf) for __fpl_dnaninf
    f2d.o(x$fpl$f2d) refers (Special) to usenofp.o(x$fpl$usenofp) for __I$use$fp
    f2d.o(x$fpl$f2d) refers to fnaninf.o(x$fpl$fnaninf) for __fpl_fnaninf
    f2d.o(x$fpl$f2d) refers to dretinf.o(x$fpl$dretinf) for __fpl_dretinf
    printf1.o(x$fpl$printf1) refers to _printf_fp_dec.o(.text) for _printf_fp_dec_real
    __rtentry.o(.ARM.Collect$$rtentry$$00000000) refers (Special) to __rtentry2.o(.ARM.Collect$$rtentry$$0000000A) for __rt_entry_li
    __rtentry.o(.ARM.Collect$$rtentry$$00000000) refers (Special) to __rtentry2.o(.ARM.Collect$$rtentry$$0000000D) for __rt_entry_main
    __rtentry.o(.ARM.Collect$$rtentry$$00000000) refers (Special) to __rtentry2.o(.ARM.Collect$$rtentry$$0000000C) for __rt_entry_postli_1
    __rtentry.o(.ARM.Collect$$rtentry$$00000000) refers (Special) to __rtentry2.o(.ARM.Collect$$rtentry$$00000009) for __rt_entry_postsh_1
    __rtentry.o(.ARM.Collect$$rtentry$$00000000) refers (Special) to __rtentry2.o(.ARM.Collect$$rtentry$$00000002) for __rt_entry_presh_1
    __rtentry.o(.ARM.Collect$$rtentry$$00000000) refers (Special) to __rtentry4.o(.ARM.Collect$$rtentry$$00000004) for __rt_entry_sh
    rt_heap_descriptor.o(.text) refers to rt_heap_descriptor.o(.bss) for __rt_heap_descriptor_data
    rt_heap_descriptor_intlibspace.o(.text) refers to libspace.o(.bss) for __libspace_start
    init_alloc.o(.text) refers (Special) to hguard.o(.text) for __heap$guard
    init_alloc.o(.text) refers (Special) to libinit2.o(.ARM.Collect$$libinit$$00000005) for __rt_lib_init_heap_2
    init_alloc.o(.text) refers (Special) to maybetermalloc1.o(.emb_text) for _maybe_terminate_alloc
    init_alloc.o(.text) refers to h1_extend.o(.text) for __Heap_ProvideMemory
    init_alloc.o(.text) refers to defsig_rtmem_outer.o(.text) for __rt_SIGRTMEM
    init_alloc.o(.text) refers to rt_heap_descriptor_intlibspace.o(.text) for __rt_heap_descriptor
    init_alloc.o(.text) refers to h1_init.o(.text) for __Heap_Initialize
    h1_init_mt.o(.text) refers to mutex_dummy.o(.text) for _mutex_initialize
    _printf_dec.o(.text) refers (Weak) to _printf_truncate.o(.text) for _printf_truncate_signed
    _printf_dec.o(.text) refers (Weak) to _printf_truncate.o(.text) for _printf_truncate_unsigned
    _printf_dec.o(.text) refers to _printf_intcommon.o(.text) for _printf_int_common
    _printf_fp_dec.o(.text) refers (Special) to usenofp.o(x$fpl$usenofp) for __I$use$fp
    _printf_fp_dec.o(.text) refers (Special) to lc_numeric_c.o(locale$$code) for _get_lc_numeric
    _printf_fp_dec.o(.text) refers to bigflt0.o(.text) for _btod_etento
    _printf_fp_dec.o(.text) refers to btod.o(CL$$btod_d2e) for _btod_d2e
    _printf_fp_dec.o(.text) refers to btod.o(CL$$btod_ediv) for _btod_ediv
    _printf_fp_dec.o(.text) refers to btod.o(CL$$btod_emul) for _btod_emul
    _printf_fp_dec.o(.text) refers to lludiv10.o(.text) for _ll_udiv10
    _printf_fp_dec.o(.text) refers to fpclassify.o(i.__ARM_fpclassify) for __ARM_fpclassify
    _printf_fp_dec.o(.text) refers to _printf_fp_infnan.o(.text) for _printf_fp_infnan
    _printf_fp_dec.o(.text) refers (Weak) to _printf_pad.o(.text) for _printf_pre_padding
    _printf_fp_dec.o(.text) refers (Weak) to _printf_pad.o(.text) for _printf_pre_padding
    _printf_fp_dec.o(.text) refers to rt_locale_intlibspace.o(.text) for __rt_locale
    _printf_fp_dec.o(.text) refers (Weak) to _printf_pad.o(.text) for _printf_post_padding
    _printf_char_common.o(.text) refers to __printf_flags_ss_wp.o(.text) for __printf
    _printf_char.o(.text) refers (Weak) to _printf_str.o(.text) for _printf_str
    _printf_wctomb.o(.text) refers (Special) to _printf_wchar.o(.text) for _printf_lcs_common
    _printf_wctomb.o(.text) refers to _wcrtomb.o(.text) for _wcrtomb
    _printf_wctomb.o(.text) refers (Weak) to _printf_pad.o(.text) for _printf_pre_padding
    _printf_wctomb.o(.text) refers (Weak) to _printf_pad.o(.text) for _printf_post_padding
    _printf_wctomb.o(.text) refers to _printf_wctomb.o(.constdata) for .constdata
    _printf_wctomb.o(.constdata) refers (Special) to _printf_wchar.o(.text) for _printf_lcs_common
    _printf_longlong_dec.o(.text) refers to lludiv10.o(.text) for _ll_udiv10
    _printf_longlong_dec.o(.text) refers to _printf_intcommon.o(.text) for _printf_int_common
    _printf_oct_ll.o(.text) refers to _printf_intcommon.o(.text) for _printf_int_common
    _printf_oct_int.o(.text) refers (Weak) to _printf_truncate.o(.text) for _printf_truncate_unsigned
    _printf_oct_int.o(.text) refers to _printf_intcommon.o(.text) for _printf_int_common
    _printf_oct_int_ll.o(.text) refers to _printf_intcommon.o(.text) for _printf_int_common
    _printf_oct_int_ll.o(.text) refers (Weak) to _printf_truncate.o(.text) for _printf_truncate_unsigned
    _printf_hex_ll.o(.text) refers to _printf_intcommon.o(.text) for _printf_int_common
    _printf_hex_ll.o(.text) refers to _printf_hex_ll.o(.constdata) for .constdata
    _printf_hex_int.o(.text) refers (Weak) to _printf_truncate.o(.text) for _printf_truncate_unsigned
    _printf_hex_int.o(.text) refers to _printf_intcommon.o(.text) for _printf_int_common
    _printf_hex_int.o(.text) refers to _printf_hex_int.o(.constdata) for .constdata
    _printf_hex_int_ll.o(.text) refers to _printf_intcommon.o(.text) for _printf_int_common
    _printf_hex_int_ll.o(.text) refers (Weak) to _printf_truncate.o(.text) for _printf_truncate_unsigned
    _printf_hex_int_ll.o(.text) refers to _printf_hex_int_ll.o(.constdata) for .constdata
    _printf_hex_ptr.o(.text) refers to _printf_intcommon.o(.text) for _printf_int_common
    _printf_hex_ptr.o(.text) refers to _printf_hex_ptr.o(.constdata) for .constdata
    _printf_hex_int_ptr.o(.text) refers to _printf_intcommon.o(.text) for _printf_int_common
    _printf_hex_int_ptr.o(.text) refers (Weak) to _printf_truncate.o(.text) for _printf_truncate_unsigned
    _printf_hex_int_ptr.o(.text) refers to _printf_hex_int_ptr.o(.constdata) for .constdata
    _printf_hex_ll_ptr.o(.text) refers to _printf_intcommon.o(.text) for _printf_int_common
    _printf_hex_ll_ptr.o(.text) refers to _printf_hex_ll_ptr.o(.constdata) for .constdata
    _printf_hex_int_ll_ptr.o(.text) refers to _printf_intcommon.o(.text) for _printf_int_common
    _printf_hex_int_ll_ptr.o(.text) refers (Weak) to _printf_truncate.o(.text) for _printf_truncate_unsigned
    _printf_hex_int_ll_ptr.o(.text) refers to _printf_hex_int_ll_ptr.o(.constdata) for .constdata
    _printf_c.o(.ARM.Collect$$_printf_percent$$00000013) refers (Weak) to _printf_char.o(.text) for _printf_char
    _printf_n.o(.ARM.Collect$$_printf_percent$$00000001) refers (Weak) to _printf_charcount.o(.text) for _printf_charcount
    _printf_x.o(.ARM.Collect$$_printf_percent$$0000000C) refers (Weak) to _printf_hex_int_ll_ptr.o(.text) for _printf_int_hex
    _printf_p.o(.ARM.Collect$$_printf_percent$$00000002) refers (Weak) to _printf_hex_int_ll_ptr.o(.text) for _printf_hex_ptr
    _printf_o.o(.ARM.Collect$$_printf_percent$$0000000B) refers (Weak) to _printf_oct_int_ll.o(.text) for _printf_int_oct
    _printf_i.o(.ARM.Collect$$_printf_percent$$00000008) refers (Weak) to _printf_dec.o(.text) for _printf_int_dec
    _printf_d.o(.ARM.Collect$$_printf_percent$$00000009) refers (Weak) to _printf_dec.o(.text) for _printf_int_dec
    _printf_u.o(.ARM.Collect$$_printf_percent$$0000000A) refers (Weak) to _printf_dec.o(.text) for _printf_int_dec
    _printf_e.o(.ARM.Collect$$_printf_percent$$00000004) refers (Weak) to printf1.o(x$fpl$printf1) for _printf_fp_dec
    _printf_g.o(.ARM.Collect$$_printf_percent$$00000005) refers (Weak) to printf1.o(x$fpl$printf1) for _printf_fp_dec
    _printf_a.o(.ARM.Collect$$_printf_percent$$00000006) refers (Weak) to printf2.o(x$fpl$printf2) for _printf_fp_hex
    _printf_lli.o(.ARM.Collect$$_printf_percent$$0000000D) refers (Special) to _printf_ll.o(.ARM.Collect$$_printf_percent$$00000007) for _printf_ll
    _printf_lli.o(.ARM.Collect$$_printf_percent$$0000000D) refers (Weak) to _printf_longlong_dec.o(.text) for _printf_longlong_dec
    _printf_lld.o(.ARM.Collect$$_printf_percent$$0000000E) refers (Special) to _printf_ll.o(.ARM.Collect$$_printf_percent$$00000007) for _printf_ll
    _printf_lld.o(.ARM.Collect$$_printf_percent$$0000000E) refers (Weak) to _printf_longlong_dec.o(.text) for _printf_longlong_dec
    _printf_llu.o(.ARM.Collect$$_printf_percent$$0000000F) refers (Special) to _printf_ll.o(.ARM.Collect$$_printf_percent$$00000007) for _printf_ll
    _printf_llu.o(.ARM.Collect$$_printf_percent$$0000000F) refers (Weak) to _printf_longlong_dec.o(.text) for _printf_longlong_dec
    _printf_lc.o(.ARM.Collect$$_printf_percent$$00000015) refers (Special) to _printf_l.o(.ARM.Collect$$_printf_percent$$00000012) for _printf_l
    _printf_lc.o(.ARM.Collect$$_printf_percent$$00000015) refers (Weak) to _printf_wchar.o(.text) for _printf_wchar
    _printf_ls.o(.ARM.Collect$$_printf_percent$$00000016) refers (Special) to _printf_l.o(.ARM.Collect$$_printf_percent$$00000012) for _printf_l
    _printf_ls.o(.ARM.Collect$$_printf_percent$$00000016) refers (Weak) to _printf_wchar.o(.text) for _printf_wstring
    _printf_llo.o(.ARM.Collect$$_printf_percent$$00000010) refers (Special) to _printf_ll.o(.ARM.Collect$$_printf_percent$$00000007) for _printf_ll
    _printf_llo.o(.ARM.Collect$$_printf_percent$$00000010) refers (Weak) to _printf_oct_int_ll.o(.text) for _printf_ll_oct
    _printf_llx.o(.ARM.Collect$$_printf_percent$$00000011) refers (Special) to _printf_ll.o(.ARM.Collect$$_printf_percent$$00000007) for _printf_ll
    _printf_llx.o(.ARM.Collect$$_printf_percent$$00000011) refers (Weak) to _printf_hex_int_ll_ptr.o(.text) for _printf_ll_hex
    _get_argv.o(.text) refers (Special) to hrguard.o(.text) for __heap_region$guard
    _get_argv.o(.text) refers to h1_alloc.o(.text) for malloc
    _get_argv.o(.text) refers to defsig_rtmem_outer.o(.text) for __rt_SIGRTMEM
    _get_argv.o(.text) refers to sys_command.o(.text) for _sys_command_string
    libinit2.o(.ARM.Collect$$libinit$$00000005) refers (Weak) to init_alloc.o(.text) for _init_alloc
    libinit2.o(.ARM.Collect$$libinit$$0000000F) refers (Weak) to rt_locale_intlibspace.o(.text) for __rt_locale
    libinit2.o(.ARM.Collect$$libinit$$00000010) refers to libinit2.o(.ARM.Collect$$libinit$$0000000F) for .ARM.Collect$$libinit$$0000000F
    libinit2.o(.ARM.Collect$$libinit$$00000012) refers to libinit2.o(.ARM.Collect$$libinit$$0000000F) for .ARM.Collect$$libinit$$0000000F
    libinit2.o(.ARM.Collect$$libinit$$00000012) refers (Weak) to lc_ctype_c.o(locale$$code) for _get_lc_ctype
    libinit2.o(.ARM.Collect$$libinit$$00000014) refers to libinit2.o(.ARM.Collect$$libinit$$0000000F) for .ARM.Collect$$libinit$$0000000F
    libinit2.o(.ARM.Collect$$libinit$$00000016) refers to libinit2.o(.ARM.Collect$$libinit$$0000000F) for .ARM.Collect$$libinit$$0000000F
    libinit2.o(.ARM.Collect$$libinit$$00000016) refers (Weak) to lc_numeric_c.o(locale$$code) for _get_lc_numeric
    libinit2.o(.ARM.Collect$$libinit$$00000018) refers to libinit2.o(.ARM.Collect$$libinit$$0000000F) for .ARM.Collect$$libinit$$0000000F
    libinit2.o(.ARM.Collect$$libinit$$00000026) refers to argv_veneer.o(.emb_text) for __ARM_argv_veneer
    libinit2.o(.ARM.Collect$$libinit$$00000027) refers to argv_veneer.o(.emb_text) for __ARM_argv_veneer
    dnaninf.o(x$fpl$dnaninf) refers (Special) to usenofp.o(x$fpl$usenofp) for __I$use$fp
    dretinf.o(x$fpl$dretinf) refers (Special) to usenofp.o(x$fpl$usenofp) for __I$use$fp
    fnaninf.o(x$fpl$fnaninf) refers (Special) to usenofp.o(x$fpl$usenofp) for __I$use$fp
    fretinf.o(x$fpl$fretinf) refers (Special) to usenofp.o(x$fpl$usenofp) for __I$use$fp
    printf2.o(x$fpl$printf2) refers to _printf_fp_hex.o(.text) for _printf_fp_hex_real
    printf2b.o(x$fpl$printf2) refers to _printf_fp_hex.o(.text) for _printf_fp_hex_real
    sys_command.o(.text) refers (Special) to use_no_semi.o(.text) for __I$use$semihosting
    sys_command.o(.text) refers (Special) to indicate_semi.o(.text) for __semihosting_library_function
    libspace.o(.text) refers to libspace.o(.bss) for __libspace_start
    __rtentry2.o(.ARM.Collect$$rtentry$$00000008) refers to boardinit2.o(.text) for _platform_post_stackheap_init
    __rtentry2.o(.ARM.Collect$$rtentry$$0000000A) refers to libinit.o(.ARM.Collect$$libinit$$00000000) for __rt_lib_init
    __rtentry2.o(.ARM.Collect$$rtentry$$0000000B) refers to boardinit3.o(.text) for _platform_post_lib_init
    __rtentry2.o(.ARM.Collect$$rtentry$$0000000D) refers to main.o(i.main) for main
    __rtentry2.o(.ARM.Collect$$rtentry$$0000000D) refers to exit.o(.text) for exit
    __rtentry2.o(.ARM.exidx) refers to __rtentry2.o(.ARM.Collect$$rtentry$$00000001) for .ARM.Collect$$rtentry$$00000001
    __rtentry2.o(.ARM.exidx) refers to __rtentry2.o(.ARM.Collect$$rtentry$$00000008) for .ARM.Collect$$rtentry$$00000008
    __rtentry2.o(.ARM.exidx) refers to __rtentry2.o(.ARM.Collect$$rtentry$$0000000A) for .ARM.Collect$$rtentry$$0000000A
    __rtentry2.o(.ARM.exidx) refers to __rtentry2.o(.ARM.Collect$$rtentry$$0000000B) for .ARM.Collect$$rtentry$$0000000B
    __rtentry2.o(.ARM.exidx) refers to __rtentry2.o(.ARM.Collect$$rtentry$$0000000D) for .ARM.Collect$$rtentry$$0000000D
    __rtentry4.o(.ARM.Collect$$rtentry$$00000004) refers to sys_stackheap_outer.o(.text) for __user_setup_stackheap
    __rtentry4.o(.ARM.exidx) refers to __rtentry4.o(.ARM.Collect$$rtentry$$00000004) for .ARM.Collect$$rtentry$$00000004
    rt_locale.o(.text) refers to rt_locale.o(.bss) for __rt_locale_data
    rt_locale_intlibspace.o(.text) refers to libspace.o(.bss) for __libspace_start
    maybetermalloc2.o(.emb_text) refers (Special) to term_alloc.o(.text) for _terminate_alloc
    h1_extend.o(.text) refers to h1_free.o(.text) for free
    h1_extend_mt.o(.text) refers to h1_free_mt.o(.text) for _free_internal
    _printf_intcommon.o(.text) refers (Weak) to _printf_pad.o(.text) for _printf_pre_padding
    _printf_intcommon.o(.text) refers (Weak) to _printf_pad.o(.text) for _printf_pre_padding
    _printf_intcommon.o(.text) refers (Weak) to _printf_pad.o(.text) for _printf_post_padding
    _printf_fp_hex.o(.text) refers (Special) to usenofp.o(x$fpl$usenofp) for __I$use$fp
    _printf_fp_hex.o(.text) refers to fpclassify.o(i.__ARM_fpclassify) for __ARM_fpclassify
    _printf_fp_hex.o(.text) refers to _printf_fp_infnan.o(.text) for _printf_fp_infnan
    _printf_fp_hex.o(.text) refers (Weak) to _printf_pad.o(.text) for _printf_pre_padding
    _printf_fp_hex.o(.text) refers (Weak) to _printf_pad.o(.text) for _printf_pre_padding
    _printf_fp_hex.o(.text) refers (Weak) to _printf_pad.o(.text) for _printf_post_padding
    _printf_fp_hex.o(.text) refers to _printf_fp_hex.o(.constdata) for .constdata
    _printf_fp_hex.o(.constdata) refers (Special) to usenofp.o(x$fpl$usenofp) for __I$use$fp
    _printf_fp_infnan.o(.text) refers (Weak) to _printf_pad.o(.text) for _printf_pre_padding
    _printf_fp_infnan.o(.text) refers (Weak) to _printf_pad.o(.text) for _printf_post_padding
    _printf_wchar.o(.text) refers (Weak) to _printf_wctomb.o(.text) for _printf_wctomb
    bigflt0.o(.text) refers (Special) to usenofp.o(x$fpl$usenofp) for __I$use$fp
    bigflt0.o(.text) refers to btod.o(CL$$btod_emul) for _btod_emul
    bigflt0.o(.text) refers to btod.o(CL$$btod_ediv) for _btod_ediv
    bigflt0.o(.text) refers to bigflt0.o(.constdata) for .constdata
    bigflt0.o(.constdata) refers (Special) to usenofp.o(x$fpl$usenofp) for __I$use$fp
    btod.o(CL$$btod_d2e) refers (Special) to usenofp.o(x$fpl$usenofp) for __I$use$fp
    btod.o(CL$$btod_d2e) refers to btod.o(CL$$btod_d2e_norm_op1) for _d2e_norm_op1
    btod.o(CL$$btod_d2e_norm_op1) refers (Special) to usenofp.o(x$fpl$usenofp) for __I$use$fp
    btod.o(CL$$btod_d2e_norm_op1) refers to btod.o(CL$$btod_d2e_denorm_low) for _d2e_denorm_low
    btod.o(CL$$btod_d2e_denorm_low) refers (Special) to usenofp.o(x$fpl$usenofp) for __I$use$fp
    btod.o(CL$$btod_emul) refers (Special) to usenofp.o(x$fpl$usenofp) for __I$use$fp
    btod.o(CL$$btod_emul) refers to btod.o(CL$$btod_mult_common) for __btod_mult_common
    btod.o(CL$$btod_emul) refers to btod.o(CL$$btod_e2e) for _e2e
    btod.o(CL$$btod_ediv) refers (Special) to usenofp.o(x$fpl$usenofp) for __I$use$fp
    btod.o(CL$$btod_ediv) refers to btod.o(CL$$btod_div_common) for __btod_div_common
    btod.o(CL$$btod_ediv) refers to btod.o(CL$$btod_e2e) for _e2e
    btod.o(CL$$btod_emuld) refers (Special) to usenofp.o(x$fpl$usenofp) for __I$use$fp
    btod.o(CL$$btod_emuld) refers to btod.o(CL$$btod_mult_common) for __btod_mult_common
    btod.o(CL$$btod_emuld) refers to btod.o(CL$$btod_e2d) for _e2d
    btod.o(CL$$btod_edivd) refers (Special) to usenofp.o(x$fpl$usenofp) for __I$use$fp
    btod.o(CL$$btod_edivd) refers to btod.o(CL$$btod_div_common) for __btod_div_common
    btod.o(CL$$btod_edivd) refers to btod.o(CL$$btod_e2d) for _e2d
    btod.o(CL$$btod_e2e) refers (Special) to usenofp.o(x$fpl$usenofp) for __I$use$fp
    btod.o(CL$$btod_e2d) refers (Special) to usenofp.o(x$fpl$usenofp) for __I$use$fp
    btod.o(CL$$btod_e2d) refers to btod.o(CL$$btod_e2e) for _e2e
    btod.o(CL$$btod_mult_common) refers (Special) to usenofp.o(x$fpl$usenofp) for __I$use$fp
    btod.o(CL$$btod_div_common) refers (Special) to usenofp.o(x$fpl$usenofp) for __I$use$fp
    _wcrtomb.o(.text) refers to rt_ctype_table.o(.text) for __rt_ctype_table
    lc_numeric_c.o(locale$$data) refers (Special) to libinit2.o(.ARM.Collect$$libinit$$00000016) for __rt_lib_init_lc_numeric_2
    lc_numeric_c.o(locale$$code) refers (Special) to libinit2.o(.ARM.Collect$$libinit$$00000016) for __rt_lib_init_lc_numeric_2
    lc_numeric_c.o(locale$$code) refers to strcmpv7m.o(.text) for strcmp
    lc_numeric_c.o(locale$$code) refers to lc_numeric_c.o(locale$$data) for __lcnum_c_name
    defsig_rtmem_outer.o(.text) refers to defsig_rtmem_inner.o(.text) for __rt_SIGRTMEM_inner
    defsig_rtmem_outer.o(.text) refers to defsig_exit.o(.text) for __sig_exit
    defsig_rtmem_formal.o(.text) refers to rt_raise.o(.text) for __rt_raise
    heapauxa.o(.text) refers to heapauxa.o(.data) for .data
    argv_veneer.o(.emb_text) refers to no_argv.o(.text) for __ARM_get_argv
    istatus.o(x$fpl$ieeestatus) refers (Special) to usenofp.o(x$fpl$usenofp) for __I$use$fp
    fpclassify.o(i.__ARM_fpclassify) refers (Special) to usenofp.o(x$fpl$usenofp) for __I$use$fp
    sys_stackheap_outer.o(.text) refers to libspace.o(.text) for __user_perproc_libspace
    sys_stackheap_outer.o(.text) refers to startup_stm32f10x_md.o(.text) for __user_initial_stackheap
    rt_ctype_table.o(.text) refers to rt_locale_intlibspace.o(.text) for __rt_locale
    rt_ctype_table.o(.text) refers to lc_ctype_c.o(locale$$code) for _get_lc_ctype
    rt_raise.o(.text) refers to __raise.o(.text) for __raise
    rt_raise.o(.text) refers to sys_exit.o(.text) for _sys_exit
    term_alloc.o(.text) refers (Special) to libshutdown2.o(.ARM.Collect$$libshutdown$$0000000D) for __rt_lib_shutdown_heap_2
    term_alloc.o(.text) refers to rt_heap_descriptor_intlibspace.o(.text) for __rt_heap_descriptor
    term_alloc.o(.text) refers to h1_final.o(.text) for __Heap_Finalize
    exit.o(.text) refers to rtexit.o(.ARM.Collect$$rtexit$$00000000) for __rt_exit
    defsig_exit.o(.text) refers to sys_exit.o(.text) for _sys_exit
    defsig_rtmem_inner.o(.text) refers to defsig_general.o(.text) for __default_signal_display
    _get_argv_nomalloc.o(.text) refers (Special) to hrguard.o(.text) for __heap_region$guard
    _get_argv_nomalloc.o(.text) refers to defsig_rtmem_outer.o(.text) for __rt_SIGRTMEM
    _get_argv_nomalloc.o(.text) refers to sys_command.o(.text) for _sys_command_string
    libinit.o(.ARM.Collect$$libinit$$00000000) refers (Special) to libinit2.o(.ARM.Collect$$libinit$$0000002E) for __rt_lib_init_alloca_1
    libinit.o(.ARM.Collect$$libinit$$00000000) refers (Special) to libinit2.o(.ARM.Collect$$libinit$$0000002C) for __rt_lib_init_argv_1
    libinit.o(.ARM.Collect$$libinit$$00000000) refers (Special) to libinit2.o(.ARM.Collect$$libinit$$0000001B) for __rt_lib_init_atexit_1
    libinit.o(.ARM.Collect$$libinit$$00000000) refers (Special) to libinit2.o(.ARM.Collect$$libinit$$00000021) for __rt_lib_init_clock_1
    libinit.o(.ARM.Collect$$libinit$$00000000) refers (Special) to libinit2.o(.ARM.Collect$$libinit$$00000032) for __rt_lib_init_cpp_1
    libinit.o(.ARM.Collect$$libinit$$00000000) refers (Special) to libinit2.o(.ARM.Collect$$libinit$$00000030) for __rt_lib_init_exceptions_1
    libinit.o(.ARM.Collect$$libinit$$00000000) refers (Special) to libinit2.o(.ARM.Collect$$libinit$$00000002) for __rt_lib_init_fp_1
    libinit.o(.ARM.Collect$$libinit$$00000000) refers (Special) to libinit2.o(.ARM.Collect$$libinit$$0000001F) for __rt_lib_init_fp_trap_1
    libinit.o(.ARM.Collect$$libinit$$00000000) refers (Special) to libinit2.o(.ARM.Collect$$libinit$$00000023) for __rt_lib_init_getenv_1
    libinit.o(.ARM.Collect$$libinit$$00000000) refers (Special) to libinit2.o(.ARM.Collect$$libinit$$0000000A) for __rt_lib_init_heap_1
    libinit.o(.ARM.Collect$$libinit$$00000000) refers (Special) to libinit2.o(.ARM.Collect$$libinit$$00000011) for __rt_lib_init_lc_collate_1
    libinit.o(.ARM.Collect$$libinit$$00000000) refers (Special) to libinit2.o(.ARM.Collect$$libinit$$00000013) for __rt_lib_init_lc_ctype_1
    libinit.o(.ARM.Collect$$libinit$$00000000) refers (Special) to libinit2.o(.ARM.Collect$$libinit$$00000015) for __rt_lib_init_lc_monetary_1
    libinit.o(.ARM.Collect$$libinit$$00000000) refers (Special) to libinit2.o(.ARM.Collect$$libinit$$00000017) for __rt_lib_init_lc_numeric_1
    libinit.o(.ARM.Collect$$libinit$$00000000) refers (Special) to libinit2.o(.ARM.Collect$$libinit$$00000019) for __rt_lib_init_lc_time_1
    libinit.o(.ARM.Collect$$libinit$$00000000) refers (Special) to libinit2.o(.ARM.Collect$$libinit$$00000004) for __rt_lib_init_preinit_1
    libinit.o(.ARM.Collect$$libinit$$00000000) refers (Special) to libinit2.o(.ARM.Collect$$libinit$$0000000E) for __rt_lib_init_rand_1
    libinit.o(.ARM.Collect$$libinit$$00000000) refers (Special) to libinit2.o(.ARM.Collect$$libinit$$00000033) for __rt_lib_init_return
    libinit.o(.ARM.Collect$$libinit$$00000000) refers (Special) to libinit2.o(.ARM.Collect$$libinit$$0000001D) for __rt_lib_init_signal_1
    libinit.o(.ARM.Collect$$libinit$$00000000) refers (Special) to libinit2.o(.ARM.Collect$$libinit$$00000025) for __rt_lib_init_stdio_1
    libinit.o(.ARM.Collect$$libinit$$00000000) refers (Special) to libinit2.o(.ARM.Collect$$libinit$$0000000C) for __rt_lib_init_user_alloc_1
    sys_exit.o(.text) refers (Special) to use_no_semi.o(.text) for __I$use$semihosting
    sys_exit.o(.text) refers (Special) to indicate_semi.o(.text) for __semihosting_library_function
    rtexit.o(.ARM.Collect$$rtexit$$00000000) refers (Special) to rtexit2.o(.ARM.Collect$$rtexit$$00000004) for __rt_exit_exit
    rtexit.o(.ARM.Collect$$rtexit$$00000000) refers (Special) to rtexit2.o(.ARM.Collect$$rtexit$$00000003) for __rt_exit_ls
    rtexit.o(.ARM.Collect$$rtexit$$00000000) refers (Special) to rtexit2.o(.ARM.Collect$$rtexit$$00000002) for __rt_exit_prels_1
    rtexit.o(.ARM.exidx) refers (Special) to rtexit2.o(.ARM.Collect$$rtexit$$00000004) for __rt_exit_exit
    rtexit.o(.ARM.exidx) refers (Special) to rtexit2.o(.ARM.Collect$$rtexit$$00000003) for __rt_exit_ls
    rtexit.o(.ARM.exidx) refers (Special) to rtexit2.o(.ARM.Collect$$rtexit$$00000002) for __rt_exit_prels_1
    rtexit.o(.ARM.exidx) refers to rtexit.o(.ARM.Collect$$rtexit$$00000000) for .ARM.Collect$$rtexit$$00000000
    lc_ctype_c.o(locale$$data) refers (Special) to libinit2.o(.ARM.Collect$$libinit$$00000012) for __rt_lib_init_lc_ctype_2
    lc_ctype_c.o(locale$$code) refers (Special) to libinit2.o(.ARM.Collect$$libinit$$00000012) for __rt_lib_init_lc_ctype_2
    lc_ctype_c.o(locale$$code) refers to strcmpv7m.o(.text) for strcmp
    lc_ctype_c.o(locale$$code) refers to lc_ctype_c.o(locale$$data) for __lcctype_c_name
    __raise.o(.text) refers to defsig.o(CL$$defsig) for __default_signal_handler
    defsig_general.o(.text) refers to sys_wrch.o(.text) for _ttywrch
    libshutdown2.o(.ARM.Collect$$libshutdown$$0000000C) refers (Weak) to term_alloc.o(.text) for _terminate_alloc
    sys_wrch.o(.text) refers (Special) to use_no_semi.o(.text) for __I$use$semihosting
    sys_wrch.o(.text) refers (Special) to indicate_semi.o(.text) for __semihosting_library_function
    rtexit2.o(.ARM.Collect$$rtexit$$00000003) refers to libshutdown.o(.ARM.Collect$$libshutdown$$00000000) for __rt_lib_shutdown
    rtexit2.o(.ARM.Collect$$rtexit$$00000004) refers to sys_exit.o(.text) for _sys_exit
    rtexit2.o(.ARM.exidx) refers to rtexit2.o(.ARM.Collect$$rtexit$$00000001) for .ARM.Collect$$rtexit$$00000001
    rtexit2.o(.ARM.exidx) refers to rtexit2.o(.ARM.Collect$$rtexit$$00000003) for .ARM.Collect$$rtexit$$00000003
    rtexit2.o(.ARM.exidx) refers to rtexit2.o(.ARM.Collect$$rtexit$$00000004) for .ARM.Collect$$rtexit$$00000004
    defsig.o(CL$$defsig) refers to defsig_rtmem_inner.o(.text) for __rt_SIGRTMEM_inner
    defsig_abrt_inner.o(.text) refers to defsig_general.o(.text) for __default_signal_display
    defsig_fpe_inner.o(.text) refers to defsig_general.o(.text) for __default_signal_display
    defsig_rtred_inner.o(.text) refers to defsig_general.o(.text) for __default_signal_display
    defsig_stak_inner.o(.text) refers to defsig_general.o(.text) for __default_signal_display
    defsig_pvfn_inner.o(.text) refers to defsig_general.o(.text) for __default_signal_display
    defsig_cppl_inner.o(.text) refers to defsig_general.o(.text) for __default_signal_display
    defsig_segv_inner.o(.text) refers to defsig_general.o(.text) for __default_signal_display
    defsig_other.o(.text) refers to defsig_general.o(.text) for __default_signal_display
    libshutdown.o(.ARM.Collect$$libshutdown$$00000000) refers (Special) to libshutdown2.o(.ARM.Collect$$libshutdown$$00000006) for __rt_lib_shutdown_fp_trap_1
    libshutdown.o(.ARM.Collect$$libshutdown$$00000000) refers (Special) to libshutdown2.o(.ARM.Collect$$libshutdown$$0000000E) for __rt_lib_shutdown_heap_1
    libshutdown.o(.ARM.Collect$$libshutdown$$00000000) refers (Special) to libshutdown2.o(.ARM.Collect$$libshutdown$$0000000F) for __rt_lib_shutdown_return
    libshutdown.o(.ARM.Collect$$libshutdown$$00000000) refers (Special) to libshutdown2.o(.ARM.Collect$$libshutdown$$00000009) for __rt_lib_shutdown_signal_1
    libshutdown.o(.ARM.Collect$$libshutdown$$00000000) refers (Special) to libshutdown2.o(.ARM.Collect$$libshutdown$$00000003) for __rt_lib_shutdown_stdio_1
    libshutdown.o(.ARM.Collect$$libshutdown$$00000000) refers (Special) to libshutdown2.o(.ARM.Collect$$libshutdown$$0000000B) for __rt_lib_shutdown_user_alloc_1


==============================================================================

Removing Unused input sections from the image.

    Removing main.o(.rev16_text), (4 bytes).
    Removing main.o(.revsh_text), (4 bytes).
    Removing main.o(.rrx_text), (6 bytes).
    Removing application.o(.rev16_text), (4 bytes).
    Removing application.o(.revsh_text), (4 bytes).
    Removing application.o(.rrx_text), (6 bytes).
    Removing application.o(i.PsdkBigLEDTest), (152 bytes).
    Removing application.o(i.PsdkComInfSw), (6 bytes).
    Removing application.o(i.PsdkRunIndicate), (2 bytes).
    Removing application.o(.data), (4 bytes).
    Removing dji_ringbuffer.o(i.RingBuf_GetUnusedSize), (16 bytes).
    Removing flash.o(.rev16_text), (4 bytes).
    Removing flash.o(.revsh_text), (4 bytes).
    Removing flash.o(.rrx_text), (6 bytes).
    Removing flash.o(.bss), (2048 bytes).
    Removing led_button_switch.o(.rev16_text), (4 bytes).
    Removing led_button_switch.o(.revsh_text), (4 bytes).
    Removing led_button_switch.o(.rrx_text), (6 bytes).
    Removing led_button_switch.o(.data), (4 bytes).
    Removing log_printf.o(.rev16_text), (4 bytes).
    Removing log_printf.o(.revsh_text), (4 bytes).
    Removing log_printf.o(.rrx_text), (6 bytes).
    Removing sys.o(.rev16_text), (4 bytes).
    Removing sys.o(.revsh_text), (4 bytes).
    Removing sys.o(.rrx_text), (6 bytes).
    Removing sys.o(i.NVIC_Configuration), (42 bytes).
    Removing sys.o(i.NVIC_SetPriority), (40 bytes).
    Removing sys.o(i.SysTick_Configuration), (68 bytes).
    Removing sys.o(i.Sys_Delay), (30 bytes).
    Removing sys.o(i.Sys_GetTick), (12 bytes).
    Removing sys.o(i.Sys_IncTick), (16 bytes).
    Removing sys.o(i.Sys_Init), (12 bytes).
    Removing sys.o(i.Wrap_NVIC_SetPriority), (132 bytes).
    Removing sys.o(.data), (4 bytes).
    Removing uart.o(.rev16_text), (4 bytes).
    Removing uart.o(.revsh_text), (4 bytes).
    Removing uart.o(.rrx_text), (6 bytes).
    Removing motordriver.o(.rev16_text), (4 bytes).
    Removing motordriver.o(.revsh_text), (4 bytes).
    Removing motordriver.o(.rrx_text), (6 bytes).
    Removing motordriver.o(i.TurnOFFLED), (20 bytes).
    Removing motordriver.o(i.TurnONLED), (20 bytes).
    Removing gua_timer1_pwm.o(.rev16_text), (4 bytes).
    Removing gua_timer1_pwm.o(.revsh_text), (4 bytes).
    Removing gua_timer1_pwm.o(.rrx_text), (6 bytes).
    Removing gua_timer1_pwm.o(i.GUA_Timer1_PWM_Config_Init), (152 bytes).
    Removing gua_timer1_pwm.o(i.GUA_Timer1_PWM_IO_Init), (44 bytes).
    Removing gua_timer1_pwm.o(i.GUA_Timer1_PWM_Init), (16 bytes).
    Removing gua_timer1_pwm.o(i.GUA_Timer1_PWM_SetDutyCycle), (40 bytes).
    Removing gua_timer1_pwm.o(i.GUA_Timer1_PWM_Status), (40 bytes).
    Removing adc.o(.rev16_text), (4 bytes).
    Removing adc.o(.revsh_text), (4 bytes).
    Removing adc.o(.rrx_text), (6 bytes).
    Removing stm32f10x_gpio.o(.rev16_text), (4 bytes).
    Removing stm32f10x_gpio.o(.revsh_text), (4 bytes).
    Removing stm32f10x_gpio.o(.rrx_text), (6 bytes).
    Removing stm32f10x_gpio.o(i.GPIO_AFIODeInit), (20 bytes).
    Removing stm32f10x_gpio.o(i.GPIO_DeInit), (200 bytes).
    Removing stm32f10x_gpio.o(i.GPIO_ETH_MediaInterfaceConfig), (12 bytes).
    Removing stm32f10x_gpio.o(i.GPIO_EXTILineConfig), (64 bytes).
    Removing stm32f10x_gpio.o(i.GPIO_EventOutputCmd), (12 bytes).
    Removing stm32f10x_gpio.o(i.GPIO_EventOutputConfig), (32 bytes).
    Removing stm32f10x_gpio.o(i.GPIO_PinLockConfig), (18 bytes).
    Removing stm32f10x_gpio.o(i.GPIO_ReadInputData), (8 bytes).
    Removing stm32f10x_gpio.o(i.GPIO_ReadInputDataBit), (18 bytes).
    Removing stm32f10x_gpio.o(i.GPIO_ReadOutputData), (8 bytes).
    Removing stm32f10x_gpio.o(i.GPIO_StructInit), (16 bytes).
    Removing stm32f10x_gpio.o(i.GPIO_Write), (4 bytes).
    Removing stm32f10x_rcc.o(.rev16_text), (4 bytes).
    Removing stm32f10x_rcc.o(.revsh_text), (4 bytes).
    Removing stm32f10x_rcc.o(.rrx_text), (6 bytes).
    Removing stm32f10x_rcc.o(i.RCC_AHBPeriphClockCmd), (32 bytes).
    Removing stm32f10x_rcc.o(i.RCC_AdjustHSICalibrationValue), (24 bytes).
    Removing stm32f10x_rcc.o(i.RCC_BackupResetCmd), (12 bytes).
    Removing stm32f10x_rcc.o(i.RCC_ClearFlag), (20 bytes).
    Removing stm32f10x_rcc.o(i.RCC_ClearITPendingBit), (12 bytes).
    Removing stm32f10x_rcc.o(i.RCC_ClockSecuritySystemCmd), (12 bytes).
    Removing stm32f10x_rcc.o(i.RCC_GetITStatus), (24 bytes).
    Removing stm32f10x_rcc.o(i.RCC_HSEConfig), (76 bytes).
    Removing stm32f10x_rcc.o(i.RCC_ITConfig), (32 bytes).
    Removing stm32f10x_rcc.o(i.RCC_LSEConfig), (52 bytes).
    Removing stm32f10x_rcc.o(i.RCC_LSICmd), (12 bytes).
    Removing stm32f10x_rcc.o(i.RCC_MCOConfig), (12 bytes).
    Removing stm32f10x_rcc.o(i.RCC_RTCCLKCmd), (12 bytes).
    Removing stm32f10x_rcc.o(i.RCC_RTCCLKConfig), (16 bytes).
    Removing stm32f10x_rcc.o(i.RCC_USBCLKConfig), (12 bytes).
    Removing stm32f10x_rcc.o(i.RCC_WaitForHSEStartUp), (56 bytes).
    Removing stm32f10x_adc.o(.rev16_text), (4 bytes).
    Removing stm32f10x_adc.o(.revsh_text), (4 bytes).
    Removing stm32f10x_adc.o(.rrx_text), (6 bytes).
    Removing stm32f10x_adc.o(i.ADC_AnalogWatchdogCmd), (20 bytes).
    Removing stm32f10x_adc.o(i.ADC_AnalogWatchdogSingleChannelConfig), (16 bytes).
    Removing stm32f10x_adc.o(i.ADC_AnalogWatchdogThresholdsConfig), (6 bytes).
    Removing stm32f10x_adc.o(i.ADC_AutoInjectedConvCmd), (22 bytes).
    Removing stm32f10x_adc.o(i.ADC_ClearFlag), (6 bytes).
    Removing stm32f10x_adc.o(i.ADC_ClearITPendingBit), (10 bytes).
    Removing stm32f10x_adc.o(i.ADC_DMACmd), (22 bytes).
    Removing stm32f10x_adc.o(i.ADC_DeInit), (92 bytes).
    Removing stm32f10x_adc.o(i.ADC_DiscModeChannelCountConfig), (24 bytes).
    Removing stm32f10x_adc.o(i.ADC_DiscModeCmd), (22 bytes).
    Removing stm32f10x_adc.o(i.ADC_ExternalTrigConvCmd), (22 bytes).
    Removing stm32f10x_adc.o(i.ADC_ExternalTrigInjectedConvCmd), (22 bytes).
    Removing stm32f10x_adc.o(i.ADC_ExternalTrigInjectedConvConfig), (16 bytes).
    Removing stm32f10x_adc.o(i.ADC_GetDualModeConversionValue), (12 bytes).
    Removing stm32f10x_adc.o(i.ADC_GetITStatus), (36 bytes).
    Removing stm32f10x_adc.o(i.ADC_GetInjectedConversionValue), (28 bytes).
    Removing stm32f10x_adc.o(i.ADC_GetSoftwareStartConvStatus), (20 bytes).
    Removing stm32f10x_adc.o(i.ADC_GetSoftwareStartInjectedConvCmdStatus), (20 bytes).
    Removing stm32f10x_adc.o(i.ADC_ITConfig), (24 bytes).
    Removing stm32f10x_adc.o(i.ADC_InjectedChannelConfig), (130 bytes).
    Removing stm32f10x_adc.o(i.ADC_InjectedDiscModeCmd), (22 bytes).
    Removing stm32f10x_adc.o(i.ADC_InjectedSequencerLengthConfig), (24 bytes).
    Removing stm32f10x_adc.o(i.ADC_SetInjectedOffset), (20 bytes).
    Removing stm32f10x_adc.o(i.ADC_SoftwareStartInjectedConvCmd), (22 bytes).
    Removing stm32f10x_adc.o(i.ADC_StructInit), (18 bytes).
    Removing stm32f10x_adc.o(i.ADC_TempSensorVrefintCmd), (36 bytes).
    Removing stm32f10x_dma.o(.rev16_text), (4 bytes).
    Removing stm32f10x_dma.o(.revsh_text), (4 bytes).
    Removing stm32f10x_dma.o(.rrx_text), (6 bytes).
    Removing stm32f10x_dma.o(i.DMA_ClearFlag), (28 bytes).
    Removing stm32f10x_dma.o(i.DMA_ClearITPendingBit), (28 bytes).
    Removing stm32f10x_dma.o(i.DMA_Cmd), (24 bytes).
    Removing stm32f10x_dma.o(i.DMA_DeInit), (332 bytes).
    Removing stm32f10x_dma.o(i.DMA_GetCurrDataCounter), (8 bytes).
    Removing stm32f10x_dma.o(i.DMA_GetFlagStatus), (44 bytes).
    Removing stm32f10x_dma.o(i.DMA_GetITStatus), (44 bytes).
    Removing stm32f10x_dma.o(i.DMA_ITConfig), (18 bytes).
    Removing stm32f10x_dma.o(i.DMA_Init), (60 bytes).
    Removing stm32f10x_dma.o(i.DMA_SetCurrDataCounter), (4 bytes).
    Removing stm32f10x_dma.o(i.DMA_StructInit), (26 bytes).
    Removing stm32f10x_exti.o(.rev16_text), (4 bytes).
    Removing stm32f10x_exti.o(.revsh_text), (4 bytes).
    Removing stm32f10x_exti.o(.rrx_text), (6 bytes).
    Removing stm32f10x_exti.o(i.EXTI_ClearFlag), (12 bytes).
    Removing stm32f10x_exti.o(i.EXTI_ClearITPendingBit), (12 bytes).
    Removing stm32f10x_exti.o(i.EXTI_DeInit), (36 bytes).
    Removing stm32f10x_exti.o(i.EXTI_GenerateSWInterrupt), (16 bytes).
    Removing stm32f10x_exti.o(i.EXTI_GetFlagStatus), (24 bytes).
    Removing stm32f10x_exti.o(i.EXTI_GetITStatus), (40 bytes).
    Removing stm32f10x_exti.o(i.EXTI_Init), (148 bytes).
    Removing stm32f10x_exti.o(i.EXTI_StructInit), (16 bytes).
    Removing stm32f10x_flash.o(.rev16_text), (4 bytes).
    Removing stm32f10x_flash.o(.revsh_text), (4 bytes).
    Removing stm32f10x_flash.o(.rrx_text), (6 bytes).
    Removing stm32f10x_flash.o(i.FLASH_ClearFlag), (12 bytes).
    Removing stm32f10x_flash.o(i.FLASH_EnableWriteProtection), (196 bytes).
    Removing stm32f10x_flash.o(i.FLASH_EraseAllBank1Pages), (72 bytes).
    Removing stm32f10x_flash.o(i.FLASH_EraseAllPages), (72 bytes).
    Removing stm32f10x_flash.o(i.FLASH_EraseOptionBytes), (168 bytes).
    Removing stm32f10x_flash.o(i.FLASH_ErasePage), (76 bytes).
    Removing stm32f10x_flash.o(i.FLASH_GetBank1Status), (52 bytes).
    Removing stm32f10x_flash.o(i.FLASH_GetFlagStatus), (48 bytes).
    Removing stm32f10x_flash.o(i.FLASH_GetPrefetchBufferStatus), (24 bytes).
    Removing stm32f10x_flash.o(i.FLASH_GetReadOutProtectionStatus), (24 bytes).
    Removing stm32f10x_flash.o(i.FLASH_GetStatus), (52 bytes).
    Removing stm32f10x_flash.o(i.FLASH_GetUserOptionByte), (12 bytes).
    Removing stm32f10x_flash.o(i.FLASH_GetWriteProtectionOptionByte), (12 bytes).
    Removing stm32f10x_flash.o(i.FLASH_HalfCycleAccessCmd), (28 bytes).
    Removing stm32f10x_flash.o(i.FLASH_ITConfig), (32 bytes).
    Removing stm32f10x_flash.o(i.FLASH_Lock), (20 bytes).
    Removing stm32f10x_flash.o(i.FLASH_LockBank1), (20 bytes).
    Removing stm32f10x_flash.o(i.FLASH_PrefetchBufferCmd), (28 bytes).
    Removing stm32f10x_flash.o(i.FLASH_ProgramHalfWord), (64 bytes).
    Removing stm32f10x_flash.o(i.FLASH_ProgramOptionByteData), (84 bytes).
    Removing stm32f10x_flash.o(i.FLASH_ProgramWord), (108 bytes).
    Removing stm32f10x_flash.o(i.FLASH_ReadOutProtection), (172 bytes).
    Removing stm32f10x_flash.o(i.FLASH_SetLatency), (24 bytes).
    Removing stm32f10x_flash.o(i.FLASH_Unlock), (24 bytes).
    Removing stm32f10x_flash.o(i.FLASH_UnlockBank1), (24 bytes).
    Removing stm32f10x_flash.o(i.FLASH_UserOptionByteConfig), (104 bytes).
    Removing stm32f10x_flash.o(i.FLASH_WaitForLastBank1Operation), (38 bytes).
    Removing stm32f10x_flash.o(i.FLASH_WaitForLastOperation), (38 bytes).
    Removing stm32f10x_pwr.o(.rev16_text), (4 bytes).
    Removing stm32f10x_pwr.o(.revsh_text), (4 bytes).
    Removing stm32f10x_pwr.o(.rrx_text), (6 bytes).
    Removing stm32f10x_pwr.o(i.PWR_BackupAccessCmd), (12 bytes).
    Removing stm32f10x_pwr.o(i.PWR_ClearFlag), (20 bytes).
    Removing stm32f10x_pwr.o(i.PWR_DeInit), (22 bytes).
    Removing stm32f10x_pwr.o(i.PWR_EnterSTANDBYMode), (52 bytes).
    Removing stm32f10x_pwr.o(i.PWR_EnterSTOPMode), (64 bytes).
    Removing stm32f10x_pwr.o(i.PWR_GetFlagStatus), (24 bytes).
    Removing stm32f10x_pwr.o(i.PWR_PVDCmd), (12 bytes).
    Removing stm32f10x_pwr.o(i.PWR_PVDLevelConfig), (24 bytes).
    Removing stm32f10x_pwr.o(i.PWR_WakeUpPinCmd), (12 bytes).
    Removing stm32f10x_tim.o(.rev16_text), (4 bytes).
    Removing stm32f10x_tim.o(.revsh_text), (4 bytes).
    Removing stm32f10x_tim.o(.rrx_text), (6 bytes).
    Removing stm32f10x_tim.o(i.TI1_Config), (128 bytes).
    Removing stm32f10x_tim.o(i.TI2_Config), (152 bytes).
    Removing stm32f10x_tim.o(i.TI3_Config), (144 bytes).
    Removing stm32f10x_tim.o(i.TI4_Config), (152 bytes).
    Removing stm32f10x_tim.o(i.TIM_BDTRConfig), (32 bytes).
    Removing stm32f10x_tim.o(i.TIM_BDTRStructInit), (18 bytes).
    Removing stm32f10x_tim.o(i.TIM_CCPreloadControl), (24 bytes).
    Removing stm32f10x_tim.o(i.TIM_CCxCmd), (30 bytes).
    Removing stm32f10x_tim.o(i.TIM_CCxNCmd), (30 bytes).
    Removing stm32f10x_tim.o(i.TIM_ClearFlag), (6 bytes).
    Removing stm32f10x_tim.o(i.TIM_ClearOC1Ref), (18 bytes).
    Removing stm32f10x_tim.o(i.TIM_ClearOC2Ref), (24 bytes).
    Removing stm32f10x_tim.o(i.TIM_ClearOC3Ref), (18 bytes).
    Removing stm32f10x_tim.o(i.TIM_ClearOC4Ref), (24 bytes).
    Removing stm32f10x_tim.o(i.TIM_CounterModeConfig), (18 bytes).
    Removing stm32f10x_tim.o(i.TIM_CtrlPWMOutputs), (30 bytes).
    Removing stm32f10x_tim.o(i.TIM_DMACmd), (18 bytes).
    Removing stm32f10x_tim.o(i.TIM_DMAConfig), (10 bytes).
    Removing stm32f10x_tim.o(i.TIM_ETRClockMode1Config), (54 bytes).
    Removing stm32f10x_tim.o(i.TIM_ETRClockMode2Config), (32 bytes).
    Removing stm32f10x_tim.o(i.TIM_ETRConfig), (28 bytes).
    Removing stm32f10x_tim.o(i.TIM_EncoderInterfaceConfig), (66 bytes).
    Removing stm32f10x_tim.o(i.TIM_ForcedOC1Config), (18 bytes).
    Removing stm32f10x_tim.o(i.TIM_ForcedOC2Config), (26 bytes).
    Removing stm32f10x_tim.o(i.TIM_ForcedOC3Config), (18 bytes).
    Removing stm32f10x_tim.o(i.TIM_ForcedOC4Config), (26 bytes).
    Removing stm32f10x_tim.o(i.TIM_GenerateEvent), (4 bytes).
    Removing stm32f10x_tim.o(i.TIM_GetCapture1), (6 bytes).
    Removing stm32f10x_tim.o(i.TIM_GetCapture2), (6 bytes).
    Removing stm32f10x_tim.o(i.TIM_GetCapture3), (6 bytes).
    Removing stm32f10x_tim.o(i.TIM_GetCapture4), (8 bytes).
    Removing stm32f10x_tim.o(i.TIM_GetCounter), (6 bytes).
    Removing stm32f10x_tim.o(i.TIM_GetFlagStatus), (18 bytes).
    Removing stm32f10x_tim.o(i.TIM_GetPrescaler), (6 bytes).
    Removing stm32f10x_tim.o(i.TIM_ICInit), (172 bytes).
    Removing stm32f10x_tim.o(i.TIM_ICStructInit), (18 bytes).
    Removing stm32f10x_tim.o(i.TIM_ITRxExternalClockConfig), (24 bytes).
    Removing stm32f10x_tim.o(i.TIM_InternalClockConfig), (12 bytes).
    Removing stm32f10x_tim.o(i.TIM_OC1FastConfig), (18 bytes).
    Removing stm32f10x_tim.o(i.TIM_OC1Init), (152 bytes).
    Removing stm32f10x_tim.o(i.TIM_OC1NPolarityConfig), (18 bytes).
    Removing stm32f10x_tim.o(i.TIM_OC1PolarityConfig), (18 bytes).
    Removing stm32f10x_tim.o(i.TIM_OC1PreloadConfig), (18 bytes).
    Removing stm32f10x_tim.o(i.TIM_OC2FastConfig), (26 bytes).
    Removing stm32f10x_tim.o(i.TIM_OC2Init), (164 bytes).
    Removing stm32f10x_tim.o(i.TIM_OC2NPolarityConfig), (26 bytes).
    Removing stm32f10x_tim.o(i.TIM_OC2PolarityConfig), (26 bytes).
    Removing stm32f10x_tim.o(i.TIM_OC2PreloadConfig), (26 bytes).
    Removing stm32f10x_tim.o(i.TIM_OC3FastConfig), (18 bytes).
    Removing stm32f10x_tim.o(i.TIM_OC3Init), (160 bytes).
    Removing stm32f10x_tim.o(i.TIM_OC3NPolarityConfig), (26 bytes).
    Removing stm32f10x_tim.o(i.TIM_OC3PolarityConfig), (26 bytes).
    Removing stm32f10x_tim.o(i.TIM_OC3PreloadConfig), (18 bytes).
    Removing stm32f10x_tim.o(i.TIM_OC4FastConfig), (26 bytes).
    Removing stm32f10x_tim.o(i.TIM_OC4Init), (124 bytes).
    Removing stm32f10x_tim.o(i.TIM_OC4PolarityConfig), (26 bytes).
    Removing stm32f10x_tim.o(i.TIM_OC4PreloadConfig), (26 bytes).
    Removing stm32f10x_tim.o(i.TIM_OCStructInit), (20 bytes).
    Removing stm32f10x_tim.o(i.TIM_PWMIConfig), (124 bytes).
    Removing stm32f10x_tim.o(i.TIM_PrescalerConfig), (6 bytes).
    Removing stm32f10x_tim.o(i.TIM_SelectCCDMA), (24 bytes).
    Removing stm32f10x_tim.o(i.TIM_SelectCOM), (24 bytes).
    Removing stm32f10x_tim.o(i.TIM_SelectHallSensor), (24 bytes).
    Removing stm32f10x_tim.o(i.TIM_SelectInputTrigger), (18 bytes).
    Removing stm32f10x_tim.o(i.TIM_SelectMasterSlaveMode), (18 bytes).
    Removing stm32f10x_tim.o(i.TIM_SelectOCxM), (82 bytes).
    Removing stm32f10x_tim.o(i.TIM_SelectOnePulseMode), (18 bytes).
    Removing stm32f10x_tim.o(i.TIM_SelectOutputTrigger), (18 bytes).
    Removing stm32f10x_tim.o(i.TIM_SelectSlaveMode), (18 bytes).
    Removing stm32f10x_tim.o(i.TIM_SetAutoreload), (4 bytes).
    Removing stm32f10x_tim.o(i.TIM_SetClockDivision), (18 bytes).
    Removing stm32f10x_tim.o(i.TIM_SetCompare1), (4 bytes).
    Removing stm32f10x_tim.o(i.TIM_SetCompare2), (4 bytes).
    Removing stm32f10x_tim.o(i.TIM_SetCompare3), (4 bytes).
    Removing stm32f10x_tim.o(i.TIM_SetCompare4), (6 bytes).
    Removing stm32f10x_tim.o(i.TIM_SetCounter), (4 bytes).
    Removing stm32f10x_tim.o(i.TIM_SetIC1Prescaler), (18 bytes).
    Removing stm32f10x_tim.o(i.TIM_SetIC2Prescaler), (26 bytes).
    Removing stm32f10x_tim.o(i.TIM_SetIC3Prescaler), (18 bytes).
    Removing stm32f10x_tim.o(i.TIM_SetIC4Prescaler), (26 bytes).
    Removing stm32f10x_tim.o(i.TIM_TIxExternalClockConfig), (62 bytes).
    Removing stm32f10x_tim.o(i.TIM_TimeBaseStructInit), (18 bytes).
    Removing stm32f10x_tim.o(i.TIM_UpdateDisableConfig), (24 bytes).
    Removing stm32f10x_tim.o(i.TIM_UpdateRequestConfig), (24 bytes).
    Removing stm32f10x_usart.o(.rev16_text), (4 bytes).
    Removing stm32f10x_usart.o(.revsh_text), (4 bytes).
    Removing stm32f10x_usart.o(.rrx_text), (6 bytes).
    Removing stm32f10x_usart.o(i.USART_ClearFlag), (18 bytes).
    Removing stm32f10x_usart.o(i.USART_ClearITPendingBit), (30 bytes).
    Removing stm32f10x_usart.o(i.USART_ClockInit), (34 bytes).
    Removing stm32f10x_usart.o(i.USART_ClockStructInit), (12 bytes).
    Removing stm32f10x_usart.o(i.USART_DMACmd), (18 bytes).
    Removing stm32f10x_usart.o(i.USART_DeInit), (156 bytes).
    Removing stm32f10x_usart.o(i.USART_GetFlagStatus), (26 bytes).
    Removing stm32f10x_usart.o(i.USART_HalfDuplexCmd), (24 bytes).
    Removing stm32f10x_usart.o(i.USART_IrDACmd), (24 bytes).
    Removing stm32f10x_usart.o(i.USART_IrDAConfig), (18 bytes).
    Removing stm32f10x_usart.o(i.USART_LINBreakDetectLengthConfig), (18 bytes).
    Removing stm32f10x_usart.o(i.USART_LINCmd), (24 bytes).
    Removing stm32f10x_usart.o(i.USART_OneBitMethodCmd), (24 bytes).
    Removing stm32f10x_usart.o(i.USART_OverSampling8Cmd), (22 bytes).
    Removing stm32f10x_usart.o(i.USART_ReceiverWakeUpCmd), (24 bytes).
    Removing stm32f10x_usart.o(i.USART_SendBreak), (10 bytes).
    Removing stm32f10x_usart.o(i.USART_SetAddress), (18 bytes).
    Removing stm32f10x_usart.o(i.USART_SetGuardTime), (16 bytes).
    Removing stm32f10x_usart.o(i.USART_SetPrescaler), (16 bytes).
    Removing stm32f10x_usart.o(i.USART_SmartCardCmd), (24 bytes).
    Removing stm32f10x_usart.o(i.USART_SmartCardNACKCmd), (24 bytes).
    Removing stm32f10x_usart.o(i.USART_StructInit), (24 bytes).
    Removing stm32f10x_usart.o(i.USART_WakeUpConfig), (18 bytes).
    Removing misc.o(.rev16_text), (4 bytes).
    Removing misc.o(.revsh_text), (4 bytes).
    Removing misc.o(.rrx_text), (6 bytes).
    Removing misc.o(i.NVIC_PriorityGroupConfig), (20 bytes).
    Removing misc.o(i.NVIC_SetVectorTable), (20 bytes).
    Removing misc.o(i.NVIC_SystemLPConfig), (32 bytes).
    Removing misc.o(i.SysTick_CLKSourceConfig), (40 bytes).
    Removing psdk_aes.o(.rev16_text), (4 bytes).
    Removing psdk_aes.o(.revsh_text), (4 bytes).
    Removing psdk_aes.o(.rrx_text), (6 bytes).
    Removing psdk_crc.o(.rev16_text), (4 bytes).
    Removing psdk_crc.o(.revsh_text), (4 bytes).
    Removing psdk_crc.o(.rrx_text), (6 bytes).
    Removing psdk_crc.o(i.PsdkCrc_Crc8), (88 bytes).
    Removing psdk_debug.o(.rev16_text), (4 bytes).
    Removing psdk_debug.o(.revsh_text), (4 bytes).
    Removing psdk_debug.o(.rrx_text), (6 bytes).
    Removing psdk_proto.o(.rev16_text), (4 bytes).
    Removing psdk_proto.o(.revsh_text), (4 bytes).
    Removing psdk_proto.o(.rrx_text), (6 bytes).
    Removing psdk_proto.o(i.PsdkProto_DeInit), (6 bytes).
    Removing psdk_proto_parse.o(.rev16_text), (4 bytes).
    Removing psdk_proto_parse.o(.revsh_text), (4 bytes).
    Removing psdk_proto_parse.o(.rrx_text), (6 bytes).
    Removing psdk_arch_sys.o(.rev16_text), (4 bytes).
    Removing psdk_arch_sys.o(.revsh_text), (4 bytes).
    Removing psdk_arch_sys.o(.rrx_text), (6 bytes).
    Removing psdk_app_func.o(.rev16_text), (4 bytes).
    Removing psdk_app_func.o(.revsh_text), (4 bytes).
    Removing psdk_app_func.o(.rrx_text), (6 bytes).
    Removing psdk_msg_subcribe.o(.rev16_text), (4 bytes).
    Removing psdk_msg_subcribe.o(.revsh_text), (4 bytes).
    Removing psdk_msg_subcribe.o(.rrx_text), (6 bytes).
    Removing psdk_payload_camera.o(.rev16_text), (4 bytes).
    Removing psdk_payload_camera.o(.revsh_text), (4 bytes).
    Removing psdk_payload_camera.o(.rrx_text), (6 bytes).
    Removing psdk_payload_camera.o(i.CameraCmd_FormatSDCard), (52 bytes).
    Removing psdk_payload_camera.o(i.CameraCmd_GetDigitalZoomFactor), (52 bytes).
    Removing psdk_payload_camera.o(i.CameraCmd_GetDigitalZoomSpec), (52 bytes).
    Removing psdk_payload_camera.o(i.CameraCmd_GetFocusAssistantSettings), (52 bytes).
    Removing psdk_payload_camera.o(i.CameraCmd_GetFocusMode), (52 bytes).
    Removing psdk_payload_camera.o(i.CameraCmd_GetFocusRingValue), (52 bytes).
    Removing psdk_payload_camera.o(i.CameraCmd_GetFocusRingValueUpperBound), (52 bytes).
    Removing psdk_payload_camera.o(i.CameraCmd_GetFocusZone), (52 bytes).
    Removing psdk_payload_camera.o(i.CameraCmd_GetMeteringMode), (52 bytes).
    Removing psdk_payload_camera.o(i.CameraCmd_GetMode), (52 bytes).
    Removing psdk_payload_camera.o(i.CameraCmd_GetOpticalZoomFactor), (56 bytes).
    Removing psdk_payload_camera.o(i.CameraCmd_GetOpticalZoomFocalLength), (56 bytes).
    Removing psdk_payload_camera.o(i.CameraCmd_GetOpticalZoomSpec), (52 bytes).
    Removing psdk_payload_camera.o(i.CameraCmd_GetRecordVideoState), (52 bytes).
    Removing psdk_payload_camera.o(i.CameraCmd_GetSDCardState), (56 bytes).
    Removing psdk_payload_camera.o(i.CameraCmd_GetShootPhotoMode), (52 bytes).
    Removing psdk_payload_camera.o(i.CameraCmd_GetShootPhotoState), (52 bytes).
    Removing psdk_payload_camera.o(i.CameraCmd_GetSpotMetering), (52 bytes).
    Removing psdk_payload_camera.o(i.CameraCmd_RecordVideo), (48 bytes).
    Removing psdk_payload_camera.o(i.CameraCmd_SetDigitalZoomFactor), (48 bytes).
    Removing psdk_payload_camera.o(i.CameraCmd_SetFocusAssistantSettings), (48 bytes).
    Removing psdk_payload_camera.o(i.CameraCmd_SetFocusMode), (48 bytes).
    Removing psdk_payload_camera.o(i.CameraCmd_SetFocusRingValue), (48 bytes).
    Removing psdk_payload_camera.o(i.CameraCmd_SetFocusZone), (48 bytes).
    Removing psdk_payload_camera.o(i.CameraCmd_SetMeteringMode), (48 bytes).
    Removing psdk_payload_camera.o(i.CameraCmd_SetMode), (48 bytes).
    Removing psdk_payload_camera.o(i.CameraCmd_SetOpticalZoomFocalLength), (48 bytes).
    Removing psdk_payload_camera.o(i.CameraCmd_SetShootPhotoMode), (48 bytes).
    Removing psdk_payload_camera.o(i.CameraCmd_SetSpotMetering), (48 bytes).
    Removing psdk_payload_camera.o(i.CameraCmd_ShootPhoto), (48 bytes).
    Removing psdk_payload_camera.o(i.CameraCmd_StartContinuousOpticalZoom), (52 bytes).
    Removing psdk_payload_camera.o(i.CameraCmd_StopContinuousOpticalZoom), (52 bytes).
    Removing psdk_payload_camera.o(i.CameraCmd_SupportState), (128 bytes).
    Removing psdk_payload_camera.o(i.PsdkCamera_Init), (60 bytes).
    Removing psdk_payload_camera.o(.bss), (144 bytes).
    Removing psdk_payload_camera.o(.constdata), (264 bytes).
    Removing psdk_payload_camera.o(.data), (1 bytes).
    Removing psdk_payload_gimbal.o(.rev16_text), (4 bytes).
    Removing psdk_payload_gimbal.o(.revsh_text), (4 bytes).
    Removing psdk_payload_gimbal.o(.rrx_text), (6 bytes).
    Removing psdk_upper.o(.rev16_text), (4 bytes).
    Removing psdk_upper.o(.revsh_text), (4 bytes).
    Removing psdk_upper.o(.rrx_text), (6 bytes).
    Removing psdk_upper.o(i.PsdkUpper_SetFixVersion), (16 bytes).
    Removing psdk_upper.o(i.PsdkUpper_SetProductAlias), (24 bytes).
    Removing test_app_func.o(.rev16_text), (4 bytes).
    Removing test_app_func.o(.revsh_text), (4 bytes).
    Removing test_app_func.o(.rrx_text), (6 bytes).
    Removing test_msg_push.o(.rev16_text), (4 bytes).
    Removing test_msg_push.o(.revsh_text), (4 bytes).
    Removing test_msg_push.o(.rrx_text), (6 bytes).
    Removing test_payload_gimbal_emu.o(.rev16_text), (4 bytes).
    Removing test_payload_gimbal_emu.o(.revsh_text), (4 bytes).
    Removing test_payload_gimbal_emu.o(.rrx_text), (6 bytes).
    Removing system_stm32f10x.o(.rev16_text), (4 bytes).
    Removing system_stm32f10x.o(.revsh_text), (4 bytes).
    Removing system_stm32f10x.o(.rrx_text), (6 bytes).
    Removing system_stm32f10x.o(i.SystemCoreClockUpdate), (164 bytes).
    Removing system_stm32f10x.o(.data), (20 bytes).

392 unused section(s) (total 14043 bytes) removed from the image.

==============================================================================

Image Symbol Table

    Local Symbols

    Symbol Name                              Value     Ov Type        Size  Object(Section)

    ../clib/angel/boardlib.s                 0x00000000   Number         0  boardinit3.o ABSOLUTE
    ../clib/angel/boardlib.s                 0x00000000   Number         0  boardinit2.o ABSOLUTE
    ../clib/angel/boardlib.s                 0x00000000   Number         0  boardinit1.o ABSOLUTE
    ../clib/angel/boardlib.s                 0x00000000   Number         0  boardshut.o ABSOLUTE
    ../clib/angel/dclz77c.s                  0x00000000   Number         0  __dclz77c.o ABSOLUTE
    ../clib/angel/handlers.s                 0x00000000   Number         0  __scatter_zi.o ABSOLUTE
    ../clib/angel/kernel.s                   0x00000000   Number         0  rtexit.o ABSOLUTE
    ../clib/angel/kernel.s                   0x00000000   Number         0  __rtentry2.o ABSOLUTE
    ../clib/angel/kernel.s                   0x00000000   Number         0  __rtentry4.o ABSOLUTE
    ../clib/angel/kernel.s                   0x00000000   Number         0  rtexit2.o ABSOLUTE
    ../clib/angel/kernel.s                   0x00000000   Number         0  __rtentry.o ABSOLUTE
    ../clib/angel/rt.s                       0x00000000   Number         0  rt_ctype_table.o ABSOLUTE
    ../clib/angel/rt.s                       0x00000000   Number         0  rt_locale.o ABSOLUTE
    ../clib/angel/rt.s                       0x00000000   Number         0  rt_locale_intlibspace.o ABSOLUTE
    ../clib/angel/rt.s                       0x00000000   Number         0  rt_heap_descriptor.o ABSOLUTE
    ../clib/angel/rt.s                       0x00000000   Number         0  rt_heap_descriptor_intlibspace.o ABSOLUTE
    ../clib/angel/rt.s                       0x00000000   Number         0  rt_raise.o ABSOLUTE
    ../clib/angel/scatter.s                  0x00000000   Number         0  __scatter.o ABSOLUTE
    ../clib/angel/startup.s                  0x00000000   Number         0  __main.o ABSOLUTE
    ../clib/angel/sys.s                      0x00000000   Number         0  use_no_semi.o ABSOLUTE
    ../clib/angel/sys.s                      0x00000000   Number         0  indicate_semi.o ABSOLUTE
    ../clib/angel/sys.s                      0x00000000   Number         0  sys_stackheap_outer.o ABSOLUTE
    ../clib/angel/sys.s                      0x00000000   Number         0  libspace.o ABSOLUTE
    ../clib/angel/sys.s                      0x00000000   Number         0  mutex_dummy.o ABSOLUTE
    ../clib/angel/sysapp.c                   0x00000000   Number         0  sys_wrch.o ABSOLUTE
    ../clib/angel/sysapp.c                   0x00000000   Number         0  sys_exit.o ABSOLUTE
    ../clib/angel/sysapp.c                   0x00000000   Number         0  sys_command.o ABSOLUTE
    ../clib/armsys.c                         0x00000000   Number         0  _get_argv_nomalloc.o ABSOLUTE
    ../clib/armsys.c                         0x00000000   Number         0  no_argv.o ABSOLUTE
    ../clib/armsys.c                         0x00000000   Number         0  argv_veneer.o ABSOLUTE
    ../clib/armsys.c                         0x00000000   Number         0  argv_veneer.o ABSOLUTE
    ../clib/armsys.c                         0x00000000   Number         0  _get_argv.o ABSOLUTE
    ../clib/bigflt.c                         0x00000000   Number         0  bigflt0.o ABSOLUTE
    ../clib/btod.s                           0x00000000   Number         0  btod.o ABSOLUTE
    ../clib/heap1.c                          0x00000000   Number         0  h1_alloc_mt.o ABSOLUTE
    ../clib/heap1.c                          0x00000000   Number         0  h1_free.o ABSOLUTE
    ../clib/heap1.c                          0x00000000   Number         0  h1_alloc.o ABSOLUTE
    ../clib/heap1.c                          0x00000000   Number         0  h1_final_mt.o ABSOLUTE
    ../clib/heap1.c                          0x00000000   Number         0  h1_final.o ABSOLUTE
    ../clib/heap1.c                          0x00000000   Number         0  h1_init.o ABSOLUTE
    ../clib/heap1.c                          0x00000000   Number         0  h1_init_mt.o ABSOLUTE
    ../clib/heap1.c                          0x00000000   Number         0  h1_free_mt.o ABSOLUTE
    ../clib/heap1.c                          0x00000000   Number         0  h1_extend_mt.o ABSOLUTE
    ../clib/heap1.c                          0x00000000   Number         0  h1_extend.o ABSOLUTE
    ../clib/heap2.c                          0x00000000   Number         0  fdtree.o ABSOLUTE
    ../clib/heap2.c                          0x00000000   Number         0  heap2.o ABSOLUTE
    ../clib/heap2.c                          0x00000000   Number         0  heap2mt.o ABSOLUTE
    ../clib/heapalloc.c                      0x00000000   Number         0  hguard.o ABSOLUTE
    ../clib/heapalloc.c                      0x00000000   Number         0  malloc.o ABSOLUTE
    ../clib/heapalloc.c                      0x00000000   Number         0  free.o ABSOLUTE
    ../clib/heapalloc.c                      0x00000000   Number         0  hrguard.o ABSOLUTE
    ../clib/heapalloc.c                      0x00000000   Number         0  maybetermalloc2.o ABSOLUTE
    ../clib/heapalloc.c                      0x00000000   Number         0  maybetermalloc1.o ABSOLUTE
    ../clib/heapalloc.c                      0x00000000   Number         0  maybetermalloc1.o ABSOLUTE
    ../clib/heapalloc.c                      0x00000000   Number         0  maybetermalloc2.o ABSOLUTE
    ../clib/heapalloc.c                      0x00000000   Number         0  term_alloc.o ABSOLUTE
    ../clib/heapalloc.c                      0x00000000   Number         0  heapstubs.o ABSOLUTE
    ../clib/heapalloc.c                      0x00000000   Number         0  init_alloc.o ABSOLUTE
    ../clib/heapaux.c                        0x00000000   Number         0  heapauxa.o ABSOLUTE
    ../clib/heapaux.c                        0x00000000   Number         0  heapauxi.o ABSOLUTE
    ../clib/libinit.s                        0x00000000   Number         0  libinit.o ABSOLUTE
    ../clib/libinit.s                        0x00000000   Number         0  libshutdown2.o ABSOLUTE
    ../clib/libinit.s                        0x00000000   Number         0  libshutdown.o ABSOLUTE
    ../clib/libinit.s                        0x00000000   Number         0  libinit2.o ABSOLUTE
    ../clib/locale.c                         0x00000000   Number         0  _wcrtomb.o ABSOLUTE
    ../clib/locale.s                         0x00000000   Number         0  lc_numeric_c.o ABSOLUTE
    ../clib/locale.s                         0x00000000   Number         0  lc_ctype_c.o ABSOLUTE
    ../clib/longlong.s                       0x00000000   Number         0  lludiv10.o ABSOLUTE
    ../clib/memcpset.s                       0x00000000   Number         0  rt_memclr_w.o ABSOLUTE
    ../clib/memcpset.s                       0x00000000   Number         0  rt_memclr.o ABSOLUTE
    ../clib/memcpset.s                       0x00000000   Number         0  rt_memcpy_w.o ABSOLUTE
    ../clib/memcpset.s                       0x00000000   Number         0  rt_memcpy_v6.o ABSOLUTE
    ../clib/memcpset.s                       0x00000000   Number         0  strcmpv7m.o ABSOLUTE
    ../clib/memcpset.s                       0x00000000   Number         0  strncpy.o ABSOLUTE
    ../clib/misc.s                           0x00000000   Number         0  printf_stubs.o ABSOLUTE
    ../clib/printf.c                         0x00000000   Number         0  _snputc.o ABSOLUTE
    ../clib/printf.c                         0x00000000   Number         0  __printf_flags_ss.o ABSOLUTE
    ../clib/printf.c                         0x00000000   Number         0  __printf_ss.o ABSOLUTE
    ../clib/printf.c                         0x00000000   Number         0  _printf_hex_int_ptr.o ABSOLUTE
    ../clib/printf.c                         0x00000000   Number         0  __printf_wp.o ABSOLUTE
    ../clib/printf.c                         0x00000000   Number         0  __printf_flags_wp.o ABSOLUTE
    ../clib/printf.c                         0x00000000   Number         0  __printf.o ABSOLUTE
    ../clib/printf.c                         0x00000000   Number         0  _printf_hex_ptr.o ABSOLUTE
    ../clib/printf.c                         0x00000000   Number         0  _printf_hex_int_ll_ptr.o ABSOLUTE
    ../clib/printf.c                         0x00000000   Number         0  _printf_pad.o ABSOLUTE
    ../clib/printf.c                         0x00000000   Number         0  __printf_ss_wp.o ABSOLUTE
    ../clib/printf.c                         0x00000000   Number         0  _sputc.o ABSOLUTE
    ../clib/printf.c                         0x00000000   Number         0  __2sprintf.o ABSOLUTE
    ../clib/printf.c                         0x00000000   Number         0  _printf_char_common.o ABSOLUTE
    ../clib/printf.c                         0x00000000   Number         0  _printf_truncate.o ABSOLUTE
    ../clib/printf.c                         0x00000000   Number         0  _printf_dec.o ABSOLUTE
    ../clib/printf.c                         0x00000000   Number         0  _printf_fp_dec.o ABSOLUTE
    ../clib/printf.c                         0x00000000   Number         0  _printf_charcount.o ABSOLUTE
    ../clib/printf.c                         0x00000000   Number         0  __printf_flags_ss_wp.o ABSOLUTE
    ../clib/printf.c                         0x00000000   Number         0  __printf_flags.o ABSOLUTE
    ../clib/printf.c                         0x00000000   Number         0  noretval__2sprintf.o ABSOLUTE
    ../clib/printf.c                         0x00000000   Number         0  vsnprintf.o ABSOLUTE
    ../clib/printf.c                         0x00000000   Number         0  _printf_hex_int_ll.o ABSOLUTE
    ../clib/printf.c                         0x00000000   Number         0  _printf_hex_ll_ptr.o ABSOLUTE
    ../clib/printf.c                         0x00000000   Number         0  _printf_hex_ll.o ABSOLUTE
    ../clib/printf.c                         0x00000000   Number         0  _printf_wchar.o ABSOLUTE
    ../clib/printf.c                         0x00000000   Number         0  __printf_nopercent.o ABSOLUTE
    ../clib/printf.c                         0x00000000   Number         0  _printf_oct_int_ll.o ABSOLUTE
    ../clib/printf.c                         0x00000000   Number         0  _printf_oct_int.o ABSOLUTE
    ../clib/printf.c                         0x00000000   Number         0  _printf_oct_ll.o ABSOLUTE
    ../clib/printf.c                         0x00000000   Number         0  _printf_fp_infnan.o ABSOLUTE
    ../clib/printf.c                         0x00000000   Number         0  _printf_longlong_dec.o ABSOLUTE
    ../clib/printf.c                         0x00000000   Number         0  _printf_fp_hex.o ABSOLUTE
    ../clib/printf.c                         0x00000000   Number         0  _printf_wctomb.o ABSOLUTE
    ../clib/printf.c                         0x00000000   Number         0  _printf_intcommon.o ABSOLUTE
    ../clib/printf.c                         0x00000000   Number         0  _printf_char.o ABSOLUTE
    ../clib/printf.c                         0x00000000   Number         0  _printf_hex_int.o ABSOLUTE
    ../clib/printf.c                         0x00000000   Number         0  _printf_str.o ABSOLUTE
    ../clib/printf_percent.s                 0x00000000   Number         0  _printf_percent_end.o ABSOLUTE
    ../clib/printf_percent.s                 0x00000000   Number         0  _printf_llx.o ABSOLUTE
    ../clib/printf_percent.s                 0x00000000   Number         0  _printf_c.o ABSOLUTE
    ../clib/printf_percent.s                 0x00000000   Number         0  _printf_llo.o ABSOLUTE
    ../clib/printf_percent.s                 0x00000000   Number         0  _printf_p.o ABSOLUTE
    ../clib/printf_percent.s                 0x00000000   Number         0  _printf_ls.o ABSOLUTE
    ../clib/printf_percent.s                 0x00000000   Number         0  _printf_d.o ABSOLUTE
    ../clib/printf_percent.s                 0x00000000   Number         0  _printf_u.o ABSOLUTE
    ../clib/printf_percent.s                 0x00000000   Number         0  _printf_e.o ABSOLUTE
    ../clib/printf_percent.s                 0x00000000   Number         0  _printf_lc.o ABSOLUTE
    ../clib/printf_percent.s                 0x00000000   Number         0  _printf_o.o ABSOLUTE
    ../clib/printf_percent.s                 0x00000000   Number         0  _printf_ll.o ABSOLUTE
    ../clib/printf_percent.s                 0x00000000   Number         0  _printf_g.o ABSOLUTE
    ../clib/printf_percent.s                 0x00000000   Number         0  _printf_llu.o ABSOLUTE
    ../clib/printf_percent.s                 0x00000000   Number         0  _printf_lld.o ABSOLUTE
    ../clib/printf_percent.s                 0x00000000   Number         0  _printf_lli.o ABSOLUTE
    ../clib/printf_percent.s                 0x00000000   Number         0  _printf_f.o ABSOLUTE
    ../clib/printf_percent.s                 0x00000000   Number         0  _printf_i.o ABSOLUTE
    ../clib/printf_percent.s                 0x00000000   Number         0  _printf_percent.o ABSOLUTE
    ../clib/printf_percent.s                 0x00000000   Number         0  _printf_a.o ABSOLUTE
    ../clib/printf_percent.s                 0x00000000   Number         0  _printf_n.o ABSOLUTE
    ../clib/printf_percent.s                 0x00000000   Number         0  _printf_s.o ABSOLUTE
    ../clib/printf_percent.s                 0x00000000   Number         0  _printf_x.o ABSOLUTE
    ../clib/printf_percent.s                 0x00000000   Number         0  _printf_l.o ABSOLUTE
    ../clib/signal.c                         0x00000000   Number         0  defsig_segv_inner.o ABSOLUTE
    ../clib/signal.c                         0x00000000   Number         0  defsig_cppl_inner.o ABSOLUTE
    ../clib/signal.c                         0x00000000   Number         0  defsig_pvfn_inner.o ABSOLUTE
    ../clib/signal.c                         0x00000000   Number         0  defsig_stak_inner.o ABSOLUTE
    ../clib/signal.c                         0x00000000   Number         0  defsig_rtred_inner.o ABSOLUTE
    ../clib/signal.c                         0x00000000   Number         0  defsig_fpe_inner.o ABSOLUTE
    ../clib/signal.c                         0x00000000   Number         0  defsig_general.o ABSOLUTE
    ../clib/signal.c                         0x00000000   Number         0  defsig_abrt_inner.o ABSOLUTE
    ../clib/signal.c                         0x00000000   Number         0  defsig_rtmem_formal.o ABSOLUTE
    ../clib/signal.c                         0x00000000   Number         0  defsig_rtmem_inner.o ABSOLUTE
    ../clib/signal.c                         0x00000000   Number         0  defsig_exit.o ABSOLUTE
    ../clib/signal.c                         0x00000000   Number         0  __raise.o ABSOLUTE
    ../clib/signal.c                         0x00000000   Number         0  defsig_rtmem_outer.o ABSOLUTE
    ../clib/signal.c                         0x00000000   Number         0  defsig_other.o ABSOLUTE
    ../clib/signal.s                         0x00000000   Number         0  defsig.o ABSOLUTE
    ../clib/stdlib.c                         0x00000000   Number         0  exit.o ABSOLUTE
    ../clib/string.c                         0x00000000   Number         0  strcpy.o ABSOLUTE
    ../clib/string.c                         0x00000000   Number         0  strlen.o ABSOLUTE
    ../fplib/d2f.s                           0x00000000   Number         0  d2f.o ABSOLUTE
    ../fplib/daddsub.s                       0x00000000   Number         0  daddsub_clz.o ABSOLUTE
    ../fplib/ddiv.s                          0x00000000   Number         0  ddiv.o ABSOLUTE
    ../fplib/dfix.s                          0x00000000   Number         0  dfix.o ABSOLUTE
    ../fplib/dflt.s                          0x00000000   Number         0  dflt_clz.o ABSOLUTE
    ../fplib/dmul.s                          0x00000000   Number         0  dmul.o ABSOLUTE
    ../fplib/dnaninf.s                       0x00000000   Number         0  dnaninf.o ABSOLUTE
    ../fplib/dretinf.s                       0x00000000   Number         0  dretinf.o ABSOLUTE
    ../fplib/f2d.s                           0x00000000   Number         0  f2d.o ABSOLUTE
    ../fplib/fnaninf.s                       0x00000000   Number         0  fnaninf.o ABSOLUTE
    ../fplib/fpinit.s                        0x00000000   Number         0  fpinit.o ABSOLUTE
    ../fplib/fretinf.s                       0x00000000   Number         0  fretinf.o ABSOLUTE
    ../fplib/istatus.s                       0x00000000   Number         0  istatus.o ABSOLUTE
    ../fplib/printf1.s                       0x00000000   Number         0  printf1.o ABSOLUTE
    ../fplib/printf2.s                       0x00000000   Number         0  printf2.o ABSOLUTE
    ../fplib/printf2a.s                      0x00000000   Number         0  printf2a.o ABSOLUTE
    ../fplib/printf2b.s                      0x00000000   Number         0  printf2b.o ABSOLUTE
    ../fplib/usenofp.s                       0x00000000   Number         0  usenofp.o ABSOLUTE
    ../mathlib/fpclassify.c                  0x00000000   Number         0  fpclassify.o ABSOLUTE
    Application\\application.c               0x00000000   Number         0  application.o ABSOLUTE
    Application\\psdk_test\\test_app_func.c  0x00000000   Number         0  test_app_func.o ABSOLUTE
    Application\\psdk_test\\test_msg_push.c  0x00000000   Number         0  test_msg_push.o ABSOLUTE
    Application\\psdk_test\\test_payload_gimbal_emu.c 0x00000000   Number         0  test_payload_gimbal_emu.o ABSOLUTE
    Application\application.c                0x00000000   Number         0  application.o ABSOLUTE
    Application\psdk_test\test_app_func.c    0x00000000   Number         0  test_app_func.o ABSOLUTE
    Application\psdk_test\test_msg_push.c    0x00000000   Number         0  test_msg_push.o ABSOLUTE
    Application\psdk_test\test_payload_gimbal_emu.c 0x00000000   Number         0  test_payload_gimbal_emu.o ABSOLUTE
    BSP\\flash.c                             0x00000000   Number         0  flash.o ABSOLUTE
    BSP\\led_button_switch.c                 0x00000000   Number         0  led_button_switch.o ABSOLUTE
    BSP\\log_printf.c                        0x00000000   Number         0  log_printf.o ABSOLUTE
    BSP\\sys.c                               0x00000000   Number         0  sys.o ABSOLUTE
    BSP\\uart.c                              0x00000000   Number         0  uart.o ABSOLUTE
    BSP\dji_ringbuffer.c                     0x00000000   Number         0  dji_ringbuffer.o ABSOLUTE
    BSP\flash.c                              0x00000000   Number         0  flash.o ABSOLUTE
    BSP\led_button_switch.c                  0x00000000   Number         0  led_button_switch.o ABSOLUTE
    BSP\log_printf.c                         0x00000000   Number         0  log_printf.o ABSOLUTE
    BSP\sys.c                                0x00000000   Number         0  sys.o ABSOLUTE
    BSP\uart.c                               0x00000000   Number         0  uart.o ABSOLUTE
    RTE\Device\STM32F103C8\startup_stm32f10x_md.s 0x00000000   Number         0  startup_stm32f10x_md.o ABSOLUTE
    RTE\Device\STM32F103C8\system_stm32f10x.c 0x00000000   Number         0  system_stm32f10x.o ABSOLUTE
    RTE\\Device\\STM32F103C8\\system_stm32f10x.c 0x00000000   Number         0  system_stm32f10x.o ABSOLUTE
    STM32F10x_StdPeriph_Driver\\src\\misc.c  0x00000000   Number         0  misc.o ABSOLUTE
    STM32F10x_StdPeriph_Driver\\src\\stm32f10x_adc.c 0x00000000   Number         0  stm32f10x_adc.o ABSOLUTE
    STM32F10x_StdPeriph_Driver\\src\\stm32f10x_dma.c 0x00000000   Number         0  stm32f10x_dma.o ABSOLUTE
    STM32F10x_StdPeriph_Driver\\src\\stm32f10x_exti.c 0x00000000   Number         0  stm32f10x_exti.o ABSOLUTE
    STM32F10x_StdPeriph_Driver\\src\\stm32f10x_flash.c 0x00000000   Number         0  stm32f10x_flash.o ABSOLUTE
    STM32F10x_StdPeriph_Driver\\src\\stm32f10x_gpio.c 0x00000000   Number         0  stm32f10x_gpio.o ABSOLUTE
    STM32F10x_StdPeriph_Driver\\src\\stm32f10x_pwr.c 0x00000000   Number         0  stm32f10x_pwr.o ABSOLUTE
    STM32F10x_StdPeriph_Driver\\src\\stm32f10x_rcc.c 0x00000000   Number         0  stm32f10x_rcc.o ABSOLUTE
    STM32F10x_StdPeriph_Driver\\src\\stm32f10x_tim.c 0x00000000   Number         0  stm32f10x_tim.o ABSOLUTE
    STM32F10x_StdPeriph_Driver\\src\\stm32f10x_usart.c 0x00000000   Number         0  stm32f10x_usart.o ABSOLUTE
    STM32F10x_StdPeriph_Driver\src\misc.c    0x00000000   Number         0  misc.o ABSOLUTE
    STM32F10x_StdPeriph_Driver\src\stm32f10x_adc.c 0x00000000   Number         0  stm32f10x_adc.o ABSOLUTE
    STM32F10x_StdPeriph_Driver\src\stm32f10x_dma.c 0x00000000   Number         0  stm32f10x_dma.o ABSOLUTE
    STM32F10x_StdPeriph_Driver\src\stm32f10x_exti.c 0x00000000   Number         0  stm32f10x_exti.o ABSOLUTE
    STM32F10x_StdPeriph_Driver\src\stm32f10x_flash.c 0x00000000   Number         0  stm32f10x_flash.o ABSOLUTE
    STM32F10x_StdPeriph_Driver\src\stm32f10x_gpio.c 0x00000000   Number         0  stm32f10x_gpio.o ABSOLUTE
    STM32F10x_StdPeriph_Driver\src\stm32f10x_pwr.c 0x00000000   Number         0  stm32f10x_pwr.o ABSOLUTE
    STM32F10x_StdPeriph_Driver\src\stm32f10x_rcc.c 0x00000000   Number         0  stm32f10x_rcc.o ABSOLUTE
    STM32F10x_StdPeriph_Driver\src\stm32f10x_tim.c 0x00000000   Number         0  stm32f10x_tim.o ABSOLUTE
    STM32F10x_StdPeriph_Driver\src\stm32f10x_usart.c 0x00000000   Number         0  stm32f10x_usart.o ABSOLUTE
    dc.s                                     0x00000000   Number         0  dc.o ABSOLUTE
    main.c                                   0x00000000   Number         0  main.o ABSOLUTE
    main.c                                   0x00000000   Number         0  main.o ABSOLUTE
    psdk\\psdk_arch\\arch_baremetal\\psdk_arch_sys.c 0x00000000   Number         0  psdk_arch_sys.o ABSOLUTE
    psdk\\psdk_core\\src\\psdk_aes.c         0x00000000   Number         0  psdk_aes.o ABSOLUTE
    psdk\\psdk_core\\src\\psdk_crc.c         0x00000000   Number         0  psdk_crc.o ABSOLUTE
    psdk\\psdk_core\\src\\psdk_debug.c       0x00000000   Number         0  psdk_debug.o ABSOLUTE
    psdk\\psdk_core\\src\\psdk_proto.c       0x00000000   Number         0  psdk_proto.o ABSOLUTE
    psdk\\psdk_core\\src\\psdk_proto_parse.c 0x00000000   Number         0  psdk_proto_parse.o ABSOLUTE
    psdk\\psdk_upper\\src\\psdk_app_func.c   0x00000000   Number         0  psdk_app_func.o ABSOLUTE
    psdk\\psdk_upper\\src\\psdk_msg_subcribe.c 0x00000000   Number         0  psdk_msg_subcribe.o ABSOLUTE
    psdk\\psdk_upper\\src\\psdk_payload_camera.c 0x00000000   Number         0  psdk_payload_camera.o ABSOLUTE
    psdk\\psdk_upper\\src\\psdk_payload_gimbal.c 0x00000000   Number         0  psdk_payload_gimbal.o ABSOLUTE
    psdk\\psdk_upper\\src\\psdk_upper.c      0x00000000   Number         0  psdk_upper.o ABSOLUTE
    psdk\psdk_arch\arch_baremetal\psdk_arch_sys.c 0x00000000   Number         0  psdk_arch_sys.o ABSOLUTE
    psdk\psdk_core\src\psdk_aes.c            0x00000000   Number         0  psdk_aes.o ABSOLUTE
    psdk\psdk_core\src\psdk_crc.c            0x00000000   Number         0  psdk_crc.o ABSOLUTE
    psdk\psdk_core\src\psdk_debug.c          0x00000000   Number         0  psdk_debug.o ABSOLUTE
    psdk\psdk_core\src\psdk_md5.c            0x00000000   Number         0  psdk_md5.o ABSOLUTE
    psdk\psdk_core\src\psdk_proto.c          0x00000000   Number         0  psdk_proto.o ABSOLUTE
    psdk\psdk_core\src\psdk_proto_parse.c    0x00000000   Number         0  psdk_proto_parse.o ABSOLUTE
    psdk\psdk_upper\src\psdk_app_func.c      0x00000000   Number         0  psdk_app_func.o ABSOLUTE
    psdk\psdk_upper\src\psdk_msg_subcribe.c  0x00000000   Number         0  psdk_msg_subcribe.o ABSOLUTE
    psdk\psdk_upper\src\psdk_payload_camera.c 0x00000000   Number         0  psdk_payload_camera.o ABSOLUTE
    psdk\psdk_upper\src\psdk_payload_gimbal.c 0x00000000   Number         0  psdk_payload_gimbal.o ABSOLUTE
    psdk\psdk_upper\src\psdk_upper.c         0x00000000   Number         0  psdk_upper.o ABSOLUTE
    user\ADC.c                               0x00000000   Number         0  adc.o ABSOLUTE
    user\GUA_Timer1_PWM.c                    0x00000000   Number         0  gua_timer1_pwm.o ABSOLUTE
    user\MotorDriver.c                       0x00000000   Number         0  motordriver.o ABSOLUTE
    user\\ADC.c                              0x00000000   Number         0  adc.o ABSOLUTE
    user\\GUA_Timer1_PWM.c                   0x00000000   Number         0  gua_timer1_pwm.o ABSOLUTE
    user\\MotorDriver.c                      0x00000000   Number         0  motordriver.o ABSOLUTE
    RESET                                    0x08000000   Section      236  startup_stm32f10x_md.o(RESET)
    !!!main                                  0x080000ec   Section        8  __main.o(!!!main)
    !!!scatter                               0x080000f4   Section       52  __scatter.o(!!!scatter)
    !!dclz77c                                0x08000128   Section      100  __dclz77c.o(!!dclz77c)
    !!handler_zi                             0x0800018c   Section       28  __scatter_zi.o(!!handler_zi)
    .ARM.Collect$$_printf_percent$$00000000  0x080001a8   Section        0  _printf_percent.o(.ARM.Collect$$_printf_percent$$00000000)
    .ARM.Collect$$_printf_percent$$00000001  0x080001a8   Section        6  _printf_n.o(.ARM.Collect$$_printf_percent$$00000001)
    .ARM.Collect$$_printf_percent$$00000002  0x080001ae   Section        6  _printf_p.o(.ARM.Collect$$_printf_percent$$00000002)
    .ARM.Collect$$_printf_percent$$00000003  0x080001b4   Section        6  _printf_f.o(.ARM.Collect$$_printf_percent$$00000003)
    .ARM.Collect$$_printf_percent$$00000004  0x080001ba   Section        6  _printf_e.o(.ARM.Collect$$_printf_percent$$00000004)
    .ARM.Collect$$_printf_percent$$00000005  0x080001c0   Section        6  _printf_g.o(.ARM.Collect$$_printf_percent$$00000005)
    .ARM.Collect$$_printf_percent$$00000006  0x080001c6   Section        6  _printf_a.o(.ARM.Collect$$_printf_percent$$00000006)
    .ARM.Collect$$_printf_percent$$00000007  0x080001cc   Section       10  _printf_ll.o(.ARM.Collect$$_printf_percent$$00000007)
    .ARM.Collect$$_printf_percent$$00000008  0x080001d6   Section        6  _printf_i.o(.ARM.Collect$$_printf_percent$$00000008)
    .ARM.Collect$$_printf_percent$$00000009  0x080001dc   Section        6  _printf_d.o(.ARM.Collect$$_printf_percent$$00000009)
    .ARM.Collect$$_printf_percent$$0000000A  0x080001e2   Section        6  _printf_u.o(.ARM.Collect$$_printf_percent$$0000000A)
    .ARM.Collect$$_printf_percent$$0000000B  0x080001e8   Section        6  _printf_o.o(.ARM.Collect$$_printf_percent$$0000000B)
    .ARM.Collect$$_printf_percent$$0000000C  0x080001ee   Section        6  _printf_x.o(.ARM.Collect$$_printf_percent$$0000000C)
    .ARM.Collect$$_printf_percent$$0000000D  0x080001f4   Section        6  _printf_lli.o(.ARM.Collect$$_printf_percent$$0000000D)
    .ARM.Collect$$_printf_percent$$0000000E  0x080001fa   Section        6  _printf_lld.o(.ARM.Collect$$_printf_percent$$0000000E)
    .ARM.Collect$$_printf_percent$$0000000F  0x08000200   Section        6  _printf_llu.o(.ARM.Collect$$_printf_percent$$0000000F)
    .ARM.Collect$$_printf_percent$$00000010  0x08000206   Section        6  _printf_llo.o(.ARM.Collect$$_printf_percent$$00000010)
    .ARM.Collect$$_printf_percent$$00000011  0x0800020c   Section        6  _printf_llx.o(.ARM.Collect$$_printf_percent$$00000011)
    .ARM.Collect$$_printf_percent$$00000012  0x08000212   Section       10  _printf_l.o(.ARM.Collect$$_printf_percent$$00000012)
    .ARM.Collect$$_printf_percent$$00000013  0x0800021c   Section        6  _printf_c.o(.ARM.Collect$$_printf_percent$$00000013)
    .ARM.Collect$$_printf_percent$$00000014  0x08000222   Section        6  _printf_s.o(.ARM.Collect$$_printf_percent$$00000014)
    .ARM.Collect$$_printf_percent$$00000015  0x08000228   Section        6  _printf_lc.o(.ARM.Collect$$_printf_percent$$00000015)
    .ARM.Collect$$_printf_percent$$00000016  0x0800022e   Section        6  _printf_ls.o(.ARM.Collect$$_printf_percent$$00000016)
    .ARM.Collect$$_printf_percent$$00000017  0x08000234   Section        4  _printf_percent_end.o(.ARM.Collect$$_printf_percent$$00000017)
    .ARM.Collect$$libinit$$00000000          0x08000238   Section        2  libinit.o(.ARM.Collect$$libinit$$00000000)
    .ARM.Collect$$libinit$$00000002          0x0800023a   Section        0  libinit2.o(.ARM.Collect$$libinit$$00000002)
    .ARM.Collect$$libinit$$00000004          0x0800023a   Section        0  libinit2.o(.ARM.Collect$$libinit$$00000004)
    .ARM.Collect$$libinit$$00000005          0x0800023a   Section        8  libinit2.o(.ARM.Collect$$libinit$$00000005)
    .ARM.Collect$$libinit$$0000000A          0x08000242   Section        0  libinit2.o(.ARM.Collect$$libinit$$0000000A)
    .ARM.Collect$$libinit$$0000000C          0x08000242   Section        0  libinit2.o(.ARM.Collect$$libinit$$0000000C)
    .ARM.Collect$$libinit$$0000000E          0x08000242   Section        0  libinit2.o(.ARM.Collect$$libinit$$0000000E)
    .ARM.Collect$$libinit$$0000000F          0x08000242   Section        6  libinit2.o(.ARM.Collect$$libinit$$0000000F)
    .ARM.Collect$$libinit$$00000011          0x08000248   Section        0  libinit2.o(.ARM.Collect$$libinit$$00000011)
    .ARM.Collect$$libinit$$00000012          0x08000248   Section       12  libinit2.o(.ARM.Collect$$libinit$$00000012)
    .ARM.Collect$$libinit$$00000013          0x08000254   Section        0  libinit2.o(.ARM.Collect$$libinit$$00000013)
    .ARM.Collect$$libinit$$00000015          0x08000254   Section        0  libinit2.o(.ARM.Collect$$libinit$$00000015)
    .ARM.Collect$$libinit$$00000016          0x08000254   Section       10  libinit2.o(.ARM.Collect$$libinit$$00000016)
    .ARM.Collect$$libinit$$00000017          0x0800025e   Section        0  libinit2.o(.ARM.Collect$$libinit$$00000017)
    .ARM.Collect$$libinit$$00000019          0x0800025e   Section        0  libinit2.o(.ARM.Collect$$libinit$$00000019)
    .ARM.Collect$$libinit$$0000001B          0x0800025e   Section        0  libinit2.o(.ARM.Collect$$libinit$$0000001B)
    .ARM.Collect$$libinit$$0000001D          0x0800025e   Section        0  libinit2.o(.ARM.Collect$$libinit$$0000001D)
    .ARM.Collect$$libinit$$0000001F          0x0800025e   Section        0  libinit2.o(.ARM.Collect$$libinit$$0000001F)
    .ARM.Collect$$libinit$$00000021          0x0800025e   Section        0  libinit2.o(.ARM.Collect$$libinit$$00000021)
    .ARM.Collect$$libinit$$00000023          0x0800025e   Section        0  libinit2.o(.ARM.Collect$$libinit$$00000023)
    .ARM.Collect$$libinit$$00000025          0x0800025e   Section        0  libinit2.o(.ARM.Collect$$libinit$$00000025)
    .ARM.Collect$$libinit$$0000002C          0x0800025e   Section        0  libinit2.o(.ARM.Collect$$libinit$$0000002C)
    .ARM.Collect$$libinit$$0000002E          0x0800025e   Section        0  libinit2.o(.ARM.Collect$$libinit$$0000002E)
    .ARM.Collect$$libinit$$00000030          0x0800025e   Section        0  libinit2.o(.ARM.Collect$$libinit$$00000030)
    .ARM.Collect$$libinit$$00000032          0x0800025e   Section        0  libinit2.o(.ARM.Collect$$libinit$$00000032)
    .ARM.Collect$$libinit$$00000033          0x0800025e   Section        2  libinit2.o(.ARM.Collect$$libinit$$00000033)
    .ARM.Collect$$libshutdown$$00000000      0x08000260   Section        2  libshutdown.o(.ARM.Collect$$libshutdown$$00000000)
    .ARM.Collect$$libshutdown$$00000003      0x08000262   Section        0  libshutdown2.o(.ARM.Collect$$libshutdown$$00000003)
    .ARM.Collect$$libshutdown$$00000006      0x08000262   Section        0  libshutdown2.o(.ARM.Collect$$libshutdown$$00000006)
    .ARM.Collect$$libshutdown$$00000009      0x08000262   Section        0  libshutdown2.o(.ARM.Collect$$libshutdown$$00000009)
    .ARM.Collect$$libshutdown$$0000000B      0x08000262   Section        0  libshutdown2.o(.ARM.Collect$$libshutdown$$0000000B)
    .ARM.Collect$$libshutdown$$0000000E      0x08000262   Section        0  libshutdown2.o(.ARM.Collect$$libshutdown$$0000000E)
    .ARM.Collect$$libshutdown$$0000000F      0x08000262   Section        2  libshutdown2.o(.ARM.Collect$$libshutdown$$0000000F)
    .ARM.Collect$$rtentry$$00000000          0x08000264   Section        0  __rtentry.o(.ARM.Collect$$rtentry$$00000000)
    .ARM.Collect$$rtentry$$00000002          0x08000264   Section        0  __rtentry2.o(.ARM.Collect$$rtentry$$00000002)
    .ARM.Collect$$rtentry$$00000004          0x08000264   Section        6  __rtentry4.o(.ARM.Collect$$rtentry$$00000004)
    .ARM.Collect$$rtentry$$00000009          0x0800026a   Section        0  __rtentry2.o(.ARM.Collect$$rtentry$$00000009)
    .ARM.Collect$$rtentry$$0000000A          0x0800026a   Section        4  __rtentry2.o(.ARM.Collect$$rtentry$$0000000A)
    .ARM.Collect$$rtentry$$0000000C          0x0800026e   Section        0  __rtentry2.o(.ARM.Collect$$rtentry$$0000000C)
    .ARM.Collect$$rtentry$$0000000D          0x0800026e   Section        8  __rtentry2.o(.ARM.Collect$$rtentry$$0000000D)
    .ARM.Collect$$rtexit$$00000000           0x08000276   Section        2  rtexit.o(.ARM.Collect$$rtexit$$00000000)
    .ARM.Collect$$rtexit$$00000002           0x08000278   Section        0  rtexit2.o(.ARM.Collect$$rtexit$$00000002)
    .ARM.Collect$$rtexit$$00000003           0x08000278   Section        4  rtexit2.o(.ARM.Collect$$rtexit$$00000003)
    .ARM.Collect$$rtexit$$00000004           0x0800027c   Section        6  rtexit2.o(.ARM.Collect$$rtexit$$00000004)
    .emb_text                                0x08000284   Section        0  maybetermalloc1.o(.emb_text)
    .text                                    0x08000284   Section       64  startup_stm32f10x_md.o(.text)
    .text                                    0x080002c4   Section        0  h1_alloc.o(.text)
    .text                                    0x08000322   Section        0  h1_free.o(.text)
    .text                                    0x08000370   Section        0  vsnprintf.o(.text)
    .text                                    0x080003a4   Section        0  __2sprintf.o(.text)
    .text                                    0x080003d0   Section        0  _printf_str.o(.text)
    .text                                    0x08000424   Section        0  __printf_flags_ss_wp.o(.text)
    .text                                    0x080005ac   Section        0  strcpy.o(.text)
    .text                                    0x080005f4   Section        0  strlen.o(.text)
    .text                                    0x08000632   Section      138  rt_memcpy_v6.o(.text)
    .text                                    0x080006bc   Section      100  rt_memcpy_w.o(.text)
    .text                                    0x08000720   Section       68  rt_memclr.o(.text)
    .text                                    0x08000764   Section       78  rt_memclr_w.o(.text)
    .text                                    0x080007b2   Section       86  strncpy.o(.text)
    .text                                    0x08000808   Section      128  strcmpv7m.o(.text)
    .text                                    0x08000888   Section        0  heapauxi.o(.text)
    .text                                    0x08000890   Section        8  rt_heap_descriptor_intlibspace.o(.text)
    .text                                    0x08000898   Section        0  hguard.o(.text)
    .text                                    0x0800089c   Section        0  init_alloc.o(.text)
    .text                                    0x08000926   Section        0  h1_init.o(.text)
    .text                                    0x08000934   Section        0  _printf_pad.o(.text)
    .text                                    0x08000982   Section        0  _printf_truncate.o(.text)
    .text                                    0x080009a8   Section        0  _printf_dec.o(.text)
    .text                                    0x08000a20   Section        0  _printf_charcount.o(.text)
    .text                                    0x08000a48   Section        0  _printf_fp_dec.o(.text)
    _fp_digits                               0x08000a4b   Thumb Code   428  _printf_fp_dec.o(.text)
    .text                                    0x08000e64   Section        0  _printf_char_common.o(.text)
    _printf_input_char                       0x08000e65   Thumb Code    10  _printf_char_common.o(.text)
    .text                                    0x08000e94   Section        0  _sputc.o(.text)
    .text                                    0x08000e9e   Section        0  _snputc.o(.text)
    .text                                    0x08000eae   Section        0  _printf_char.o(.text)
    .text                                    0x08000edc   Section        0  _printf_wctomb.o(.text)
    .text                                    0x08000f98   Section        0  _printf_longlong_dec.o(.text)
    .text                                    0x08001014   Section        0  _printf_oct_int_ll.o(.text)
    _printf_longlong_oct_internal            0x08001015   Thumb Code     0  _printf_oct_int_ll.o(.text)
    .text                                    0x08001084   Section        0  _printf_hex_int_ll_ptr.o(.text)
    _printf_hex_common                       0x08001085   Thumb Code     0  _printf_hex_int_ll_ptr.o(.text)
    .text                                    0x08001118   Section        8  libspace.o(.text)
    .text                                    0x08001120   Section        8  rt_locale_intlibspace.o(.text)
    .text                                    0x08001128   Section        0  h1_extend.o(.text)
    .text                                    0x0800115c   Section      138  lludiv10.o(.text)
    .text                                    0x080011e6   Section        0  _printf_intcommon.o(.text)
    .text                                    0x08001298   Section        0  _printf_fp_hex.o(.text)
    .text                                    0x08001594   Section        0  _printf_fp_infnan.o(.text)
    .text                                    0x08001614   Section        0  _printf_wchar.o(.text)
    .text                                    0x08001640   Section        0  bigflt0.o(.text)
    .text                                    0x0800171c   Section        0  _wcrtomb.o(.text)
    .text                                    0x0800175c   Section        0  defsig_rtmem_outer.o(.text)
    .text                                    0x0800176a   Section        2  use_no_semi.o(.text)
    .text                                    0x0800176c   Section       74  sys_stackheap_outer.o(.text)
    .text                                    0x0800176c   Section        0  indicate_semi.o(.text)
    .text                                    0x080017b8   Section       16  rt_ctype_table.o(.text)
    .text                                    0x080017c8   Section        0  exit.o(.text)
    .text                                    0x080017d4   Section        0  defsig_exit.o(.text)
    .text                                    0x080017e0   Section        0  defsig_rtmem_inner.o(.text)
    .text                                    0x08001830   Section        0  sys_exit.o(.text)
    .text                                    0x0800183c   Section        0  defsig_general.o(.text)
    .text                                    0x0800186e   Section        0  sys_wrch.o(.text)
    CL$$btod_d2e                             0x0800187c   Section       62  btod.o(CL$$btod_d2e)
    CL$$btod_d2e_denorm_low                  0x080018ba   Section       70  btod.o(CL$$btod_d2e_denorm_low)
    CL$$btod_d2e_norm_op1                    0x08001900   Section       96  btod.o(CL$$btod_d2e_norm_op1)
    CL$$btod_div_common                      0x08001960   Section      824  btod.o(CL$$btod_div_common)
    CL$$btod_e2e                             0x08001c98   Section      198  btod.o(CL$$btod_e2e)
    CL$$btod_ediv                            0x08001d5e   Section       40  btod.o(CL$$btod_ediv)
    CL$$btod_emul                            0x08001d86   Section       40  btod.o(CL$$btod_emul)
    CL$$btod_mult_common                     0x08001dae   Section      580  btod.o(CL$$btod_mult_common)
    i.ADC1_GPIO_Config                       0x08001ff4   Section        0  adc.o(i.ADC1_GPIO_Config)
    i.ADC_Cmd                                0x08002018   Section        0  stm32f10x_adc.o(i.ADC_Cmd)
    i.ADC_GetCalibrationStatus               0x0800202e   Section        0  stm32f10x_adc.o(i.ADC_GetCalibrationStatus)
    i.ADC_GetConversionValue                 0x08002042   Section        0  stm32f10x_adc.o(i.ADC_GetConversionValue)
    i.ADC_GetFlagStatus                      0x0800204a   Section        0  stm32f10x_adc.o(i.ADC_GetFlagStatus)
    i.ADC_GetResetCalibrationStatus          0x0800205c   Section        0  stm32f10x_adc.o(i.ADC_GetResetCalibrationStatus)
    i.ADC_Init                               0x08002070   Section        0  stm32f10x_adc.o(i.ADC_Init)
    i.ADC_RegularChannelConfig               0x080020c0   Section        0  stm32f10x_adc.o(i.ADC_RegularChannelConfig)
    i.ADC_ResetCalibration                   0x08002178   Section        0  stm32f10x_adc.o(i.ADC_ResetCalibration)
    i.ADC_SoftwareStartConvCmd               0x08002182   Section        0  stm32f10x_adc.o(i.ADC_SoftwareStartConvCmd)
    i.ADC_StartCalibration                   0x08002198   Section        0  stm32f10x_adc.o(i.ADC_StartCalibration)
    i.ADCinit                                0x080021a2   Section        0  adc.o(i.ADCinit)
    i.Adc1_Init                              0x080021b0   Section        0  adc.o(i.Adc1_Init)
    i.AppFuncCmd_GetWidgetGroupCount         0x08002228   Section        0  psdk_app_func.o(i.AppFuncCmd_GetWidgetGroupCount)
    AppFuncCmd_GetWidgetGroupCount           0x08002229   Thumb Code    80  psdk_app_func.o(i.AppFuncCmd_GetWidgetGroupCount)
    i.AppFuncCmd_GetWidgetGroupValue         0x0800227c   Section        0  psdk_app_func.o(i.AppFuncCmd_GetWidgetGroupValue)
    AppFuncCmd_GetWidgetGroupValue           0x0800227d   Thumb Code   600  psdk_app_func.o(i.AppFuncCmd_GetWidgetGroupValue)
    i.AppFuncCmd_GetWidgetListLength         0x080024e8   Section        0  psdk_app_func.o(i.AppFuncCmd_GetWidgetListLength)
    AppFuncCmd_GetWidgetListLength           0x080024e9   Thumb Code    52  psdk_app_func.o(i.AppFuncCmd_GetWidgetListLength)
    i.AppFuncCmd_GetWidgetListValue          0x08002524   Section        0  psdk_app_func.o(i.AppFuncCmd_GetWidgetListValue)
    AppFuncCmd_GetWidgetListValue            0x08002525   Thumb Code   306  psdk_app_func.o(i.AppFuncCmd_GetWidgetListValue)
    i.AppFuncCmd_SetWidgetValue              0x08002660   Section        0  psdk_app_func.o(i.AppFuncCmd_SetWidgetValue)
    AppFuncCmd_SetWidgetValue                0x08002661   Thumb Code    74  psdk_app_func.o(i.AppFuncCmd_SetWidgetValue)
    i.AppFuncCmd_TT_AppToLoad                0x080026b8   Section        0  psdk_app_func.o(i.AppFuncCmd_TT_AppToLoad)
    AppFuncCmd_TT_AppToLoad                  0x080026b9   Thumb Code    28  psdk_app_func.o(i.AppFuncCmd_TT_AppToLoad)
    i.FillInUserInfo                         0x080026d8   Section        0  application.o(i.FillInUserInfo)
    FillInUserInfo                           0x080026d9   Thumb Code   170  application.o(i.FillInUserInfo)
    i.GPIO_Init                              0x0800281c   Section        0  stm32f10x_gpio.o(i.GPIO_Init)
    i.GPIO_PinRemapConfig                    0x08002934   Section        0  stm32f10x_gpio.o(i.GPIO_PinRemapConfig)
    i.GPIO_ReadOutputDataBit                 0x080029c4   Section        0  stm32f10x_gpio.o(i.GPIO_ReadOutputDataBit)
    i.GPIO_ResetBits                         0x080029d6   Section        0  stm32f10x_gpio.o(i.GPIO_ResetBits)
    i.GPIO_SetBits                           0x080029da   Section        0  stm32f10x_gpio.o(i.GPIO_SetBits)
    i.GPIO_WriteBit                          0x080029de   Section        0  stm32f10x_gpio.o(i.GPIO_WriteBit)
    i.Get_Adc                                0x080029e8   Section        0  adc.o(i.Get_Adc)
    i.GimbalCmd_ControlSpeed                 0x08002a0c   Section        0  psdk_payload_gimbal.o(i.GimbalCmd_ControlSpeed)
    GimbalCmd_ControlSpeed                   0x08002a0d   Thumb Code    44  psdk_payload_gimbal.o(i.GimbalCmd_ControlSpeed)
    i.GimbalCmd_GetGimbalState               0x08002a3c   Section        0  psdk_payload_gimbal.o(i.GimbalCmd_GetGimbalState)
    GimbalCmd_GetGimbalState                 0x08002a3d   Thumb Code    46  psdk_payload_gimbal.o(i.GimbalCmd_GetGimbalState)
    i.GimbalCmd_ReturnHead                   0x08002a70   Section        0  psdk_payload_gimbal.o(i.GimbalCmd_ReturnHead)
    GimbalCmd_ReturnHead                     0x08002a71   Thumb Code    44  psdk_payload_gimbal.o(i.GimbalCmd_ReturnHead)
    i.GimbalCmd_SetGimbalMode                0x08002aa0   Section        0  psdk_payload_gimbal.o(i.GimbalCmd_SetGimbalMode)
    GimbalCmd_SetGimbalMode                  0x08002aa1   Thumb Code    44  psdk_payload_gimbal.o(i.GimbalCmd_SetGimbalMode)
    i.GimbalCmd_StartCalibration             0x08002ad0   Section        0  psdk_payload_gimbal.o(i.GimbalCmd_StartCalibration)
    GimbalCmd_StartCalibration               0x08002ad1   Thumb Code    44  psdk_payload_gimbal.o(i.GimbalCmd_StartCalibration)
    i.GimbalCmd_SupportState                 0x08002b00   Section        0  psdk_payload_gimbal.o(i.GimbalCmd_SupportState)
    GimbalCmd_SupportState                   0x08002b01   Thumb Code    46  psdk_payload_gimbal.o(i.GimbalCmd_SupportState)
    i.GimbalEmu_ControlSpeed                 0x08002b34   Section        0  test_payload_gimbal_emu.o(i.GimbalEmu_ControlSpeed)
    i.GimbalEmu_GetGimbalParam               0x08002c3c   Section        0  test_payload_gimbal_emu.o(i.GimbalEmu_GetGimbalParam)
    i.GimbalEmu_ReturnHead                   0x08002ea0   Section        0  test_payload_gimbal_emu.o(i.GimbalEmu_ReturnHead)
    i.GimbalEmu_SetGimbalMode                0x08002eec   Section        0  test_payload_gimbal_emu.o(i.GimbalEmu_SetGimbalMode)
    i.GimbalEmu_StartCalibration             0x08002f30   Section        0  test_payload_gimbal_emu.o(i.GimbalEmu_StartCalibration)
    i.LED_Control                            0x08002f70   Section        0  led_button_switch.o(i.LED_Control)
    i.LED_Init                               0x08002fc8   Section        0  led_button_switch.o(i.LED_Init)
    i.LOG_Init                               0x08002ff4   Section        0  log_printf.o(i.LOG_Init)
    i.MotorDriverGPIO_Init                   0x0800300c   Section        0  motordriver.o(i.MotorDriverGPIO_Init)
    i.MsgPushCmd_GpsRawData                  0x08003050   Section        0  psdk_msg_subcribe.o(i.MsgPushCmd_GpsRawData)
    MsgPushCmd_GpsRawData                    0x08003051   Thumb Code    26  psdk_msg_subcribe.o(i.MsgPushCmd_GpsRawData)
    i.MsgPushCmd_PushAppDateTime             0x08003070   Section        0  psdk_msg_subcribe.o(i.MsgPushCmd_PushAppDateTime)
    MsgPushCmd_PushAppDateTime               0x08003071   Thumb Code    26  psdk_msg_subcribe.o(i.MsgPushCmd_PushAppDateTime)
    i.MsgPushCmd_PushAttitude                0x08003090   Section        0  psdk_msg_subcribe.o(i.MsgPushCmd_PushAttitude)
    MsgPushCmd_PushAttitude                  0x08003091   Thumb Code    26  psdk_msg_subcribe.o(i.MsgPushCmd_PushAttitude)
    i.MsgPushCmd_PushBandWidth               0x080030b0   Section        0  psdk_msg_subcribe.o(i.MsgPushCmd_PushBandWidth)
    MsgPushCmd_PushBandWidth                 0x080030b1   Thumb Code    26  psdk_msg_subcribe.o(i.MsgPushCmd_PushBandWidth)
    i.MsgPushCmd_PushBaroHeight              0x080030d0   Section        0  psdk_msg_subcribe.o(i.MsgPushCmd_PushBaroHeight)
    MsgPushCmd_PushBaroHeight                0x080030d1   Thumb Code    26  psdk_msg_subcribe.o(i.MsgPushCmd_PushBaroHeight)
    i.MsgPushCmd_PushBatteryInfo             0x080030f0   Section        0  psdk_msg_subcribe.o(i.MsgPushCmd_PushBatteryInfo)
    MsgPushCmd_PushBatteryInfo               0x080030f1   Thumb Code    40  psdk_msg_subcribe.o(i.MsgPushCmd_PushBatteryInfo)
    i.MsgPushCmd_PushGpsInfo                 0x0800311c   Section        0  psdk_msg_subcribe.o(i.MsgPushCmd_PushGpsInfo)
    MsgPushCmd_PushGpsInfo                   0x0800311d   Thumb Code    26  psdk_msg_subcribe.o(i.MsgPushCmd_PushGpsInfo)
    i.MsgPushCmd_PushUavState                0x0800313c   Section        0  psdk_msg_subcribe.o(i.MsgPushCmd_PushUavState)
    MsgPushCmd_PushUavState                  0x0800313d   Thumb Code    26  psdk_msg_subcribe.o(i.MsgPushCmd_PushUavState)
    i.MsgPushCmd_RtkRawData                  0x0800315c   Section        0  psdk_msg_subcribe.o(i.MsgPushCmd_RtkRawData)
    MsgPushCmd_RtkRawData                    0x0800315d   Thumb Code    26  psdk_msg_subcribe.o(i.MsgPushCmd_RtkRawData)
    i.NVIC_Init                              0x0800317c   Section        0  misc.o(i.NVIC_Init)
    i.PsdkAes_AddRoundKey                    0x080031ec   Section        0  psdk_aes.o(i.PsdkAes_AddRoundKey)
    PsdkAes_AddRoundKey                      0x080031ed   Thumb Code   284  psdk_aes.o(i.PsdkAes_AddRoundKey)
    i.PsdkAes_Decrypt                        0x08003308   Section        0  psdk_aes.o(i.PsdkAes_Decrypt)
    i.PsdkAes_Encrypt                        0x08003398   Section        0  psdk_aes.o(i.PsdkAes_Encrypt)
    i.PsdkAes_InvMixColumns                  0x08003428   Section        0  psdk_aes.o(i.PsdkAes_InvMixColumns)
    PsdkAes_InvMixColumns                    0x08003429   Thumb Code  1356  psdk_aes.o(i.PsdkAes_InvMixColumns)
    i.PsdkAes_InvShiftRows                   0x08003974   Section        0  psdk_aes.o(i.PsdkAes_InvShiftRows)
    PsdkAes_InvShiftRows                     0x08003975   Thumb Code    50  psdk_aes.o(i.PsdkAes_InvShiftRows)
    i.PsdkAes_InvSubBytes                    0x080039a8   Section        0  psdk_aes.o(i.PsdkAes_InvSubBytes)
    PsdkAes_InvSubBytes                      0x080039a9   Thumb Code   322  psdk_aes.o(i.PsdkAes_InvSubBytes)
    i.PsdkAes_KeySetup                       0x08003af0   Section        0  psdk_aes.o(i.PsdkAes_KeySetup)
    PsdkAes_KeySetup                         0x08003af1   Thumb Code   230  psdk_aes.o(i.PsdkAes_KeySetup)
    i.PsdkAes_MixColumns                     0x08003bdc   Section        0  psdk_aes.o(i.PsdkAes_MixColumns)
    PsdkAes_MixColumns                       0x08003bdd   Thumb Code   982  psdk_aes.o(i.PsdkAes_MixColumns)
    i.PsdkAes_SetupDecrypt                   0x08003fb8   Section        0  psdk_aes.o(i.PsdkAes_SetupDecrypt)
    i.PsdkAes_SetupEncrypt                   0x08004232   Section        0  psdk_aes.o(i.PsdkAes_SetupEncrypt)
    PsdkAes_SetupEncrypt                     0x08004233   Thumb Code   658  psdk_aes.o(i.PsdkAes_SetupEncrypt)
    i.PsdkAes_ShiftRows                      0x080044c4   Section        0  psdk_aes.o(i.PsdkAes_ShiftRows)
    PsdkAes_ShiftRows                        0x080044c5   Thumb Code    50  psdk_aes.o(i.PsdkAes_ShiftRows)
    i.PsdkAes_SubBytes                       0x080044f8   Section        0  psdk_aes.o(i.PsdkAes_SubBytes)
    PsdkAes_SubBytes                         0x080044f9   Thumb Code   322  psdk_aes.o(i.PsdkAes_SubBytes)
    i.PsdkAes_SubWord                        0x08004640   Section        0  psdk_aes.o(i.PsdkAes_SubWord)
    PsdkAes_SubWord                          0x08004641   Thumb Code    82  psdk_aes.o(i.PsdkAes_SubWord)
    i.PsdkAppFunc_Init                       0x08004698   Section        0  psdk_app_func.o(i.PsdkAppFunc_Init)
    i.PsdkAppFunc_PushMsgToFloatingWindow    0x080046f0   Section        0  psdk_app_func.o(i.PsdkAppFunc_PushMsgToFloatingWindow)
    i.PsdkAppFunc_RegGetWidgetValueCallback  0x08004750   Section        0  psdk_app_func.o(i.PsdkAppFunc_RegGetWidgetValueCallback)
    i.PsdkAppFunc_RegSetWidgetValueCallback  0x08004760   Section        0  psdk_app_func.o(i.PsdkAppFunc_RegSetWidgetValueCallback)
    i.PsdkAppFunc_SetReceiveFromAppCallback  0x08004770   Section        0  psdk_app_func.o(i.PsdkAppFunc_SetReceiveFromAppCallback)
    i.PsdkAppFunc_SetWidgetList              0x08004780   Section        0  psdk_app_func.o(i.PsdkAppFunc_SetWidgetList)
    i.PsdkAppFunc_TransferToApp              0x08004798   Section        0  psdk_app_func.o(i.PsdkAppFunc_TransferToApp)
    i.PsdkCrc_Crc16                          0x08004844   Section        0  psdk_crc.o(i.PsdkCrc_Crc16)
    i.PsdkCrc_Crc32                          0x080048b4   Section        0  psdk_crc.o(i.PsdkCrc_Crc32)
    i.PsdkDebug_AssertFailed                 0x08004924   Section        0  psdk_debug.o(i.PsdkDebug_AssertFailed)
    i.PsdkGimbal_Init                        0x08004970   Section        0  psdk_payload_gimbal.o(i.PsdkGimbal_Init)
    i.PsdkMotorTest                          0x080049ac   Section        0  application.o(i.PsdkMotorTest)
    i.PsdkMsgSub_Init                        0x08004a5c   Section        0  psdk_msg_subcribe.o(i.PsdkMsgSub_Init)
    i.PsdkMsgSub_RegMsgCallbackList          0x08004a8c   Section        0  psdk_msg_subcribe.o(i.PsdkMsgSub_RegMsgCallbackList)
    i.PsdkPayloadStateCmd_GetPayloadProductAlias 0x08004aa4   Section        0  psdk_upper.o(i.PsdkPayloadStateCmd_GetPayloadProductAlias)
    PsdkPayloadStateCmd_GetPayloadProductAlias 0x08004aa5   Thumb Code    46  psdk_upper.o(i.PsdkPayloadStateCmd_GetPayloadProductAlias)
    i.PsdkPayloadStateCmd_GetPayloadProductInfo 0x08004ad8   Section        0  psdk_upper.o(i.PsdkPayloadStateCmd_GetPayloadProductInfo)
    PsdkPayloadStateCmd_GetPayloadProductInfo 0x08004ad9   Thumb Code    74  psdk_upper.o(i.PsdkPayloadStateCmd_GetPayloadProductInfo)
    i.PsdkPayloadStateCmd_GetSkyportVersionInfo 0x08004b28   Section        0  psdk_upper.o(i.PsdkPayloadStateCmd_GetSkyportVersionInfo)
    PsdkPayloadStateCmd_GetSkyportVersionInfo 0x08004b29   Thumb Code    66  psdk_upper.o(i.PsdkPayloadStateCmd_GetSkyportVersionInfo)
    i.PsdkPayloadStateCmd_GetVersion         0x08004b70   Section        0  psdk_upper.o(i.PsdkPayloadStateCmd_GetVersion)
    PsdkPayloadStateCmd_GetVersion           0x08004b71   Thumb Code    56  psdk_upper.o(i.PsdkPayloadStateCmd_GetVersion)
    i.PsdkPayloadStateCmd_IdentityVerify     0x08004ba8   Section        0  psdk_upper.o(i.PsdkPayloadStateCmd_IdentityVerify)
    PsdkPayloadStateCmd_IdentityVerify       0x08004ba9   Thumb Code   124  psdk_upper.o(i.PsdkPayloadStateCmd_IdentityVerify)
    i.PsdkPayloadStateCmd_LinkHandShake      0x08004c28   Section        0  psdk_upper.o(i.PsdkPayloadStateCmd_LinkHandShake)
    PsdkPayloadStateCmd_LinkHandShake        0x08004c29   Thumb Code    50  psdk_upper.o(i.PsdkPayloadStateCmd_LinkHandShake)
    i.PsdkProcessRec                         0x08004c5c   Section        0  application.o(i.PsdkProcessRec)
    i.PsdkProtParse_AddByte                  0x08004c84   Section        0  psdk_proto_parse.o(i.PsdkProtParse_AddByte)
    i.PsdkProtParse_ErrorProcess             0x08004d64   Section        0  psdk_proto_parse.o(i.PsdkProtParse_ErrorProcess)
    PsdkProtParse_ErrorProcess               0x08004d65   Thumb Code     8  psdk_proto_parse.o(i.PsdkProtParse_ErrorProcess)
    i.PsdkProtParse_Init                     0x08004d6c   Section        0  psdk_proto_parse.o(i.PsdkProtParse_Init)
    i.PsdkProt_GetCurrentSendSeq             0x08004d74   Section        0  psdk_proto.o(i.PsdkProt_GetCurrentSendSeq)
    i.PsdkProtoUpper_CalTransferKey          0x08004d86   Section        0  psdk_upper.o(i.PsdkProtoUpper_CalTransferKey)
    PsdkProtoUpper_CalTransferKey            0x08004d87   Thumb Code   234  psdk_upper.o(i.PsdkProtoUpper_CalTransferKey)
    i.PsdkProto_DealCmd                      0x08004e70   Section        0  psdk_proto.o(i.PsdkProto_DealCmd)
    i.PsdkProto_DealFrame                    0x08004f94   Section        0  psdk_proto.o(i.PsdkProto_DealFrame)
    PsdkProto_DealFrame                      0x08004f95   Thumb Code    58  psdk_proto.o(i.PsdkProto_DealFrame)
    i.PsdkProto_FrameToInfoData              0x08004fce   Section        0  psdk_proto.o(i.PsdkProto_FrameToInfoData)
    PsdkProto_FrameToInfoData                0x08004fcf   Thumb Code   124  psdk_proto.o(i.PsdkProto_FrameToInfoData)
    i.PsdkProto_InfoDataToFrame              0x0800504a   Section        0  psdk_proto.o(i.PsdkProto_InfoDataToFrame)
    PsdkProto_InfoDataToFrame                0x0800504b   Thumb Code   312  psdk_proto.o(i.PsdkProto_InfoDataToFrame)
    i.PsdkProto_Init                         0x08005182   Section        0  psdk_proto.o(i.PsdkProto_Init)
    i.PsdkProto_ProcessReceiveData           0x080051d0   Section        0  psdk_proto.o(i.PsdkProto_ProcessReceiveData)
    i.PsdkProto_RegCmdSetHandler             0x08005308   Section        0  psdk_proto.o(i.PsdkProto_RegCmdSetHandler)
    i.PsdkProto_RegSendDataFunc              0x0800537a   Section        0  psdk_proto.o(i.PsdkProto_RegSendDataFunc)
    i.PsdkProto_Send                         0x0800538a   Section        0  psdk_proto.o(i.PsdkProto_Send)
    i.PsdkProto_SendAckData                  0x080053ca   Section        0  psdk_proto.o(i.PsdkProto_SendAckData)
    i.PsdkUpper_Init                         0x08005408   Section        0  psdk_upper.o(i.PsdkUpper_Init)
    i.PsdkUpper_ProcessReceiveData           0x08005478   Section        0  psdk_upper.o(i.PsdkUpper_ProcessReceiveData)
    i.PsdkUpper_RegSendFunction              0x0800548c   Section        0  psdk_upper.o(i.PsdkUpper_RegSendFunction)
    i.Psdk_Read                              0x0800549c   Section        0  application.o(i.Psdk_Read)
    i.Psdk_Write                             0x080054b2   Section        0  application.o(i.Psdk_Write)
    i.RCC_ADCCLKConfig                       0x080054c8   Section        0  stm32f10x_rcc.o(i.RCC_ADCCLKConfig)
    i.RCC_APB1PeriphClockCmd                 0x080054e0   Section        0  stm32f10x_rcc.o(i.RCC_APB1PeriphClockCmd)
    i.RCC_APB1PeriphResetCmd                 0x08005500   Section        0  stm32f10x_rcc.o(i.RCC_APB1PeriphResetCmd)
    i.RCC_APB2PeriphClockCmd                 0x08005520   Section        0  stm32f10x_rcc.o(i.RCC_APB2PeriphClockCmd)
    i.RCC_APB2PeriphResetCmd                 0x08005540   Section        0  stm32f10x_rcc.o(i.RCC_APB2PeriphResetCmd)
    i.RCC_Configuration                      0x08005560   Section        0  main.o(i.RCC_Configuration)
    i.RCC_DeInit                             0x080055bc   Section        0  stm32f10x_rcc.o(i.RCC_DeInit)
    i.RCC_GetClocksFreq                      0x08005608   Section        0  stm32f10x_rcc.o(i.RCC_GetClocksFreq)
    i.RCC_GetFlagStatus                      0x080056dc   Section        0  stm32f10x_rcc.o(i.RCC_GetFlagStatus)
    i.RCC_GetSYSCLKSource                    0x08005718   Section        0  stm32f10x_rcc.o(i.RCC_GetSYSCLKSource)
    i.RCC_HCLKConfig                         0x08005728   Section        0  stm32f10x_rcc.o(i.RCC_HCLKConfig)
    i.RCC_HSICmd                             0x08005740   Section        0  stm32f10x_rcc.o(i.RCC_HSICmd)
    i.RCC_PCLK1Config                        0x0800574c   Section        0  stm32f10x_rcc.o(i.RCC_PCLK1Config)
    i.RCC_PCLK2Config                        0x08005764   Section        0  stm32f10x_rcc.o(i.RCC_PCLK2Config)
    i.RCC_PLLCmd                             0x0800577c   Section        0  stm32f10x_rcc.o(i.RCC_PLLCmd)
    i.RCC_PLLConfig                          0x08005788   Section        0  stm32f10x_rcc.o(i.RCC_PLLConfig)
    i.RCC_SYSCLKConfig                       0x080057a4   Section        0  stm32f10x_rcc.o(i.RCC_SYSCLKConfig)
    i.RingBuf_CutBufSizeToPowOfTwo           0x080057bc   Section        0  dji_ringbuffer.o(i.RingBuf_CutBufSizeToPowOfTwo)
    RingBuf_CutBufSizeToPowOfTwo             0x080057bd   Thumb Code    30  dji_ringbuffer.o(i.RingBuf_CutBufSizeToPowOfTwo)
    i.RingBuf_Get                            0x080057da   Section        0  dji_ringbuffer.o(i.RingBuf_Get)
    i.RingBuf_Init                           0x0800584e   Section        0  dji_ringbuffer.o(i.RingBuf_Init)
    i.RingBuf_Put                            0x08005872   Section        0  dji_ringbuffer.o(i.RingBuf_Put)
    i.SetSysClock                            0x080058ee   Section        0  system_stm32f10x.o(i.SetSysClock)
    SetSysClock                              0x080058ef   Thumb Code     8  system_stm32f10x.o(i.SetSysClock)
    i.SetSysClockTo72                        0x080058f8   Section        0  system_stm32f10x.o(i.SetSysClockTo72)
    SetSysClockTo72                          0x080058f9   Thumb Code   214  system_stm32f10x.o(i.SetSysClockTo72)
    i.Str_PutStrToBuff                       0x080059d8   Section        0  psdk_upper.o(i.Str_PutStrToBuff)
    Str_PutStrToBuff                         0x080059d9   Thumb Code    48  psdk_upper.o(i.Str_PutStrToBuff)
    i.SystemInit                             0x08005a08   Section        0  system_stm32f10x.o(i.SystemInit)
    i.TIM4_IRQHandler                        0x08005a68   Section        0  motordriver.o(i.TIM4_IRQHandler)
    i.TIM4_init                              0x08005b2c   Section        0  motordriver.o(i.TIM4_init)
    i.TIM_ARRPreloadConfig                   0x08005b98   Section        0  stm32f10x_tim.o(i.TIM_ARRPreloadConfig)
    i.TIM_ClearITPendingBit                  0x08005bb0   Section        0  stm32f10x_tim.o(i.TIM_ClearITPendingBit)
    i.TIM_Cmd                                0x08005bb6   Section        0  stm32f10x_tim.o(i.TIM_Cmd)
    i.TIM_DeInit                             0x08005bd0   Section        0  stm32f10x_tim.o(i.TIM_DeInit)
    i.TIM_GetITStatus                        0x08005db8   Section        0  stm32f10x_tim.o(i.TIM_GetITStatus)
    i.TIM_ITConfig                           0x08005dda   Section        0  stm32f10x_tim.o(i.TIM_ITConfig)
    i.TIM_TimeBaseInit                       0x08005dec   Section        0  stm32f10x_tim.o(i.TIM_TimeBaseInit)
    i.Test_GetWidgetValueFunc                0x08005e90   Section        0  test_app_func.o(i.Test_GetWidgetValueFunc)
    i.Test_ReceiveFromMobileSDKFunc          0x08005ea8   Section        0  test_app_func.o(i.Test_ReceiveFromMobileSDKFunc)
    i.Test_SetWidgetValueFunc                0x08005ee4   Section        0  test_app_func.o(i.Test_SetWidgetValueFunc)
    i.TurnDownMotro                          0x08005f8c   Section        0  motordriver.o(i.TurnDownMotro)
    i.TurnOFFMotro                           0x08005fac   Section        0  motordriver.o(i.TurnOFFMotro)
    i.TurnUpMotro                            0x08005fcc   Section        0  motordriver.o(i.TurnUpMotro)
    i.UART_Init                              0x08005fec   Section        0  uart.o(i.UART_Init)
    i.UART_Printf                            0x08006240   Section        0  log_printf.o(i.UART_Printf)
    i.UART_Read                              0x08006284   Section        0  uart.o(i.UART_Read)
    i.UART_Write                             0x080062e0   Section        0  uart.o(i.UART_Write)
    i.USART1_IRQHandler                      0x0800636c   Section        0  uart.o(i.USART1_IRQHandler)
    i.USART2_IRQHandler                      0x080063cc   Section        0  uart.o(i.USART2_IRQHandler)
    i.USART3_IRQHandler                      0x0800642c   Section        0  uart.o(i.USART3_IRQHandler)
    i.USART_Cmd                              0x0800648c   Section        0  stm32f10x_usart.o(i.USART_Cmd)
    i.USART_GetITStatus                      0x080064a4   Section        0  stm32f10x_usart.o(i.USART_GetITStatus)
    i.USART_ITConfig                         0x080064f8   Section        0  stm32f10x_usart.o(i.USART_ITConfig)
    i.USART_Init                             0x08006544   Section        0  stm32f10x_usart.o(i.USART_Init)
    i.USART_ReceiveData                      0x0800661c   Section        0  stm32f10x_usart.o(i.USART_ReceiveData)
    i.USART_SendData                         0x08006626   Section        0  stm32f10x_usart.o(i.USART_SendData)
    i.__ARM_fpclassify                       0x0800662e   Section        0  fpclassify.o(i.__ARM_fpclassify)
    i._is_digit                              0x08006656   Section        0  __printf_wp.o(i._is_digit)
    i.appDateTimeMsgCallback                 0x08006664   Section        0  test_msg_push.o(i.appDateTimeMsgCallback)
    appDateTimeMsgCallback                   0x08006665   Thumb Code     2  test_msg_push.o(i.appDateTimeMsgCallback)
    i.application_init                       0x08006668   Section        0  application.o(i.application_init)
    i.bandWidthMsgCallback                   0x08006708   Section        0  test_msg_push.o(i.bandWidthMsgCallback)
    bandWidthMsgCallback                     0x08006709   Thumb Code     2  test_msg_push.o(i.bandWidthMsgCallback)
    i.baroHeightDataMsgCallback              0x0800670a   Section        0  test_msg_push.o(i.baroHeightDataMsgCallback)
    baroHeightDataMsgCallback                0x0800670b   Thumb Code     2  test_msg_push.o(i.baroHeightDataMsgCallback)
    i.batteryInfoMsgCallback                 0x0800670c   Section        0  test_msg_push.o(i.batteryInfoMsgCallback)
    batteryInfoMsgCallback                   0x0800670d   Thumb Code    10  test_msg_push.o(i.batteryInfoMsgCallback)
    i.gpsInfoMsgCallback                     0x08006716   Section        0  test_msg_push.o(i.gpsInfoMsgCallback)
    gpsInfoMsgCallback                       0x08006717   Thumb Code     2  test_msg_push.o(i.gpsInfoMsgCallback)
    i.gpsRawDataMsgCallback                  0x08006718   Section        0  test_msg_push.o(i.gpsRawDataMsgCallback)
    gpsRawDataMsgCallback                    0x08006719   Thumb Code     2  test_msg_push.o(i.gpsRawDataMsgCallback)
    i.main                                   0x0800671c   Section        0  main.o(i.main)
    i.md5_final                              0x080067d8   Section        0  psdk_md5.o(i.md5_final)
    i.md5_init                               0x080068c4   Section        0  psdk_md5.o(i.md5_init)
    i.md5_transform                          0x080068ec   Section        0  psdk_md5.o(i.md5_transform)
    i.md5_update                             0x0800736c   Section        0  psdk_md5.o(i.md5_update)
    i.rtkRawDataMsgCallback                  0x080073b0   Section        0  test_msg_push.o(i.rtkRawDataMsgCallback)
    rtkRawDataMsgCallback                    0x080073b1   Thumb Code     2  test_msg_push.o(i.rtkRawDataMsgCallback)
    i.uavAttitudeMsgCallback                 0x080073b2   Section        0  test_msg_push.o(i.uavAttitudeMsgCallback)
    uavAttitudeMsgCallback                   0x080073b3   Thumb Code     2  test_msg_push.o(i.uavAttitudeMsgCallback)
    i.uavStateMsgCallback                    0x080073b4   Section        0  test_msg_push.o(i.uavStateMsgCallback)
    uavStateMsgCallback                      0x080073b5   Thumb Code     2  test_msg_push.o(i.uavStateMsgCallback)
    locale$$code                             0x080073b8   Section       44  lc_numeric_c.o(locale$$code)
    locale$$code                             0x080073e4   Section       44  lc_ctype_c.o(locale$$code)
    x$fpl$d2f                                0x08007410   Section       98  d2f.o(x$fpl$d2f)
    x$fpl$dadd                               0x08007474   Section      336  daddsub_clz.o(x$fpl$dadd)
    _dadd1                                   0x08007485   Thumb Code     0  daddsub_clz.o(x$fpl$dadd)
    x$fpl$ddiv                               0x080075c4   Section      688  ddiv.o(x$fpl$ddiv)
    ddiv_entry                               0x080075cb   Thumb Code     0  ddiv.o(x$fpl$ddiv)
    x$fpl$dfix                               0x08007874   Section       94  dfix.o(x$fpl$dfix)
    x$fpl$dflt                               0x080078d2   Section       46  dflt_clz.o(x$fpl$dflt)
    x$fpl$dfltu                              0x08007900   Section       38  dflt_clz.o(x$fpl$dfltu)
    x$fpl$dmul                               0x08007928   Section      340  dmul.o(x$fpl$dmul)
    x$fpl$dnaninf                            0x08007a7c   Section      156  dnaninf.o(x$fpl$dnaninf)
    x$fpl$dretinf                            0x08007b18   Section       12  dretinf.o(x$fpl$dretinf)
    x$fpl$dsub                               0x08007b24   Section      468  daddsub_clz.o(x$fpl$dsub)
    _dsub1                                   0x08007b35   Thumb Code     0  daddsub_clz.o(x$fpl$dsub)
    x$fpl$f2d                                0x08007cf8   Section       86  f2d.o(x$fpl$f2d)
    x$fpl$fnaninf                            0x08007d4e   Section      140  fnaninf.o(x$fpl$fnaninf)
    x$fpl$fretinf                            0x08007dda   Section       10  fretinf.o(x$fpl$fretinf)
    x$fpl$printf1                            0x08007de4   Section        4  printf1.o(x$fpl$printf1)
    x$fpl$printf2                            0x08007de8   Section        4  printf2.o(x$fpl$printf2)
    .constdata                               0x08007dec   Section        5  main.o(.constdata)
    x$fpl$usenofp                            0x08007dec   Section        0  usenofp.o(x$fpl$usenofp)
    __FUNCTION__                             0x08007dec   Data           5  main.o(.constdata)
    .constdata                               0x08007df4   Section       36  application.o(.constdata)
    __FUNCTION__                             0x08007df4   Data          15  application.o(.constdata)
    .constdata                               0x08007e18   Section     2108  psdk_aes.o(.constdata)
    s_aesSbox                                0x08007e18   Data         256  psdk_aes.o(.constdata)
    s_aesInvsbox                             0x08007f18   Data         256  psdk_aes.o(.constdata)
    s_gfMul                                  0x08008018   Data        1536  psdk_aes.o(.constdata)
    .constdata                               0x08008654   Section      768  psdk_crc.o(.constdata)
    s_CrcTab8                                0x08008654   Data         256  psdk_crc.o(.constdata)
    s_CrcTab16                               0x08008754   Data         512  psdk_crc.o(.constdata)
    .constdata                               0x08008954   Section       23  psdk_debug.o(.constdata)
    __FUNCTION__                             0x08008954   Data          23  psdk_debug.o(.constdata)
    .constdata                               0x0800896b   Section       47  psdk_proto.o(.constdata)
    __FUNCTION__                             0x0800896b   Data          18  psdk_proto.o(.constdata)
    __FUNCTION__                             0x0800897d   Data          29  psdk_proto.o(.constdata)
    .constdata                               0x0800899c   Section      105  psdk_app_func.o(.constdata)
    s_appFuncProtCmdList                     0x0800899c   Data          48  psdk_app_func.o(.constdata)
    __FUNCTION__                             0x080089cc   Data          31  psdk_app_func.o(.constdata)
    __FUNCTION__                             0x080089eb   Data          26  psdk_app_func.o(.constdata)
    .constdata                               0x08008a08   Section       72  psdk_msg_subcribe.o(.constdata)
    s_PushDataMsgSubProtCmdList              0x08008a08   Data          72  psdk_msg_subcribe.o(.constdata)
    .constdata                               0x08008a50   Section       48  psdk_payload_gimbal.o(.constdata)
    s_PayloadGimbalCmdList                   0x08008a50   Data          48  psdk_payload_gimbal.o(.constdata)
    .constdata                               0x08008a80   Section       48  psdk_upper.o(.constdata)
    s_payloadStateProtCmdList                0x08008a80   Data          48  psdk_upper.o(.constdata)
    .constdata                               0x08008ab0   Section      107  test_app_func.o(.constdata)
    s_TestWidgetList                         0x08008ab0   Data          52  test_app_func.o(.constdata)
    __FUNCTION__                             0x08008ae5   Data          30  test_app_func.o(.constdata)
    __FUNCTION__                             0x08008b03   Data          24  test_app_func.o(.constdata)
    .constdata                               0x08008b1c   Section       36  test_msg_push.o(.constdata)
    .constdata                               0x08008b40   Section      115  test_payload_gimbal_emu.o(.constdata)
    __FUNCTION__                             0x08008b54   Data          24  test_payload_gimbal_emu.o(.constdata)
    __FUNCTION__                             0x08008b6c   Data          21  test_payload_gimbal_emu.o(.constdata)
    __FUNCTION__                             0x08008b81   Data          23  test_payload_gimbal_emu.o(.constdata)
    __FUNCTION__                             0x08008b98   Data          27  test_payload_gimbal_emu.o(.constdata)
    .constdata                               0x08008bb3   Section       17  __printf_flags_ss_wp.o(.constdata)
    maptable                                 0x08008bb3   Data          17  __printf_flags_ss_wp.o(.constdata)
    .constdata                               0x08008bc4   Section        8  _printf_wctomb.o(.constdata)
    initial_mbstate                          0x08008bc4   Data           8  _printf_wctomb.o(.constdata)
    .constdata                               0x08008bcc   Section       40  _printf_hex_int_ll_ptr.o(.constdata)
    uc_hextab                                0x08008bcc   Data          20  _printf_hex_int_ll_ptr.o(.constdata)
    lc_hextab                                0x08008be0   Data          20  _printf_hex_int_ll_ptr.o(.constdata)
    .constdata                               0x08008bf4   Section       38  _printf_fp_hex.o(.constdata)
    lc_hextab                                0x08008bf4   Data          19  _printf_fp_hex.o(.constdata)
    uc_hextab                                0x08008c07   Data          19  _printf_fp_hex.o(.constdata)
    .constdata                               0x08008c1c   Section      148  bigflt0.o(.constdata)
    tenpwrs_x                                0x08008c1c   Data          60  bigflt0.o(.constdata)
    tenpwrs_i                                0x08008c58   Data          64  bigflt0.o(.constdata)
    .conststring                             0x08008cb0   Section      193  application.o(.conststring)
    .conststring                             0x08008d74   Section       75  psdk_proto.o(.conststring)
    .conststring                             0x08008dc0   Section      149  psdk_app_func.o(.conststring)
    .conststring                             0x08008e58   Section        6  test_app_func.o(.conststring)
    locale$$data                             0x08008e80   Section       28  lc_numeric_c.o(locale$$data)
    __lcnum_c_name                           0x08008e84   Data           2  lc_numeric_c.o(locale$$data)
    __lcnum_c_start                          0x08008e8c   Data           0  lc_numeric_c.o(locale$$data)
    __lcnum_c_point                          0x08008e98   Data           0  lc_numeric_c.o(locale$$data)
    __lcnum_c_thousands                      0x08008e9a   Data           0  lc_numeric_c.o(locale$$data)
    __lcnum_c_grouping                       0x08008e9b   Data           0  lc_numeric_c.o(locale$$data)
    locale$$data                             0x08008e9c   Section      272  lc_ctype_c.o(locale$$data)
    __lcnum_c_end                            0x08008e9c   Data           0  lc_numeric_c.o(locale$$data)
    __lcctype_c_name                         0x08008ea0   Data           2  lc_ctype_c.o(locale$$data)
    __lcctype_c_start                        0x08008ea8   Data           0  lc_ctype_c.o(locale$$data)
    __lcctype_c_end                          0x08008fac   Data           0  lc_ctype_c.o(locale$$data)
    .data                                    0x20000000   Section        1  log_printf.o(.data)
    isLogInit                                0x20000000   Data           1  log_printf.o(.data)
    .data                                    0x20000004   Section       16  motordriver.o(.data)
    .data                                    0x20000014   Section        4  adc.o(.data)
    .data                                    0x20000018   Section       20  stm32f10x_rcc.o(.data)
    APBAHBPrescTable                         0x20000018   Data          16  stm32f10x_rcc.o(.data)
    ADCPrescTable                            0x20000028   Data           4  stm32f10x_rcc.o(.data)
    .data                                    0x2000002c   Section     1024  psdk_crc.o(.data)
    s_CrcTab32                               0x2000002c   Data        1024  psdk_crc.o(.data)
    .data                                    0x2000042c   Section       17  psdk_app_func.o(.data)
    s_receiveFromAppFunc                     0x2000042c   Data           4  psdk_app_func.o(.data)
    s_getWidgetValueFunc                     0x20000430   Data           4  psdk_app_func.o(.data)
    s_setWidgetValueFunc                     0x20000434   Data           4  psdk_app_func.o(.data)
    s_widgetList                             0x20000438   Data           4  psdk_app_func.o(.data)
    s_widgetItemCount                        0x2000043c   Data           1  psdk_app_func.o(.data)
    .data                                    0x2000043d   Section        1  psdk_payload_gimbal.o(.data)
    s_isSupportGimbal                        0x2000043d   Data           1  psdk_payload_gimbal.o(.data)
    .data                                    0x2000043e   Section        4  psdk_upper.o(.data)
    s_fixSkyport                             0x2000043e   Data           4  psdk_upper.o(.data)
    .data                                    0x20000444   Section       12  test_app_func.o(.data)
    .data                                    0x20000450   Section       16  test_payload_gimbal_emu.o(.data)
    gimbalMode                               0x20000450   Data           1  test_payload_gimbal_emu.o(.data)
    isYawLimit                               0x20000451   Data           1  test_payload_gimbal_emu.o(.data)
    isRollLimit                              0x20000452   Data           1  test_payload_gimbal_emu.o(.data)
    isPitchLimit                             0x20000453   Data           1  test_payload_gimbal_emu.o(.data)
    pitch                                    0x20000454   Data           2  test_payload_gimbal_emu.o(.data)
    roll                                     0x20000456   Data           2  test_payload_gimbal_emu.o(.data)
    yaw                                      0x20000458   Data           2  test_payload_gimbal_emu.o(.data)
    pitchSpeed                               0x2000045a   Data           2  test_payload_gimbal_emu.o(.data)
    rollSpeed                                0x2000045c   Data           2  test_payload_gimbal_emu.o(.data)
    yawSpeed                                 0x2000045e   Data           2  test_payload_gimbal_emu.o(.data)
    .bss                                     0x20000460   Section       20  main.o(.bss)
    .bss                                     0x20000474   Section     2724  application.o(.bss)
    s_uartRecBuf                             0x20000884   Data        1024  application.o(.bss)
    s_printBuffer                            0x20000c84   Data         512  application.o(.bss)
    s_userInfo                               0x20000e84   Data         148  application.o(.bss)
    .bss                                     0x20000f18   Section     3144  uart.o(.bss)
    s_uart1ReadRingBuffer                    0x20000f18   Data          12  uart.o(.bss)
    s_uart1WriteRingBuffer                   0x20000f24   Data          12  uart.o(.bss)
    s_uart1ReadBuf                           0x20000f30   Data         512  uart.o(.bss)
    s_uart1WriteBuf                          0x20001130   Data         512  uart.o(.bss)
    s_uart2ReadRingBuffer                    0x20001330   Data          12  uart.o(.bss)
    s_uart2WriteRingBuffer                   0x2000133c   Data          12  uart.o(.bss)
    s_uart2ReadBuf                           0x20001348   Data         512  uart.o(.bss)
    s_uart2WriteBuf                          0x20001548   Data         512  uart.o(.bss)
    s_uart3ReadRingBuffer                    0x20001748   Data          12  uart.o(.bss)
    s_uart3WriteRingBuffer                   0x20001754   Data          12  uart.o(.bss)
    s_uart3ReadBuf                           0x20001760   Data         512  uart.o(.bss)
    s_uart3WriteBuf                          0x20001960   Data         512  uart.o(.bss)
    .bss                                     0x20001b60   Section       36  psdk_msg_subcribe.o(.bss)
    s_PushDataMsgCallbackList                0x20001b60   Data          36  psdk_msg_subcribe.o(.bss)
    .bss                                     0x20001b84   Section       20  psdk_payload_gimbal.o(.bss)
    s_gimbalHandler                          0x20001b84   Data          20  psdk_payload_gimbal.o(.bss)
    .bss                                     0x20001b98   Section      181  psdk_upper.o(.bss)
    s_userInfo                               0x20001b98   Data         148  psdk_upper.o(.bss)
    s_customInfo                             0x20001c2c   Data          33  psdk_upper.o(.bss)
    .bss                                     0x20001c4d   Section     1024  test_app_func.o(.bss)
    receivePrint                             0x20001c4d   Data        1024  test_app_func.o(.bss)
    .bss                                     0x20002050   Section       96  libspace.o(.bss)
    HEAP                                     0x200020b0   Section      512  startup_stm32f10x_md.o(HEAP)
    Heap_Mem                                 0x200020b0   Data         512  startup_stm32f10x_md.o(HEAP)
    STACK                                    0x200022b0   Section     1024  startup_stm32f10x_md.o(STACK)
    Stack_Mem                                0x200022b0   Data        1024  startup_stm32f10x_md.o(STACK)
    __initial_sp                             0x200026b0   Data           0  startup_stm32f10x_md.o(STACK)

    Global Symbols

    Symbol Name                              Value     Ov Type        Size  Object(Section)

    BuildAttributes$$THM_ISAv4$P$D$K$B$S$PE$A:L22UL41UL21$X:L11$S22US41US21$IEEE1$IW$USESV6$~STKCKD$USESV7$~SHL$OTIME$ROPI$IEEEJ$EBA8$UX$STANDARDLIB$REQ8$PRES8$EABIv2 0x00000000   Number         0  anon$$obj.o ABSOLUTE
    __ARM_use_no_argv                        0x00000000   Number         0  main.o ABSOLUTE
    _printf_flags                            0x00000000   Number         0  printf_stubs.o ABSOLUTE
    _printf_return_value                     0x00000000   Number         0  printf_stubs.o ABSOLUTE
    _printf_sizespec                         0x00000000   Number         0  printf_stubs.o ABSOLUTE
    _printf_widthprec                        0x00000000   Number         0  printf_stubs.o ABSOLUTE
    __ARM_exceptions_init                     - Undefined Weak Reference
    __alloca_initialize                       - Undefined Weak Reference
    __arm_preinit_                            - Undefined Weak Reference
    __cpp_initialize__aeabi_                  - Undefined Weak Reference
    __cxa_finalize                            - Undefined Weak Reference
    __sigvec_lookup                           - Undefined Weak Reference
    __user_heap_extent                        - Undefined Weak Reference
    _atexit_init                              - Undefined Weak Reference
    _call_atexit_fns                          - Undefined Weak Reference
    _clock_init                               - Undefined Weak Reference
    _fp_trap_init                             - Undefined Weak Reference
    _fp_trap_shutdown                         - Undefined Weak Reference
    _get_lc_collate                           - Undefined Weak Reference
    _get_lc_monetary                          - Undefined Weak Reference
    _get_lc_time                              - Undefined Weak Reference
    _getenv_init                              - Undefined Weak Reference
    _handle_redirection                       - Undefined Weak Reference
    _initio                                   - Undefined Weak Reference
    _mutex_acquire                            - Undefined Weak Reference
    _mutex_free                               - Undefined Weak Reference
    _mutex_release                            - Undefined Weak Reference
    _printf_mbtowc                            - Undefined Weak Reference
    _printf_wc                                - Undefined Weak Reference
    _rand_init                                - Undefined Weak Reference
    _signal_finish                            - Undefined Weak Reference
    _signal_init                              - Undefined Weak Reference
    _terminateio                              - Undefined Weak Reference
    __Vectors_Size                           0x000000ec   Number         0  startup_stm32f10x_md.o ABSOLUTE
    __Vectors                                0x08000000   Data           4  startup_stm32f10x_md.o(RESET)
    __Vectors_End                            0x080000ec   Data           0  startup_stm32f10x_md.o(RESET)
    __main                                   0x080000ed   Thumb Code     8  __main.o(!!!main)
    __scatterload                            0x080000f5   Thumb Code     0  __scatter.o(!!!scatter)
    __scatterload_rt2                        0x080000f5   Thumb Code    44  __scatter.o(!!!scatter)
    __scatterload_rt2_thumb_only             0x080000f5   Thumb Code     0  __scatter.o(!!!scatter)
    __scatterload_null                       0x08000103   Thumb Code     0  __scatter.o(!!!scatter)
    __decompress                             0x08000129   Thumb Code   100  __dclz77c.o(!!dclz77c)
    __decompress2                            0x08000129   Thumb Code     0  __dclz77c.o(!!dclz77c)
    __scatterload_zeroinit                   0x0800018d   Thumb Code    28  __scatter_zi.o(!!handler_zi)
    _printf_n                                0x080001a9   Thumb Code     0  _printf_n.o(.ARM.Collect$$_printf_percent$$00000001)
    _printf_percent                          0x080001a9   Thumb Code     0  _printf_percent.o(.ARM.Collect$$_printf_percent$$00000000)
    _printf_p                                0x080001af   Thumb Code     0  _printf_p.o(.ARM.Collect$$_printf_percent$$00000002)
    _printf_f                                0x080001b5   Thumb Code     0  _printf_f.o(.ARM.Collect$$_printf_percent$$00000003)
    _printf_e                                0x080001bb   Thumb Code     0  _printf_e.o(.ARM.Collect$$_printf_percent$$00000004)
    _printf_g                                0x080001c1   Thumb Code     0  _printf_g.o(.ARM.Collect$$_printf_percent$$00000005)
    _printf_a                                0x080001c7   Thumb Code     0  _printf_a.o(.ARM.Collect$$_printf_percent$$00000006)
    _printf_ll                               0x080001cd   Thumb Code     0  _printf_ll.o(.ARM.Collect$$_printf_percent$$00000007)
    _printf_i                                0x080001d7   Thumb Code     0  _printf_i.o(.ARM.Collect$$_printf_percent$$00000008)
    _printf_d                                0x080001dd   Thumb Code     0  _printf_d.o(.ARM.Collect$$_printf_percent$$00000009)
    _printf_u                                0x080001e3   Thumb Code     0  _printf_u.o(.ARM.Collect$$_printf_percent$$0000000A)
    _printf_o                                0x080001e9   Thumb Code     0  _printf_o.o(.ARM.Collect$$_printf_percent$$0000000B)
    _printf_x                                0x080001ef   Thumb Code     0  _printf_x.o(.ARM.Collect$$_printf_percent$$0000000C)
    _printf_lli                              0x080001f5   Thumb Code     0  _printf_lli.o(.ARM.Collect$$_printf_percent$$0000000D)
    _printf_lld                              0x080001fb   Thumb Code     0  _printf_lld.o(.ARM.Collect$$_printf_percent$$0000000E)
    _printf_llu                              0x08000201   Thumb Code     0  _printf_llu.o(.ARM.Collect$$_printf_percent$$0000000F)
    _printf_llo                              0x08000207   Thumb Code     0  _printf_llo.o(.ARM.Collect$$_printf_percent$$00000010)
    _printf_llx                              0x0800020d   Thumb Code     0  _printf_llx.o(.ARM.Collect$$_printf_percent$$00000011)
    _printf_l                                0x08000213   Thumb Code     0  _printf_l.o(.ARM.Collect$$_printf_percent$$00000012)
    _printf_c                                0x0800021d   Thumb Code     0  _printf_c.o(.ARM.Collect$$_printf_percent$$00000013)
    _printf_s                                0x08000223   Thumb Code     0  _printf_s.o(.ARM.Collect$$_printf_percent$$00000014)
    _printf_lc                               0x08000229   Thumb Code     0  _printf_lc.o(.ARM.Collect$$_printf_percent$$00000015)
    _printf_ls                               0x0800022f   Thumb Code     0  _printf_ls.o(.ARM.Collect$$_printf_percent$$00000016)
    _printf_percent_end                      0x08000235   Thumb Code     0  _printf_percent_end.o(.ARM.Collect$$_printf_percent$$00000017)
    __rt_lib_init                            0x08000239   Thumb Code     0  libinit.o(.ARM.Collect$$libinit$$00000000)
    __rt_lib_init_fp_1                       0x0800023b   Thumb Code     0  libinit2.o(.ARM.Collect$$libinit$$00000002)
    __rt_lib_init_heap_2                     0x0800023b   Thumb Code     0  libinit2.o(.ARM.Collect$$libinit$$00000005)
    __rt_lib_init_preinit_1                  0x0800023b   Thumb Code     0  libinit2.o(.ARM.Collect$$libinit$$00000004)
    __rt_lib_init_heap_1                     0x08000243   Thumb Code     0  libinit2.o(.ARM.Collect$$libinit$$0000000A)
    __rt_lib_init_lc_common                  0x08000243   Thumb Code     0  libinit2.o(.ARM.Collect$$libinit$$0000000F)
    __rt_lib_init_rand_1                     0x08000243   Thumb Code     0  libinit2.o(.ARM.Collect$$libinit$$0000000E)
    __rt_lib_init_user_alloc_1               0x08000243   Thumb Code     0  libinit2.o(.ARM.Collect$$libinit$$0000000C)
    __rt_lib_init_lc_collate_1               0x08000249   Thumb Code     0  libinit2.o(.ARM.Collect$$libinit$$00000011)
    __rt_lib_init_lc_ctype_2                 0x08000249   Thumb Code     0  libinit2.o(.ARM.Collect$$libinit$$00000012)
    __rt_lib_init_lc_ctype_1                 0x08000255   Thumb Code     0  libinit2.o(.ARM.Collect$$libinit$$00000013)
    __rt_lib_init_lc_monetary_1              0x08000255   Thumb Code     0  libinit2.o(.ARM.Collect$$libinit$$00000015)
    __rt_lib_init_lc_numeric_2               0x08000255   Thumb Code     0  libinit2.o(.ARM.Collect$$libinit$$00000016)
    __rt_lib_init_alloca_1                   0x0800025f   Thumb Code     0  libinit2.o(.ARM.Collect$$libinit$$0000002E)
    __rt_lib_init_argv_1                     0x0800025f   Thumb Code     0  libinit2.o(.ARM.Collect$$libinit$$0000002C)
    __rt_lib_init_atexit_1                   0x0800025f   Thumb Code     0  libinit2.o(.ARM.Collect$$libinit$$0000001B)
    __rt_lib_init_clock_1                    0x0800025f   Thumb Code     0  libinit2.o(.ARM.Collect$$libinit$$00000021)
    __rt_lib_init_cpp_1                      0x0800025f   Thumb Code     0  libinit2.o(.ARM.Collect$$libinit$$00000032)
    __rt_lib_init_exceptions_1               0x0800025f   Thumb Code     0  libinit2.o(.ARM.Collect$$libinit$$00000030)
    __rt_lib_init_fp_trap_1                  0x0800025f   Thumb Code     0  libinit2.o(.ARM.Collect$$libinit$$0000001F)
    __rt_lib_init_getenv_1                   0x0800025f   Thumb Code     0  libinit2.o(.ARM.Collect$$libinit$$00000023)
    __rt_lib_init_lc_numeric_1               0x0800025f   Thumb Code     0  libinit2.o(.ARM.Collect$$libinit$$00000017)
    __rt_lib_init_lc_time_1                  0x0800025f   Thumb Code     0  libinit2.o(.ARM.Collect$$libinit$$00000019)
    __rt_lib_init_return                     0x0800025f   Thumb Code     0  libinit2.o(.ARM.Collect$$libinit$$00000033)
    __rt_lib_init_signal_1                   0x0800025f   Thumb Code     0  libinit2.o(.ARM.Collect$$libinit$$0000001D)
    __rt_lib_init_stdio_1                    0x0800025f   Thumb Code     0  libinit2.o(.ARM.Collect$$libinit$$00000025)
    __rt_lib_shutdown                        0x08000261   Thumb Code     0  libshutdown.o(.ARM.Collect$$libshutdown$$00000000)
    __rt_lib_shutdown_fp_trap_1              0x08000263   Thumb Code     0  libshutdown2.o(.ARM.Collect$$libshutdown$$00000006)
    __rt_lib_shutdown_heap_1                 0x08000263   Thumb Code     0  libshutdown2.o(.ARM.Collect$$libshutdown$$0000000E)
    __rt_lib_shutdown_return                 0x08000263   Thumb Code     0  libshutdown2.o(.ARM.Collect$$libshutdown$$0000000F)
    __rt_lib_shutdown_signal_1               0x08000263   Thumb Code     0  libshutdown2.o(.ARM.Collect$$libshutdown$$00000009)
    __rt_lib_shutdown_stdio_1                0x08000263   Thumb Code     0  libshutdown2.o(.ARM.Collect$$libshutdown$$00000003)
    __rt_lib_shutdown_user_alloc_1           0x08000263   Thumb Code     0  libshutdown2.o(.ARM.Collect$$libshutdown$$0000000B)
    __rt_entry                               0x08000265   Thumb Code     0  __rtentry.o(.ARM.Collect$$rtentry$$00000000)
    __rt_entry_presh_1                       0x08000265   Thumb Code     0  __rtentry2.o(.ARM.Collect$$rtentry$$00000002)
    __rt_entry_sh                            0x08000265   Thumb Code     0  __rtentry4.o(.ARM.Collect$$rtentry$$00000004)
    __rt_entry_li                            0x0800026b   Thumb Code     0  __rtentry2.o(.ARM.Collect$$rtentry$$0000000A)
    __rt_entry_postsh_1                      0x0800026b   Thumb Code     0  __rtentry2.o(.ARM.Collect$$rtentry$$00000009)
    __rt_entry_main                          0x0800026f   Thumb Code     0  __rtentry2.o(.ARM.Collect$$rtentry$$0000000D)
    __rt_entry_postli_1                      0x0800026f   Thumb Code     0  __rtentry2.o(.ARM.Collect$$rtentry$$0000000C)
    __rt_exit                                0x08000277   Thumb Code     0  rtexit.o(.ARM.Collect$$rtexit$$00000000)
    __rt_exit_ls                             0x08000279   Thumb Code     0  rtexit2.o(.ARM.Collect$$rtexit$$00000003)
    __rt_exit_prels_1                        0x08000279   Thumb Code     0  rtexit2.o(.ARM.Collect$$rtexit$$00000002)
    __rt_exit_exit                           0x0800027d   Thumb Code     0  rtexit2.o(.ARM.Collect$$rtexit$$00000004)
    Reset_Handler                            0x08000285   Thumb Code     8  startup_stm32f10x_md.o(.text)
    _maybe_terminate_alloc                   0x08000285   Thumb Code     0  maybetermalloc1.o(.emb_text)
    NMI_Handler                              0x0800028d   Thumb Code     2  startup_stm32f10x_md.o(.text)
    HardFault_Handler                        0x0800028f   Thumb Code     2  startup_stm32f10x_md.o(.text)
    MemManage_Handler                        0x08000291   Thumb Code     2  startup_stm32f10x_md.o(.text)
    BusFault_Handler                         0x08000293   Thumb Code     2  startup_stm32f10x_md.o(.text)
    UsageFault_Handler                       0x08000295   Thumb Code     2  startup_stm32f10x_md.o(.text)
    SVC_Handler                              0x08000297   Thumb Code     2  startup_stm32f10x_md.o(.text)
    DebugMon_Handler                         0x08000299   Thumb Code     2  startup_stm32f10x_md.o(.text)
    PendSV_Handler                           0x0800029b   Thumb Code     2  startup_stm32f10x_md.o(.text)
    SysTick_Handler                          0x0800029d   Thumb Code     2  startup_stm32f10x_md.o(.text)
    ADC1_2_IRQHandler                        0x0800029f   Thumb Code     0  startup_stm32f10x_md.o(.text)
    CAN1_RX1_IRQHandler                      0x0800029f   Thumb Code     0  startup_stm32f10x_md.o(.text)
    CAN1_SCE_IRQHandler                      0x0800029f   Thumb Code     0  startup_stm32f10x_md.o(.text)
    DMA1_Channel1_IRQHandler                 0x0800029f   Thumb Code     0  startup_stm32f10x_md.o(.text)
    DMA1_Channel2_IRQHandler                 0x0800029f   Thumb Code     0  startup_stm32f10x_md.o(.text)
    DMA1_Channel3_IRQHandler                 0x0800029f   Thumb Code     0  startup_stm32f10x_md.o(.text)
    DMA1_Channel4_IRQHandler                 0x0800029f   Thumb Code     0  startup_stm32f10x_md.o(.text)
    DMA1_Channel5_IRQHandler                 0x0800029f   Thumb Code     0  startup_stm32f10x_md.o(.text)
    DMA1_Channel6_IRQHandler                 0x0800029f   Thumb Code     0  startup_stm32f10x_md.o(.text)
    DMA1_Channel7_IRQHandler                 0x0800029f   Thumb Code     0  startup_stm32f10x_md.o(.text)
    EXTI0_IRQHandler                         0x0800029f   Thumb Code     0  startup_stm32f10x_md.o(.text)
    EXTI15_10_IRQHandler                     0x0800029f   Thumb Code     0  startup_stm32f10x_md.o(.text)
    EXTI1_IRQHandler                         0x0800029f   Thumb Code     0  startup_stm32f10x_md.o(.text)
    EXTI2_IRQHandler                         0x0800029f   Thumb Code     0  startup_stm32f10x_md.o(.text)
    EXTI3_IRQHandler                         0x0800029f   Thumb Code     0  startup_stm32f10x_md.o(.text)
    EXTI4_IRQHandler                         0x0800029f   Thumb Code     0  startup_stm32f10x_md.o(.text)
    EXTI9_5_IRQHandler                       0x0800029f   Thumb Code     0  startup_stm32f10x_md.o(.text)
    FLASH_IRQHandler                         0x0800029f   Thumb Code     0  startup_stm32f10x_md.o(.text)
    I2C1_ER_IRQHandler                       0x0800029f   Thumb Code     0  startup_stm32f10x_md.o(.text)
    I2C1_EV_IRQHandler                       0x0800029f   Thumb Code     0  startup_stm32f10x_md.o(.text)
    I2C2_ER_IRQHandler                       0x0800029f   Thumb Code     0  startup_stm32f10x_md.o(.text)
    I2C2_EV_IRQHandler                       0x0800029f   Thumb Code     0  startup_stm32f10x_md.o(.text)
    PVD_IRQHandler                           0x0800029f   Thumb Code     0  startup_stm32f10x_md.o(.text)
    RCC_IRQHandler                           0x0800029f   Thumb Code     0  startup_stm32f10x_md.o(.text)
    RTCAlarm_IRQHandler                      0x0800029f   Thumb Code     0  startup_stm32f10x_md.o(.text)
    RTC_IRQHandler                           0x0800029f   Thumb Code     0  startup_stm32f10x_md.o(.text)
    SPI1_IRQHandler                          0x0800029f   Thumb Code     0  startup_stm32f10x_md.o(.text)
    SPI2_IRQHandler                          0x0800029f   Thumb Code     0  startup_stm32f10x_md.o(.text)
    TAMPER_IRQHandler                        0x0800029f   Thumb Code     0  startup_stm32f10x_md.o(.text)
    TIM1_BRK_IRQHandler                      0x0800029f   Thumb Code     0  startup_stm32f10x_md.o(.text)
    TIM1_CC_IRQHandler                       0x0800029f   Thumb Code     0  startup_stm32f10x_md.o(.text)
    TIM1_TRG_COM_IRQHandler                  0x0800029f   Thumb Code     0  startup_stm32f10x_md.o(.text)
    TIM1_UP_IRQHandler                       0x0800029f   Thumb Code     0  startup_stm32f10x_md.o(.text)
    TIM2_IRQHandler                          0x0800029f   Thumb Code     0  startup_stm32f10x_md.o(.text)
    TIM3_IRQHandler                          0x0800029f   Thumb Code     0  startup_stm32f10x_md.o(.text)
    USBWakeUp_IRQHandler                     0x0800029f   Thumb Code     0  startup_stm32f10x_md.o(.text)
    USB_HP_CAN1_TX_IRQHandler                0x0800029f   Thumb Code     0  startup_stm32f10x_md.o(.text)
    USB_LP_CAN1_RX0_IRQHandler               0x0800029f   Thumb Code     0  startup_stm32f10x_md.o(.text)
    WWDG_IRQHandler                          0x0800029f   Thumb Code     0  startup_stm32f10x_md.o(.text)
    __user_initial_stackheap                 0x080002a1   Thumb Code     0  startup_stm32f10x_md.o(.text)
    malloc                                   0x080002c5   Thumb Code    94  h1_alloc.o(.text)
    free                                     0x08000323   Thumb Code    78  h1_free.o(.text)
    vsnprintf                                0x08000371   Thumb Code    48  vsnprintf.o(.text)
    __2sprintf                               0x080003a5   Thumb Code    38  __2sprintf.o(.text)
    _printf_str                              0x080003d1   Thumb Code    82  _printf_str.o(.text)
    __printf                                 0x08000425   Thumb Code   388  __printf_flags_ss_wp.o(.text)
    strcpy                                   0x080005ad   Thumb Code    72  strcpy.o(.text)
    strlen                                   0x080005f5   Thumb Code    62  strlen.o(.text)
    __aeabi_memcpy                           0x08000633   Thumb Code     0  rt_memcpy_v6.o(.text)
    __rt_memcpy                              0x08000633   Thumb Code   138  rt_memcpy_v6.o(.text)
    _memcpy_lastbytes                        0x08000699   Thumb Code     0  rt_memcpy_v6.o(.text)
    __aeabi_memcpy4                          0x080006bd   Thumb Code     0  rt_memcpy_w.o(.text)
    __aeabi_memcpy8                          0x080006bd   Thumb Code     0  rt_memcpy_w.o(.text)
    __rt_memcpy_w                            0x080006bd   Thumb Code   100  rt_memcpy_w.o(.text)
    _memcpy_lastbytes_aligned                0x08000705   Thumb Code     0  rt_memcpy_w.o(.text)
    __aeabi_memclr                           0x08000721   Thumb Code     0  rt_memclr.o(.text)
    __rt_memclr                              0x08000721   Thumb Code    68  rt_memclr.o(.text)
    _memset                                  0x08000725   Thumb Code     0  rt_memclr.o(.text)
    __aeabi_memclr4                          0x08000765   Thumb Code     0  rt_memclr_w.o(.text)
    __aeabi_memclr8                          0x08000765   Thumb Code     0  rt_memclr_w.o(.text)
    __rt_memclr_w                            0x08000765   Thumb Code    78  rt_memclr_w.o(.text)
    _memset_w                                0x08000769   Thumb Code     0  rt_memclr_w.o(.text)
    strncpy                                  0x080007b3   Thumb Code    86  strncpy.o(.text)
    strcmp                                   0x08000809   Thumb Code   128  strcmpv7m.o(.text)
    __use_two_region_memory                  0x08000889   Thumb Code     2  heapauxi.o(.text)
    __rt_heap_escrow                         0x0800088b   Thumb Code     2  heapauxi.o(.text)
    __rt_heap_expand                         0x0800088d   Thumb Code     2  heapauxi.o(.text)
    __rt_heap_descriptor                     0x08000891   Thumb Code     8  rt_heap_descriptor_intlibspace.o(.text)
    __use_no_heap                            0x08000899   Thumb Code     2  hguard.o(.text)
    __heap$guard                             0x0800089b   Thumb Code     2  hguard.o(.text)
    _terminate_user_alloc                    0x0800089d   Thumb Code     2  init_alloc.o(.text)
    _init_user_alloc                         0x0800089f   Thumb Code     2  init_alloc.o(.text)
    __Heap_Full                              0x080008a1   Thumb Code    34  init_alloc.o(.text)
    __Heap_Broken                            0x080008c3   Thumb Code     6  init_alloc.o(.text)
    _init_alloc                              0x080008c9   Thumb Code    94  init_alloc.o(.text)
    __Heap_Initialize                        0x08000927   Thumb Code    10  h1_init.o(.text)
    __Heap_DescSize                          0x08000931   Thumb Code     4  h1_init.o(.text)
    _printf_pre_padding                      0x08000935   Thumb Code    44  _printf_pad.o(.text)
    _printf_post_padding                     0x08000961   Thumb Code    34  _printf_pad.o(.text)
    _printf_truncate_signed                  0x08000983   Thumb Code    18  _printf_truncate.o(.text)
    _printf_truncate_unsigned                0x08000995   Thumb Code    18  _printf_truncate.o(.text)
    _printf_int_dec                          0x080009a9   Thumb Code   104  _printf_dec.o(.text)
    _printf_charcount                        0x08000a21   Thumb Code    40  _printf_charcount.o(.text)
    __lib_sel_fp_printf                      0x08000a49   Thumb Code     2  _printf_fp_dec.o(.text)
    _printf_fp_dec_real                      0x08000bf7   Thumb Code   620  _printf_fp_dec.o(.text)
    _printf_char_common                      0x08000e6f   Thumb Code    32  _printf_char_common.o(.text)
    _sputc                                   0x08000e95   Thumb Code    10  _sputc.o(.text)
    _snputc                                  0x08000e9f   Thumb Code    16  _snputc.o(.text)
    _printf_cs_common                        0x08000eaf   Thumb Code    20  _printf_char.o(.text)
    _printf_char                             0x08000ec3   Thumb Code    16  _printf_char.o(.text)
    _printf_string                           0x08000ed3   Thumb Code     8  _printf_char.o(.text)
    _printf_wctomb                           0x08000edd   Thumb Code   182  _printf_wctomb.o(.text)
    _printf_longlong_dec                     0x08000f99   Thumb Code   108  _printf_longlong_dec.o(.text)
    _printf_longlong_oct                     0x08001015   Thumb Code    68  _printf_oct_int_ll.o(.text)
    _printf_int_oct                          0x08001059   Thumb Code    24  _printf_oct_int_ll.o(.text)
    _printf_ll_oct                           0x08001071   Thumb Code    12  _printf_oct_int_ll.o(.text)
    _printf_longlong_hex                     0x08001085   Thumb Code    86  _printf_hex_int_ll_ptr.o(.text)
    _printf_int_hex                          0x080010db   Thumb Code    28  _printf_hex_int_ll_ptr.o(.text)
    _printf_ll_hex                           0x080010f7   Thumb Code    12  _printf_hex_int_ll_ptr.o(.text)
    _printf_hex_ptr                          0x08001103   Thumb Code    18  _printf_hex_int_ll_ptr.o(.text)
    __user_libspace                          0x08001119   Thumb Code     8  libspace.o(.text)
    __user_perproc_libspace                  0x08001119   Thumb Code     0  libspace.o(.text)
    __user_perthread_libspace                0x08001119   Thumb Code     0  libspace.o(.text)
    __rt_locale                              0x08001121   Thumb Code     8  rt_locale_intlibspace.o(.text)
    __Heap_ProvideMemory                     0x08001129   Thumb Code    52  h1_extend.o(.text)
    _ll_udiv10                               0x0800115d   Thumb Code   138  lludiv10.o(.text)
    _printf_int_common                       0x080011e7   Thumb Code   178  _printf_intcommon.o(.text)
    _printf_fp_hex_real                      0x08001299   Thumb Code   754  _printf_fp_hex.o(.text)
    _printf_fp_infnan                        0x08001595   Thumb Code   112  _printf_fp_infnan.o(.text)
    _printf_lcs_common                       0x08001615   Thumb Code    20  _printf_wchar.o(.text)
    _printf_wchar                            0x08001629   Thumb Code    16  _printf_wchar.o(.text)
    _printf_wstring                          0x08001639   Thumb Code     8  _printf_wchar.o(.text)
    _btod_etento                             0x08001641   Thumb Code   216  bigflt0.o(.text)
    _wcrtomb                                 0x0800171d   Thumb Code    64  _wcrtomb.o(.text)
    __rt_SIGRTMEM                            0x0800175d   Thumb Code    14  defsig_rtmem_outer.o(.text)
    __I$use$semihosting                      0x0800176b   Thumb Code     0  use_no_semi.o(.text)
    __use_no_semihosting_swi                 0x0800176b   Thumb Code     2  use_no_semi.o(.text)
    __semihosting_library_function           0x0800176d   Thumb Code     0  indicate_semi.o(.text)
    __user_setup_stackheap                   0x0800176d   Thumb Code    74  sys_stackheap_outer.o(.text)
    __rt_ctype_table                         0x080017b9   Thumb Code    16  rt_ctype_table.o(.text)
    exit                                     0x080017c9   Thumb Code    12  exit.o(.text)
    __sig_exit                               0x080017d5   Thumb Code    10  defsig_exit.o(.text)
    __rt_SIGRTMEM_inner                      0x080017e1   Thumb Code    22  defsig_rtmem_inner.o(.text)
    _sys_exit                                0x08001831   Thumb Code     8  sys_exit.o(.text)
    __default_signal_display                 0x0800183d   Thumb Code    50  defsig_general.o(.text)
    _ttywrch                                 0x0800186f   Thumb Code    14  sys_wrch.o(.text)
    _btod_d2e                                0x0800187d   Thumb Code    62  btod.o(CL$$btod_d2e)
    _d2e_denorm_low                          0x080018bb   Thumb Code    70  btod.o(CL$$btod_d2e_denorm_low)
    _d2e_norm_op1                            0x08001901   Thumb Code    96  btod.o(CL$$btod_d2e_norm_op1)
    __btod_div_common                        0x08001961   Thumb Code   696  btod.o(CL$$btod_div_common)
    _e2e                                     0x08001c99   Thumb Code   198  btod.o(CL$$btod_e2e)
    _btod_ediv                               0x08001d5f   Thumb Code    40  btod.o(CL$$btod_ediv)
    _btod_emul                               0x08001d87   Thumb Code    40  btod.o(CL$$btod_emul)
    __btod_mult_common                       0x08001daf   Thumb Code   580  btod.o(CL$$btod_mult_common)
    ADC1_GPIO_Config                         0x08001ff5   Thumb Code    32  adc.o(i.ADC1_GPIO_Config)
    ADC_Cmd                                  0x08002019   Thumb Code    22  stm32f10x_adc.o(i.ADC_Cmd)
    ADC_GetCalibrationStatus                 0x0800202f   Thumb Code    20  stm32f10x_adc.o(i.ADC_GetCalibrationStatus)
    ADC_GetConversionValue                   0x08002043   Thumb Code     8  stm32f10x_adc.o(i.ADC_GetConversionValue)
    ADC_GetFlagStatus                        0x0800204b   Thumb Code    18  stm32f10x_adc.o(i.ADC_GetFlagStatus)
    ADC_GetResetCalibrationStatus            0x0800205d   Thumb Code    20  stm32f10x_adc.o(i.ADC_GetResetCalibrationStatus)
    ADC_Init                                 0x08002071   Thumb Code    70  stm32f10x_adc.o(i.ADC_Init)
    ADC_RegularChannelConfig                 0x080020c1   Thumb Code   184  stm32f10x_adc.o(i.ADC_RegularChannelConfig)
    ADC_ResetCalibration                     0x08002179   Thumb Code    10  stm32f10x_adc.o(i.ADC_ResetCalibration)
    ADC_SoftwareStartConvCmd                 0x08002183   Thumb Code    22  stm32f10x_adc.o(i.ADC_SoftwareStartConvCmd)
    ADC_StartCalibration                     0x08002199   Thumb Code    10  stm32f10x_adc.o(i.ADC_StartCalibration)
    ADCinit                                  0x080021a3   Thumb Code    12  adc.o(i.ADCinit)
    Adc1_Init                                0x080021b1   Thumb Code   114  adc.o(i.Adc1_Init)
    GPIO_Init                                0x0800281d   Thumb Code   278  stm32f10x_gpio.o(i.GPIO_Init)
    GPIO_PinRemapConfig                      0x08002935   Thumb Code   138  stm32f10x_gpio.o(i.GPIO_PinRemapConfig)
    GPIO_ReadOutputDataBit                   0x080029c5   Thumb Code    18  stm32f10x_gpio.o(i.GPIO_ReadOutputDataBit)
    GPIO_ResetBits                           0x080029d7   Thumb Code     4  stm32f10x_gpio.o(i.GPIO_ResetBits)
    GPIO_SetBits                             0x080029db   Thumb Code     4  stm32f10x_gpio.o(i.GPIO_SetBits)
    GPIO_WriteBit                            0x080029df   Thumb Code    10  stm32f10x_gpio.o(i.GPIO_WriteBit)
    Get_Adc                                  0x080029e9   Thumb Code    32  adc.o(i.Get_Adc)
    GimbalEmu_ControlSpeed                   0x08002b35   Thumb Code   152  test_payload_gimbal_emu.o(i.GimbalEmu_ControlSpeed)
    GimbalEmu_GetGimbalParam                 0x08002c3d   Thumb Code   556  test_payload_gimbal_emu.o(i.GimbalEmu_GetGimbalParam)
    GimbalEmu_ReturnHead                     0x08002ea1   Thumb Code    32  test_payload_gimbal_emu.o(i.GimbalEmu_ReturnHead)
    GimbalEmu_SetGimbalMode                  0x08002eed   Thumb Code    26  test_payload_gimbal_emu.o(i.GimbalEmu_SetGimbalMode)
    GimbalEmu_StartCalibration               0x08002f31   Thumb Code    20  test_payload_gimbal_emu.o(i.GimbalEmu_StartCalibration)
    LED_Control                              0x08002f71   Thumb Code    84  led_button_switch.o(i.LED_Control)
    LED_Init                                 0x08002fc9   Thumb Code    38  led_button_switch.o(i.LED_Init)
    LOG_Init                                 0x08002ff5   Thumb Code    20  log_printf.o(i.LOG_Init)
    MotorDriverGPIO_Init                     0x0800300d   Thumb Code    64  motordriver.o(i.MotorDriverGPIO_Init)
    NVIC_Init                                0x0800317d   Thumb Code   100  misc.o(i.NVIC_Init)
    PsdkAes_Decrypt                          0x08003309   Thumb Code   112  psdk_aes.o(i.PsdkAes_Decrypt)
    PsdkAes_Encrypt                          0x08003399   Thumb Code   112  psdk_aes.o(i.PsdkAes_Encrypt)
    PsdkAes_SetupDecrypt                     0x08003fb9   Thumb Code   634  psdk_aes.o(i.PsdkAes_SetupDecrypt)
    PsdkAppFunc_Init                         0x08004699   Thumb Code    62  psdk_app_func.o(i.PsdkAppFunc_Init)
    PsdkAppFunc_PushMsgToFloatingWindow      0x080046f1   Thumb Code    94  psdk_app_func.o(i.PsdkAppFunc_PushMsgToFloatingWindow)
    PsdkAppFunc_RegGetWidgetValueCallback    0x08004751   Thumb Code    10  psdk_app_func.o(i.PsdkAppFunc_RegGetWidgetValueCallback)
    PsdkAppFunc_RegSetWidgetValueCallback    0x08004761   Thumb Code    10  psdk_app_func.o(i.PsdkAppFunc_RegSetWidgetValueCallback)
    PsdkAppFunc_SetReceiveFromAppCallback    0x08004771   Thumb Code    10  psdk_app_func.o(i.PsdkAppFunc_SetReceiveFromAppCallback)
    PsdkAppFunc_SetWidgetList                0x08004781   Thumb Code    14  psdk_app_func.o(i.PsdkAppFunc_SetWidgetList)
    PsdkAppFunc_TransferToApp                0x08004799   Thumb Code   172  psdk_app_func.o(i.PsdkAppFunc_TransferToApp)
    PsdkCrc_Crc16                            0x08004845   Thumb Code    74  psdk_crc.o(i.PsdkCrc_Crc16)
    PsdkCrc_Crc32                            0x080048b5   Thumb Code    76  psdk_crc.o(i.PsdkCrc_Crc32)
    PsdkDebug_AssertFailed                   0x08004925   Thumb Code    20  psdk_debug.o(i.PsdkDebug_AssertFailed)
    PsdkGimbal_Init                          0x08004971   Thumb Code    48  psdk_payload_gimbal.o(i.PsdkGimbal_Init)
    PsdkMotorTest                            0x080049ad   Thumb Code   106  application.o(i.PsdkMotorTest)
    PsdkMsgSub_Init                          0x08004a5d   Thumb Code    38  psdk_msg_subcribe.o(i.PsdkMsgSub_Init)
    PsdkMsgSub_RegMsgCallbackList            0x08004a8d   Thumb Code    20  psdk_msg_subcribe.o(i.PsdkMsgSub_RegMsgCallbackList)
    PsdkProcessRec                           0x08004c5d   Thumb Code    32  application.o(i.PsdkProcessRec)
    PsdkProtParse_AddByte                    0x08004c85   Thumb Code   224  psdk_proto_parse.o(i.PsdkProtParse_AddByte)
    PsdkProtParse_Init                       0x08004d6d   Thumb Code     8  psdk_proto_parse.o(i.PsdkProtParse_Init)
    PsdkProt_GetCurrentSendSeq               0x08004d75   Thumb Code    18  psdk_proto.o(i.PsdkProt_GetCurrentSendSeq)
    PsdkProto_DealCmd                        0x08004e71   Thumb Code   236  psdk_proto.o(i.PsdkProto_DealCmd)
    PsdkProto_Init                           0x08005183   Thumb Code    78  psdk_proto.o(i.PsdkProto_Init)
    PsdkProto_ProcessReceiveData             0x080051d1   Thumb Code   110  psdk_proto.o(i.PsdkProto_ProcessReceiveData)
    PsdkProto_RegCmdSetHandler               0x08005309   Thumb Code   114  psdk_proto.o(i.PsdkProto_RegCmdSetHandler)
    PsdkProto_RegSendDataFunc                0x0800537b   Thumb Code    16  psdk_proto.o(i.PsdkProto_RegSendDataFunc)
    PsdkProto_Send                           0x0800538b   Thumb Code    64  psdk_proto.o(i.PsdkProto_Send)
    PsdkProto_SendAckData                    0x080053cb   Thumb Code    62  psdk_proto.o(i.PsdkProto_SendAckData)
    PsdkUpper_Init                           0x08005409   Thumb Code   100  psdk_upper.o(i.PsdkUpper_Init)
    PsdkUpper_ProcessReceiveData             0x08005479   Thumb Code    20  psdk_upper.o(i.PsdkUpper_ProcessReceiveData)
    PsdkUpper_RegSendFunction                0x0800548d   Thumb Code    16  psdk_upper.o(i.PsdkUpper_RegSendFunction)
    Psdk_Read                                0x0800549d   Thumb Code    22  application.o(i.Psdk_Read)
    Psdk_Write                               0x080054b3   Thumb Code    20  application.o(i.Psdk_Write)
    RCC_ADCCLKConfig                         0x080054c9   Thumb Code    18  stm32f10x_rcc.o(i.RCC_ADCCLKConfig)
    RCC_APB1PeriphClockCmd                   0x080054e1   Thumb Code    26  stm32f10x_rcc.o(i.RCC_APB1PeriphClockCmd)
    RCC_APB1PeriphResetCmd                   0x08005501   Thumb Code    26  stm32f10x_rcc.o(i.RCC_APB1PeriphResetCmd)
    RCC_APB2PeriphClockCmd                   0x08005521   Thumb Code    26  stm32f10x_rcc.o(i.RCC_APB2PeriphClockCmd)
    RCC_APB2PeriphResetCmd                   0x08005541   Thumb Code    26  stm32f10x_rcc.o(i.RCC_APB2PeriphResetCmd)
    RCC_Configuration                        0x08005561   Thumb Code    90  main.o(i.RCC_Configuration)
    RCC_DeInit                               0x080055bd   Thumb Code    64  stm32f10x_rcc.o(i.RCC_DeInit)
    RCC_GetClocksFreq                        0x08005609   Thumb Code   192  stm32f10x_rcc.o(i.RCC_GetClocksFreq)
    RCC_GetFlagStatus                        0x080056dd   Thumb Code    56  stm32f10x_rcc.o(i.RCC_GetFlagStatus)
    RCC_GetSYSCLKSource                      0x08005719   Thumb Code    10  stm32f10x_rcc.o(i.RCC_GetSYSCLKSource)
    RCC_HCLKConfig                           0x08005729   Thumb Code    18  stm32f10x_rcc.o(i.RCC_HCLKConfig)
    RCC_HSICmd                               0x08005741   Thumb Code     6  stm32f10x_rcc.o(i.RCC_HSICmd)
    RCC_PCLK1Config                          0x0800574d   Thumb Code    18  stm32f10x_rcc.o(i.RCC_PCLK1Config)
    RCC_PCLK2Config                          0x08005765   Thumb Code    20  stm32f10x_rcc.o(i.RCC_PCLK2Config)
    RCC_PLLCmd                               0x0800577d   Thumb Code     6  stm32f10x_rcc.o(i.RCC_PLLCmd)
    RCC_PLLConfig                            0x08005789   Thumb Code    24  stm32f10x_rcc.o(i.RCC_PLLConfig)
    RCC_SYSCLKConfig                         0x080057a5   Thumb Code    18  stm32f10x_rcc.o(i.RCC_SYSCLKConfig)
    RingBuf_Get                              0x080057db   Thumb Code   116  dji_ringbuffer.o(i.RingBuf_Get)
    RingBuf_Init                             0x0800584f   Thumb Code    36  dji_ringbuffer.o(i.RingBuf_Init)
    RingBuf_Put                              0x08005873   Thumb Code   124  dji_ringbuffer.o(i.RingBuf_Put)
    SystemInit                               0x08005a09   Thumb Code    78  system_stm32f10x.o(i.SystemInit)
    TIM4_IRQHandler                          0x08005a69   Thumb Code   170  motordriver.o(i.TIM4_IRQHandler)
    TIM4_init                                0x08005b2d   Thumb Code   104  motordriver.o(i.TIM4_init)
    TIM_ARRPreloadConfig                     0x08005b99   Thumb Code    24  stm32f10x_tim.o(i.TIM_ARRPreloadConfig)
    TIM_ClearITPendingBit                    0x08005bb1   Thumb Code     6  stm32f10x_tim.o(i.TIM_ClearITPendingBit)
    TIM_Cmd                                  0x08005bb7   Thumb Code    24  stm32f10x_tim.o(i.TIM_Cmd)
    TIM_DeInit                               0x08005bd1   Thumb Code   424  stm32f10x_tim.o(i.TIM_DeInit)
    TIM_GetITStatus                          0x08005db9   Thumb Code    34  stm32f10x_tim.o(i.TIM_GetITStatus)
    TIM_ITConfig                             0x08005ddb   Thumb Code    18  stm32f10x_tim.o(i.TIM_ITConfig)
    TIM_TimeBaseInit                         0x08005ded   Thumb Code   122  stm32f10x_tim.o(i.TIM_TimeBaseInit)
    Test_GetWidgetValueFunc                  0x08005e91   Thumb Code    20  test_app_func.o(i.Test_GetWidgetValueFunc)
    Test_ReceiveFromMobileSDKFunc            0x08005ea9   Thumb Code    34  test_app_func.o(i.Test_ReceiveFromMobileSDKFunc)
    Test_SetWidgetValueFunc                  0x08005ee5   Thumb Code   118  test_app_func.o(i.Test_SetWidgetValueFunc)
    TurnDownMotro                            0x08005f8d   Thumb Code    26  motordriver.o(i.TurnDownMotro)
    TurnOFFMotro                             0x08005fad   Thumb Code    28  motordriver.o(i.TurnOFFMotro)
    TurnUpMotro                              0x08005fcd   Thumb Code    26  motordriver.o(i.TurnUpMotro)
    UART_Init                                0x08005fed   Thumb Code   528  uart.o(i.UART_Init)
    UART_Printf                              0x08006241   Thumb Code    62  log_printf.o(i.UART_Printf)
    UART_Read                                0x08006285   Thumb Code    80  uart.o(i.UART_Read)
    UART_Write                               0x080062e1   Thumb Code   116  uart.o(i.UART_Write)
    USART1_IRQHandler                        0x0800636d   Thumb Code    84  uart.o(i.USART1_IRQHandler)
    USART2_IRQHandler                        0x080063cd   Thumb Code    84  uart.o(i.USART2_IRQHandler)
    USART3_IRQHandler                        0x0800642d   Thumb Code    84  uart.o(i.USART3_IRQHandler)
    USART_Cmd                                0x0800648d   Thumb Code    24  stm32f10x_usart.o(i.USART_Cmd)
    USART_GetITStatus                        0x080064a5   Thumb Code    84  stm32f10x_usart.o(i.USART_GetITStatus)
    USART_ITConfig                           0x080064f9   Thumb Code    74  stm32f10x_usart.o(i.USART_ITConfig)
    USART_Init                               0x08006545   Thumb Code   210  stm32f10x_usart.o(i.USART_Init)
    USART_ReceiveData                        0x0800661d   Thumb Code    10  stm32f10x_usart.o(i.USART_ReceiveData)
    USART_SendData                           0x08006627   Thumb Code     8  stm32f10x_usart.o(i.USART_SendData)
    __ARM_fpclassify                         0x0800662f   Thumb Code    40  fpclassify.o(i.__ARM_fpclassify)
    _is_digit                                0x08006657   Thumb Code    14  __printf_wp.o(i._is_digit)
    application_init                         0x08006669   Thumb Code   118  application.o(i.application_init)
    main                                     0x0800671d   Thumb Code   126  main.o(i.main)
    md5_final                                0x080067d9   Thumb Code   234  psdk_md5.o(i.md5_final)
    md5_init                                 0x080068c5   Thumb Code    30  psdk_md5.o(i.md5_init)
    md5_transform                            0x080068ed   Thumb Code  2434  psdk_md5.o(i.md5_transform)
    md5_update                               0x0800736d   Thumb Code    68  psdk_md5.o(i.md5_update)
    _get_lc_numeric                          0x080073b9   Thumb Code    44  lc_numeric_c.o(locale$$code)
    _get_lc_ctype                            0x080073e5   Thumb Code    44  lc_ctype_c.o(locale$$code)
    __aeabi_d2f                              0x08007411   Thumb Code     0  d2f.o(x$fpl$d2f)
    _d2f                                     0x08007411   Thumb Code    98  d2f.o(x$fpl$d2f)
    __aeabi_dadd                             0x08007475   Thumb Code     0  daddsub_clz.o(x$fpl$dadd)
    _dadd                                    0x08007475   Thumb Code   332  daddsub_clz.o(x$fpl$dadd)
    __aeabi_ddiv                             0x080075c5   Thumb Code     0  ddiv.o(x$fpl$ddiv)
    _ddiv                                    0x080075c5   Thumb Code   552  ddiv.o(x$fpl$ddiv)
    __aeabi_d2iz                             0x08007875   Thumb Code     0  dfix.o(x$fpl$dfix)
    _dfix                                    0x08007875   Thumb Code    94  dfix.o(x$fpl$dfix)
    __aeabi_i2d                              0x080078d3   Thumb Code     0  dflt_clz.o(x$fpl$dflt)
    _dflt                                    0x080078d3   Thumb Code    46  dflt_clz.o(x$fpl$dflt)
    __aeabi_ui2d                             0x08007901   Thumb Code     0  dflt_clz.o(x$fpl$dfltu)
    _dfltu                                   0x08007901   Thumb Code    38  dflt_clz.o(x$fpl$dfltu)
    __aeabi_dmul                             0x08007929   Thumb Code     0  dmul.o(x$fpl$dmul)
    _dmul                                    0x08007929   Thumb Code   332  dmul.o(x$fpl$dmul)
    __fpl_dnaninf                            0x08007a7d   Thumb Code   156  dnaninf.o(x$fpl$dnaninf)
    __fpl_dretinf                            0x08007b19   Thumb Code    12  dretinf.o(x$fpl$dretinf)
    __aeabi_dsub                             0x08007b25   Thumb Code     0  daddsub_clz.o(x$fpl$dsub)
    _dsub                                    0x08007b25   Thumb Code   464  daddsub_clz.o(x$fpl$dsub)
    __aeabi_f2d                              0x08007cf9   Thumb Code     0  f2d.o(x$fpl$f2d)
    _f2d                                     0x08007cf9   Thumb Code    86  f2d.o(x$fpl$f2d)
    __fpl_fnaninf                            0x08007d4f   Thumb Code   140  fnaninf.o(x$fpl$fnaninf)
    __fpl_fretinf                            0x08007ddb   Thumb Code    10  fretinf.o(x$fpl$fretinf)
    _printf_fp_dec                           0x08007de5   Thumb Code     4  printf1.o(x$fpl$printf1)
    _printf_fp_hex                           0x08007de9   Thumb Code     4  printf2.o(x$fpl$printf2)
    __I$use$fp                               0x08007dec   Number         0  usenofp.o(x$fpl$usenofp)
    g_TestWidgetCount                        0x08008ae4   Data           1  test_app_func.o(.constdata)
    g_PushDataMsgCallbackList                0x08008b1c   Data          36  test_msg_push.o(.constdata)
    g_testGimbalHandler                      0x08008b40   Data          20  test_payload_gimbal_emu.o(.constdata)
    Region$$Table$$Base                      0x08008e60   Number         0  anon$$obj.o(Region$$Table)
    Region$$Table$$Limit                     0x08008e80   Number         0  anon$$obj.o(Region$$Table)
    __ctype                                  0x08008ea9   Data           0  lc_ctype_c.o(locale$$data)
    task_Run_couter                          0x20000004   Data           4  motordriver.o(.data)
    task_Run_flag                            0x20000008   Data           1  motordriver.o(.data)
    Motor_Run_couter                         0x2000000c   Data           4  motordriver.o(.data)
    Motor_Run_flag                           0x20000010   Data           1  motordriver.o(.data)
    Motor_Direction_flag                     0x20000011   Data           1  motordriver.o(.data)
    LastDirectionFlag                        0x20000012   Data           1  motordriver.o(.data)
    LED_Open_Flag                            0x20000013   Data           1  motordriver.o(.data)
    ADC_value                                0x20000014   Data           4  adc.o(.data)
    switch1Val                               0x20000444   Data           4  test_app_func.o(.data)
    LastSwitch1Val                           0x20000448   Data           4  test_app_func.o(.data)
    g_TestWidgetList                         0x2000044c   Data           4  test_app_func.o(.data)
    SYSclock                                 0x20000460   Data          20  main.o(.bss)
    s_psdkUpperHandle                        0x20000474   Data        1040  application.o(.bss)
    __libspace_start                         0x20002050   Data          96  libspace.o(.bss)
    __temporary_stack_top$libspace           0x200020b0   Data           0  libspace.o(.bss)



==============================================================================

Memory Map of the image

  Image Entry point : 0x080000ed

  Load Region LR_IROM1 (Base: 0x08000000, Size: 0x0000940c, Max: 0x00010000, ABSOLUTE, COMPRESSED[0x000093d8])

    Execution Region ER_IROM1 (Base: 0x08000000, Size: 0x00008fac, Max: 0x00010000, ABSOLUTE)

    Base Addr    Size         Type   Attr      Idx    E Section Name        Object

    0x08000000   0x000000ec   Data   RO         3569    RESET               startup_stm32f10x_md.o
    0x080000ec   0x00000008   Code   RO         3735  * !!!main             c_w.l(__main.o)
    0x080000f4   0x00000034   Code   RO         4108    !!!scatter          c_w.l(__scatter.o)
    0x08000128   0x00000064   Code   RO         4106    !!dclz77c           c_w.l(__dclz77c.o)
    0x0800018c   0x0000001c   Code   RO         4110    !!handler_zi        c_w.l(__scatter_zi.o)
    0x080001a8   0x00000000   Code   RO         3716    .ARM.Collect$$_printf_percent$$00000000  c_w.l(_printf_percent.o)
    0x080001a8   0x00000006   Code   RO         3844    .ARM.Collect$$_printf_percent$$00000001  c_w.l(_printf_n.o)
    0x080001ae   0x00000006   Code   RO         3846    .ARM.Collect$$_printf_percent$$00000002  c_w.l(_printf_p.o)
    0x080001b4   0x00000006   Code   RO         3715    .ARM.Collect$$_printf_percent$$00000003  c_w.l(_printf_f.o)
    0x080001ba   0x00000006   Code   RO         3851    .ARM.Collect$$_printf_percent$$00000004  c_w.l(_printf_e.o)
    0x080001c0   0x00000006   Code   RO         3852    .ARM.Collect$$_printf_percent$$00000005  c_w.l(_printf_g.o)
    0x080001c6   0x00000006   Code   RO         3853    .ARM.Collect$$_printf_percent$$00000006  c_w.l(_printf_a.o)
    0x080001cc   0x0000000a   Code   RO         3858    .ARM.Collect$$_printf_percent$$00000007  c_w.l(_printf_ll.o)
    0x080001d6   0x00000006   Code   RO         3848    .ARM.Collect$$_printf_percent$$00000008  c_w.l(_printf_i.o)
    0x080001dc   0x00000006   Code   RO         3849    .ARM.Collect$$_printf_percent$$00000009  c_w.l(_printf_d.o)
    0x080001e2   0x00000006   Code   RO         3850    .ARM.Collect$$_printf_percent$$0000000A  c_w.l(_printf_u.o)
    0x080001e8   0x00000006   Code   RO         3847    .ARM.Collect$$_printf_percent$$0000000B  c_w.l(_printf_o.o)
    0x080001ee   0x00000006   Code   RO         3845    .ARM.Collect$$_printf_percent$$0000000C  c_w.l(_printf_x.o)
    0x080001f4   0x00000006   Code   RO         3855    .ARM.Collect$$_printf_percent$$0000000D  c_w.l(_printf_lli.o)
    0x080001fa   0x00000006   Code   RO         3856    .ARM.Collect$$_printf_percent$$0000000E  c_w.l(_printf_lld.o)
    0x08000200   0x00000006   Code   RO         3857    .ARM.Collect$$_printf_percent$$0000000F  c_w.l(_printf_llu.o)
    0x08000206   0x00000006   Code   RO         3862    .ARM.Collect$$_printf_percent$$00000010  c_w.l(_printf_llo.o)
    0x0800020c   0x00000006   Code   RO         3863    .ARM.Collect$$_printf_percent$$00000011  c_w.l(_printf_llx.o)
    0x08000212   0x0000000a   Code   RO         3859    .ARM.Collect$$_printf_percent$$00000012  c_w.l(_printf_l.o)
    0x0800021c   0x00000006   Code   RO         3843    .ARM.Collect$$_printf_percent$$00000013  c_w.l(_printf_c.o)
    0x08000222   0x00000006   Code   RO         3714    .ARM.Collect$$_printf_percent$$00000014  c_w.l(_printf_s.o)
    0x08000228   0x00000006   Code   RO         3860    .ARM.Collect$$_printf_percent$$00000015  c_w.l(_printf_lc.o)
    0x0800022e   0x00000006   Code   RO         3861    .ARM.Collect$$_printf_percent$$00000016  c_w.l(_printf_ls.o)
    0x08000234   0x00000004   Code   RO         3854    .ARM.Collect$$_printf_percent$$00000017  c_w.l(_printf_percent_end.o)
    0x08000238   0x00000002   Code   RO         4043    .ARM.Collect$$libinit$$00000000  c_w.l(libinit.o)
    0x0800023a   0x00000000   Code   RO         3867    .ARM.Collect$$libinit$$00000002  c_w.l(libinit2.o)
    0x0800023a   0x00000000   Code   RO         3869    .ARM.Collect$$libinit$$00000004  c_w.l(libinit2.o)
    0x0800023a   0x00000008   Code   RO         3870    .ARM.Collect$$libinit$$00000005  c_w.l(libinit2.o)
    0x08000242   0x00000000   Code   RO         3872    .ARM.Collect$$libinit$$0000000A  c_w.l(libinit2.o)
    0x08000242   0x00000000   Code   RO         3874    .ARM.Collect$$libinit$$0000000C  c_w.l(libinit2.o)
    0x08000242   0x00000000   Code   RO         3876    .ARM.Collect$$libinit$$0000000E  c_w.l(libinit2.o)
    0x08000242   0x00000006   Code   RO         3877    .ARM.Collect$$libinit$$0000000F  c_w.l(libinit2.o)
    0x08000248   0x00000000   Code   RO         3879    .ARM.Collect$$libinit$$00000011  c_w.l(libinit2.o)
    0x08000248   0x0000000c   Code   RO         3880    .ARM.Collect$$libinit$$00000012  c_w.l(libinit2.o)
    0x08000254   0x00000000   Code   RO         3881    .ARM.Collect$$libinit$$00000013  c_w.l(libinit2.o)
    0x08000254   0x00000000   Code   RO         3883    .ARM.Collect$$libinit$$00000015  c_w.l(libinit2.o)
    0x08000254   0x0000000a   Code   RO         3884    .ARM.Collect$$libinit$$00000016  c_w.l(libinit2.o)
    0x0800025e   0x00000000   Code   RO         3885    .ARM.Collect$$libinit$$00000017  c_w.l(libinit2.o)
    0x0800025e   0x00000000   Code   RO         3887    .ARM.Collect$$libinit$$00000019  c_w.l(libinit2.o)
    0x0800025e   0x00000000   Code   RO         3889    .ARM.Collect$$libinit$$0000001B  c_w.l(libinit2.o)
    0x0800025e   0x00000000   Code   RO         3891    .ARM.Collect$$libinit$$0000001D  c_w.l(libinit2.o)
    0x0800025e   0x00000000   Code   RO         3893    .ARM.Collect$$libinit$$0000001F  c_w.l(libinit2.o)
    0x0800025e   0x00000000   Code   RO         3895    .ARM.Collect$$libinit$$00000021  c_w.l(libinit2.o)
    0x0800025e   0x00000000   Code   RO         3897    .ARM.Collect$$libinit$$00000023  c_w.l(libinit2.o)
    0x0800025e   0x00000000   Code   RO         3899    .ARM.Collect$$libinit$$00000025  c_w.l(libinit2.o)
    0x0800025e   0x00000000   Code   RO         3903    .ARM.Collect$$libinit$$0000002C  c_w.l(libinit2.o)
    0x0800025e   0x00000000   Code   RO         3905    .ARM.Collect$$libinit$$0000002E  c_w.l(libinit2.o)
    0x0800025e   0x00000000   Code   RO         3907    .ARM.Collect$$libinit$$00000030  c_w.l(libinit2.o)
    0x0800025e   0x00000000   Code   RO         3909    .ARM.Collect$$libinit$$00000032  c_w.l(libinit2.o)
    0x0800025e   0x00000002   Code   RO         3910    .ARM.Collect$$libinit$$00000033  c_w.l(libinit2.o)
    0x08000260   0x00000002   Code   RO         4103    .ARM.Collect$$libshutdown$$00000000  c_w.l(libshutdown.o)
    0x08000262   0x00000000   Code   RO         4061    .ARM.Collect$$libshutdown$$00000003  c_w.l(libshutdown2.o)
    0x08000262   0x00000000   Code   RO         4064    .ARM.Collect$$libshutdown$$00000006  c_w.l(libshutdown2.o)
    0x08000262   0x00000000   Code   RO         4067    .ARM.Collect$$libshutdown$$00000009  c_w.l(libshutdown2.o)
    0x08000262   0x00000000   Code   RO         4069    .ARM.Collect$$libshutdown$$0000000B  c_w.l(libshutdown2.o)
    0x08000262   0x00000000   Code   RO         4072    .ARM.Collect$$libshutdown$$0000000E  c_w.l(libshutdown2.o)
    0x08000262   0x00000002   Code   RO         4073    .ARM.Collect$$libshutdown$$0000000F  c_w.l(libshutdown2.o)
    0x08000264   0x00000000   Code   RO         3767    .ARM.Collect$$rtentry$$00000000  c_w.l(__rtentry.o)
    0x08000264   0x00000000   Code   RO         3932    .ARM.Collect$$rtentry$$00000002  c_w.l(__rtentry2.o)
    0x08000264   0x00000006   Code   RO         3944    .ARM.Collect$$rtentry$$00000004  c_w.l(__rtentry4.o)
    0x0800026a   0x00000000   Code   RO         3934    .ARM.Collect$$rtentry$$00000009  c_w.l(__rtentry2.o)
    0x0800026a   0x00000004   Code   RO         3935    .ARM.Collect$$rtentry$$0000000A  c_w.l(__rtentry2.o)
    0x0800026e   0x00000000   Code   RO         3937    .ARM.Collect$$rtentry$$0000000C  c_w.l(__rtentry2.o)
    0x0800026e   0x00000008   Code   RO         3938    .ARM.Collect$$rtentry$$0000000D  c_w.l(__rtentry2.o)
    0x08000276   0x00000002   Code   RO         4046    .ARM.Collect$$rtexit$$00000000  c_w.l(rtexit.o)
    0x08000278   0x00000000   Code   RO         4077    .ARM.Collect$$rtexit$$00000002  c_w.l(rtexit2.o)
    0x08000278   0x00000004   Code   RO         4078    .ARM.Collect$$rtexit$$00000003  c_w.l(rtexit2.o)
    0x0800027c   0x00000006   Code   RO         4079    .ARM.Collect$$rtexit$$00000004  c_w.l(rtexit2.o)
    0x08000282   0x00000002   PAD
    0x08000284   0x00000000   Code   RO         3953    .emb_text           c_w.l(maybetermalloc1.o)
    0x08000284   0x00000040   Code   RO         3570    .text               startup_stm32f10x_md.o
    0x080002c4   0x0000005e   Code   RO         3626    .text               c_w.l(h1_alloc.o)
    0x08000322   0x0000004e   Code   RO         3628    .text               c_w.l(h1_free.o)
    0x08000370   0x00000034   Code   RO         3684    .text               c_w.l(vsnprintf.o)
    0x080003a4   0x0000002c   Code   RO         3686    .text               c_w.l(__2sprintf.o)
    0x080003d0   0x00000052   Code   RO         3692    .text               c_w.l(_printf_str.o)
    0x08000422   0x00000002   PAD
    0x08000424   0x00000188   Code   RO         3711    .text               c_w.l(__printf_flags_ss_wp.o)
    0x080005ac   0x00000048   Code   RO         3717    .text               c_w.l(strcpy.o)
    0x080005f4   0x0000003e   Code   RO         3719    .text               c_w.l(strlen.o)
    0x08000632   0x0000008a   Code   RO         3721    .text               c_w.l(rt_memcpy_v6.o)
    0x080006bc   0x00000064   Code   RO         3723    .text               c_w.l(rt_memcpy_w.o)
    0x08000720   0x00000044   Code   RO         3725    .text               c_w.l(rt_memclr.o)
    0x08000764   0x0000004e   Code   RO         3727    .text               c_w.l(rt_memclr_w.o)
    0x080007b2   0x00000056   Code   RO         3729    .text               c_w.l(strncpy.o)
    0x08000808   0x00000080   Code   RO         3731    .text               c_w.l(strcmpv7m.o)
    0x08000888   0x00000006   Code   RO         3733    .text               c_w.l(heapauxi.o)
    0x0800088e   0x00000002   PAD
    0x08000890   0x00000008   Code   RO         3771    .text               c_w.l(rt_heap_descriptor_intlibspace.o)
    0x08000898   0x00000004   Code   RO         3773    .text               c_w.l(hguard.o)
    0x0800089c   0x0000008a   Code   RO         3775    .text               c_w.l(init_alloc.o)
    0x08000926   0x0000000e   Code   RO         3779    .text               c_w.l(h1_init.o)
    0x08000934   0x0000004e   Code   RO         3793    .text               c_w.l(_printf_pad.o)
    0x08000982   0x00000024   Code   RO         3795    .text               c_w.l(_printf_truncate.o)
    0x080009a6   0x00000002   PAD
    0x080009a8   0x00000078   Code   RO         3797    .text               c_w.l(_printf_dec.o)
    0x08000a20   0x00000028   Code   RO         3799    .text               c_w.l(_printf_charcount.o)
    0x08000a48   0x0000041a   Code   RO         3801    .text               c_w.l(_printf_fp_dec.o)
    0x08000e62   0x00000002   PAD
    0x08000e64   0x00000030   Code   RO         3803    .text               c_w.l(_printf_char_common.o)
    0x08000e94   0x0000000a   Code   RO         3805    .text               c_w.l(_sputc.o)
    0x08000e9e   0x00000010   Code   RO         3807    .text               c_w.l(_snputc.o)
    0x08000eae   0x0000002c   Code   RO         3809    .text               c_w.l(_printf_char.o)
    0x08000eda   0x00000002   PAD
    0x08000edc   0x000000bc   Code   RO         3811    .text               c_w.l(_printf_wctomb.o)
    0x08000f98   0x0000007c   Code   RO         3814    .text               c_w.l(_printf_longlong_dec.o)
    0x08001014   0x00000070   Code   RO         3820    .text               c_w.l(_printf_oct_int_ll.o)
    0x08001084   0x00000094   Code   RO         3840    .text               c_w.l(_printf_hex_int_ll_ptr.o)
    0x08001118   0x00000008   Code   RO         3928    .text               c_w.l(libspace.o)
    0x08001120   0x00000008   Code   RO         3949    .text               c_w.l(rt_locale_intlibspace.o)
    0x08001128   0x00000034   Code   RO         3955    .text               c_w.l(h1_extend.o)
    0x0800115c   0x0000008a   Code   RO         3959    .text               c_w.l(lludiv10.o)
    0x080011e6   0x000000b2   Code   RO         3961    .text               c_w.l(_printf_intcommon.o)
    0x08001298   0x000002fc   Code   RO         3963    .text               c_w.l(_printf_fp_hex.o)
    0x08001594   0x00000080   Code   RO         3966    .text               c_w.l(_printf_fp_infnan.o)
    0x08001614   0x0000002c   Code   RO         3970    .text               c_w.l(_printf_wchar.o)
    0x08001640   0x000000dc   Code   RO         3972    .text               c_w.l(bigflt0.o)
    0x0800171c   0x00000040   Code   RO         3997    .text               c_w.l(_wcrtomb.o)
    0x0800175c   0x0000000e   Code   RO         4002    .text               c_w.l(defsig_rtmem_outer.o)
    0x0800176a   0x00000002   Code   RO         4017    .text               c_w.l(use_no_semi.o)
    0x0800176c   0x00000000   Code   RO         4019    .text               c_w.l(indicate_semi.o)
    0x0800176c   0x0000004a   Code   RO         4020    .text               c_w.l(sys_stackheap_outer.o)
    0x080017b6   0x00000002   PAD
    0x080017b8   0x00000010   Code   RO         4022    .text               c_w.l(rt_ctype_table.o)
    0x080017c8   0x0000000c   Code   RO         4028    .text               c_w.l(exit.o)
    0x080017d4   0x0000000a   Code   RO         4030    .text               c_w.l(defsig_exit.o)
    0x080017de   0x00000002   PAD
    0x080017e0   0x00000050   Code   RO         4032    .text               c_w.l(defsig_rtmem_inner.o)
    0x08001830   0x0000000c   Code   RO         4044    .text               c_w.l(sys_exit.o)
    0x0800183c   0x00000032   Code   RO         4057    .text               c_w.l(defsig_general.o)
    0x0800186e   0x0000000e   Code   RO         4074    .text               c_w.l(sys_wrch.o)
    0x0800187c   0x0000003e   Code   RO         3975    CL$$btod_d2e        c_w.l(btod.o)
    0x080018ba   0x00000046   Code   RO         3977    CL$$btod_d2e_denorm_low  c_w.l(btod.o)
    0x08001900   0x00000060   Code   RO         3976    CL$$btod_d2e_norm_op1  c_w.l(btod.o)
    0x08001960   0x00000338   Code   RO         3985    CL$$btod_div_common  c_w.l(btod.o)
    0x08001c98   0x000000c6   Code   RO         3982    CL$$btod_e2e        c_w.l(btod.o)
    0x08001d5e   0x00000028   Code   RO         3979    CL$$btod_ediv       c_w.l(btod.o)
    0x08001d86   0x00000028   Code   RO         3978    CL$$btod_emul       c_w.l(btod.o)
    0x08001dae   0x00000244   Code   RO         3984    CL$$btod_mult_common  c_w.l(btod.o)
    0x08001ff2   0x00000002   PAD
    0x08001ff4   0x00000024   Code   RO          716    i.ADC1_GPIO_Config  adc.o
    0x08002018   0x00000016   Code   RO         1108    i.ADC_Cmd           stm32f10x_adc.o
    0x0800202e   0x00000014   Code   RO         1116    i.ADC_GetCalibrationStatus  stm32f10x_adc.o
    0x08002042   0x00000008   Code   RO         1117    i.ADC_GetConversionValue  stm32f10x_adc.o
    0x0800204a   0x00000012   Code   RO         1119    i.ADC_GetFlagStatus  stm32f10x_adc.o
    0x0800205c   0x00000014   Code   RO         1122    i.ADC_GetResetCalibrationStatus  stm32f10x_adc.o
    0x08002070   0x00000050   Code   RO         1126    i.ADC_Init          stm32f10x_adc.o
    0x080020c0   0x000000b8   Code   RO         1130    i.ADC_RegularChannelConfig  stm32f10x_adc.o
    0x08002178   0x0000000a   Code   RO         1131    i.ADC_ResetCalibration  stm32f10x_adc.o
    0x08002182   0x00000016   Code   RO         1133    i.ADC_SoftwareStartConvCmd  stm32f10x_adc.o
    0x08002198   0x0000000a   Code   RO         1135    i.ADC_StartCalibration  stm32f10x_adc.o
    0x080021a2   0x0000000c   Code   RO          717    i.ADCinit           adc.o
    0x080021ae   0x00000002   PAD
    0x080021b0   0x00000078   Code   RO          718    i.Adc1_Init         adc.o
    0x08002228   0x00000054   Code   RO         2889    i.AppFuncCmd_GetWidgetGroupCount  psdk_app_func.o
    0x0800227c   0x0000026c   Code   RO         2890    i.AppFuncCmd_GetWidgetGroupValue  psdk_app_func.o
    0x080024e8   0x0000003c   Code   RO         2891    i.AppFuncCmd_GetWidgetListLength  psdk_app_func.o
    0x08002524   0x0000013c   Code   RO         2892    i.AppFuncCmd_GetWidgetListValue  psdk_app_func.o
    0x08002660   0x00000058   Code   RO         2893    i.AppFuncCmd_SetWidgetValue  psdk_app_func.o
    0x080026b8   0x00000020   Code   RO         2894    i.AppFuncCmd_TT_AppToLoad  psdk_app_func.o
    0x080026d8   0x00000144   Code   RO          191    i.FillInUserInfo    application.o
    0x0800281c   0x00000116   Code   RO          770    i.GPIO_Init         stm32f10x_gpio.o
    0x08002932   0x00000002   PAD
    0x08002934   0x00000090   Code   RO          772    i.GPIO_PinRemapConfig  stm32f10x_gpio.o
    0x080029c4   0x00000012   Code   RO          776    i.GPIO_ReadOutputDataBit  stm32f10x_gpio.o
    0x080029d6   0x00000004   Code   RO          777    i.GPIO_ResetBits    stm32f10x_gpio.o
    0x080029da   0x00000004   Code   RO          778    i.GPIO_SetBits      stm32f10x_gpio.o
    0x080029de   0x0000000a   Code   RO          781    i.GPIO_WriteBit     stm32f10x_gpio.o
    0x080029e8   0x00000024   Code   RO          719    i.Get_Adc           adc.o
    0x08002a0c   0x00000030   Code   RO         3254    i.GimbalCmd_ControlSpeed  psdk_payload_gimbal.o
    0x08002a3c   0x00000034   Code   RO         3255    i.GimbalCmd_GetGimbalState  psdk_payload_gimbal.o
    0x08002a70   0x00000030   Code   RO         3256    i.GimbalCmd_ReturnHead  psdk_payload_gimbal.o
    0x08002aa0   0x00000030   Code   RO         3257    i.GimbalCmd_SetGimbalMode  psdk_payload_gimbal.o
    0x08002ad0   0x00000030   Code   RO         3258    i.GimbalCmd_StartCalibration  psdk_payload_gimbal.o
    0x08002b00   0x00000034   Code   RO         3259    i.GimbalCmd_SupportState  psdk_payload_gimbal.o
    0x08002b34   0x00000108   Code   RO         3515    i.GimbalEmu_ControlSpeed  test_payload_gimbal_emu.o
    0x08002c3c   0x00000264   Code   RO         3516    i.GimbalEmu_GetGimbalParam  test_payload_gimbal_emu.o
    0x08002ea0   0x0000004c   Code   RO         3517    i.GimbalEmu_ReturnHead  test_payload_gimbal_emu.o
    0x08002eec   0x00000044   Code   RO         3518    i.GimbalEmu_SetGimbalMode  test_payload_gimbal_emu.o
    0x08002f30   0x00000040   Code   RO         3519    i.GimbalEmu_StartCalibration  test_payload_gimbal_emu.o
    0x08002f70   0x00000058   Code   RO          372    i.LED_Control       led_button_switch.o
    0x08002fc8   0x0000002c   Code   RO          373    i.LED_Init          led_button_switch.o
    0x08002ff4   0x00000018   Code   RO          408    i.LOG_Init          log_printf.o
    0x0800300c   0x00000044   Code   RO          592    i.MotorDriverGPIO_Init  motordriver.o
    0x08003050   0x00000020   Code   RO         2983    i.MsgPushCmd_GpsRawData  psdk_msg_subcribe.o
    0x08003070   0x00000020   Code   RO         2984    i.MsgPushCmd_PushAppDateTime  psdk_msg_subcribe.o
    0x08003090   0x00000020   Code   RO         2985    i.MsgPushCmd_PushAttitude  psdk_msg_subcribe.o
    0x080030b0   0x00000020   Code   RO         2986    i.MsgPushCmd_PushBandWidth  psdk_msg_subcribe.o
    0x080030d0   0x00000020   Code   RO         2987    i.MsgPushCmd_PushBaroHeight  psdk_msg_subcribe.o
    0x080030f0   0x0000002c   Code   RO         2988    i.MsgPushCmd_PushBatteryInfo  psdk_msg_subcribe.o
    0x0800311c   0x00000020   Code   RO         2989    i.MsgPushCmd_PushGpsInfo  psdk_msg_subcribe.o
    0x0800313c   0x00000020   Code   RO         2990    i.MsgPushCmd_PushUavState  psdk_msg_subcribe.o
    0x0800315c   0x00000020   Code   RO         2991    i.MsgPushCmd_RtkRawData  psdk_msg_subcribe.o
    0x0800317c   0x00000070   Code   RO         2505    i.NVIC_Init         misc.o
    0x080031ec   0x0000011c   Code   RO         2553    i.PsdkAes_AddRoundKey  psdk_aes.o
    0x08003308   0x00000090   Code   RO         2554    i.PsdkAes_Decrypt   psdk_aes.o
    0x08003398   0x00000090   Code   RO         2555    i.PsdkAes_Encrypt   psdk_aes.o
    0x08003428   0x0000054c   Code   RO         2556    i.PsdkAes_InvMixColumns  psdk_aes.o
    0x08003974   0x00000032   Code   RO         2557    i.PsdkAes_InvShiftRows  psdk_aes.o
    0x080039a6   0x00000002   PAD
    0x080039a8   0x00000148   Code   RO         2558    i.PsdkAes_InvSubBytes  psdk_aes.o
    0x08003af0   0x000000ec   Code   RO         2559    i.PsdkAes_KeySetup  psdk_aes.o
    0x08003bdc   0x000003dc   Code   RO         2560    i.PsdkAes_MixColumns  psdk_aes.o
    0x08003fb8   0x0000027a   Code   RO         2561    i.PsdkAes_SetupDecrypt  psdk_aes.o
    0x08004232   0x00000292   Code   RO         2562    i.PsdkAes_SetupEncrypt  psdk_aes.o
    0x080044c4   0x00000032   Code   RO         2563    i.PsdkAes_ShiftRows  psdk_aes.o
    0x080044f6   0x00000002   PAD
    0x080044f8   0x00000148   Code   RO         2564    i.PsdkAes_SubBytes  psdk_aes.o
    0x08004640   0x00000058   Code   RO         2565    i.PsdkAes_SubWord   psdk_aes.o
    0x08004698   0x00000058   Code   RO         2895    i.PsdkAppFunc_Init  psdk_app_func.o
    0x080046f0   0x0000005e   Code   RO         2896    i.PsdkAppFunc_PushMsgToFloatingWindow  psdk_app_func.o
    0x0800474e   0x00000002   PAD
    0x08004750   0x00000010   Code   RO         2897    i.PsdkAppFunc_RegGetWidgetValueCallback  psdk_app_func.o
    0x08004760   0x00000010   Code   RO         2898    i.PsdkAppFunc_RegSetWidgetValueCallback  psdk_app_func.o
    0x08004770   0x00000010   Code   RO         2899    i.PsdkAppFunc_SetReceiveFromAppCallback  psdk_app_func.o
    0x08004780   0x00000018   Code   RO         2900    i.PsdkAppFunc_SetWidgetList  psdk_app_func.o
    0x08004798   0x000000ac   Code   RO         2901    i.PsdkAppFunc_TransferToApp  psdk_app_func.o
    0x08004844   0x00000070   Code   RO         2641    i.PsdkCrc_Crc16     psdk_crc.o
    0x080048b4   0x00000070   Code   RO         2642    i.PsdkCrc_Crc32     psdk_crc.o
    0x08004924   0x0000004c   Code   RO         2680    i.PsdkDebug_AssertFailed  psdk_debug.o
    0x08004970   0x0000003c   Code   RO         3260    i.PsdkGimbal_Init   psdk_payload_gimbal.o
    0x080049ac   0x000000b0   Code   RO          194    i.PsdkMotorTest     application.o
    0x08004a5c   0x00000030   Code   RO         2992    i.PsdkMsgSub_Init   psdk_msg_subcribe.o
    0x08004a8c   0x00000018   Code   RO         2993    i.PsdkMsgSub_RegMsgCallbackList  psdk_msg_subcribe.o
    0x08004aa4   0x00000034   Code   RO         3312    i.PsdkPayloadStateCmd_GetPayloadProductAlias  psdk_upper.o
    0x08004ad8   0x00000050   Code   RO         3313    i.PsdkPayloadStateCmd_GetPayloadProductInfo  psdk_upper.o
    0x08004b28   0x00000048   Code   RO         3314    i.PsdkPayloadStateCmd_GetSkyportVersionInfo  psdk_upper.o
    0x08004b70   0x00000038   Code   RO         3315    i.PsdkPayloadStateCmd_GetVersion  psdk_upper.o
    0x08004ba8   0x00000080   Code   RO         3316    i.PsdkPayloadStateCmd_IdentityVerify  psdk_upper.o
    0x08004c28   0x00000032   Code   RO         3317    i.PsdkPayloadStateCmd_LinkHandShake  psdk_upper.o
    0x08004c5a   0x00000002   PAD
    0x08004c5c   0x00000028   Code   RO          195    i.PsdkProcessRec    application.o
    0x08004c84   0x000000e0   Code   RO         2833    i.PsdkProtParse_AddByte  psdk_proto_parse.o
    0x08004d64   0x00000008   Code   RO         2834    i.PsdkProtParse_ErrorProcess  psdk_proto_parse.o
    0x08004d6c   0x00000008   Code   RO         2835    i.PsdkProtParse_Init  psdk_proto_parse.o
    0x08004d74   0x00000012   Code   RO         2744    i.PsdkProt_GetCurrentSendSeq  psdk_proto.o
    0x08004d86   0x000000ea   Code   RO         3318    i.PsdkProtoUpper_CalTransferKey  psdk_upper.o
    0x08004e70   0x00000124   Code   RO         2746    i.PsdkProto_DealCmd  psdk_proto.o
    0x08004f94   0x0000003a   Code   RO         2747    i.PsdkProto_DealFrame  psdk_proto.o
    0x08004fce   0x0000007c   Code   RO         2748    i.PsdkProto_FrameToInfoData  psdk_proto.o
    0x0800504a   0x00000138   Code   RO         2749    i.PsdkProto_InfoDataToFrame  psdk_proto.o
    0x08005182   0x0000004e   Code   RO         2750    i.PsdkProto_Init    psdk_proto.o
    0x080051d0   0x00000138   Code   RO         2751    i.PsdkProto_ProcessReceiveData  psdk_proto.o
    0x08005308   0x00000072   Code   RO         2752    i.PsdkProto_RegCmdSetHandler  psdk_proto.o
    0x0800537a   0x00000010   Code   RO         2753    i.PsdkProto_RegSendDataFunc  psdk_proto.o
    0x0800538a   0x00000040   Code   RO         2754    i.PsdkProto_Send    psdk_proto.o
    0x080053ca   0x0000003e   Code   RO         2755    i.PsdkProto_SendAckData  psdk_proto.o
    0x08005408   0x00000070   Code   RO         3319    i.PsdkUpper_Init    psdk_upper.o
    0x08005478   0x00000014   Code   RO         3320    i.PsdkUpper_ProcessReceiveData  psdk_upper.o
    0x0800548c   0x00000010   Code   RO         3321    i.PsdkUpper_RegSendFunction  psdk_upper.o
    0x0800549c   0x00000016   Code   RO          197    i.Psdk_Read         application.o
    0x080054b2   0x00000014   Code   RO          198    i.Psdk_Write        application.o
    0x080054c6   0x00000002   PAD
    0x080054c8   0x00000018   Code   RO          890    i.RCC_ADCCLKConfig  stm32f10x_rcc.o
    0x080054e0   0x00000020   Code   RO          892    i.RCC_APB1PeriphClockCmd  stm32f10x_rcc.o
    0x08005500   0x00000020   Code   RO          893    i.RCC_APB1PeriphResetCmd  stm32f10x_rcc.o
    0x08005520   0x00000020   Code   RO          894    i.RCC_APB2PeriphClockCmd  stm32f10x_rcc.o
    0x08005540   0x00000020   Code   RO          895    i.RCC_APB2PeriphResetCmd  stm32f10x_rcc.o
    0x08005560   0x0000005a   Code   RO            4    i.RCC_Configuration  main.o
    0x080055ba   0x00000002   PAD
    0x080055bc   0x0000004c   Code   RO          901    i.RCC_DeInit        stm32f10x_rcc.o
    0x08005608   0x000000d4   Code   RO          902    i.RCC_GetClocksFreq  stm32f10x_rcc.o
    0x080056dc   0x0000003c   Code   RO          903    i.RCC_GetFlagStatus  stm32f10x_rcc.o
    0x08005718   0x00000010   Code   RO          905    i.RCC_GetSYSCLKSource  stm32f10x_rcc.o
    0x08005728   0x00000018   Code   RO          906    i.RCC_HCLKConfig    stm32f10x_rcc.o
    0x08005740   0x0000000c   Code   RO          908    i.RCC_HSICmd        stm32f10x_rcc.o
    0x0800574c   0x00000018   Code   RO          913    i.RCC_PCLK1Config   stm32f10x_rcc.o
    0x08005764   0x00000018   Code   RO          914    i.RCC_PCLK2Config   stm32f10x_rcc.o
    0x0800577c   0x0000000c   Code   RO          915    i.RCC_PLLCmd        stm32f10x_rcc.o
    0x08005788   0x0000001c   Code   RO          916    i.RCC_PLLConfig     stm32f10x_rcc.o
    0x080057a4   0x00000018   Code   RO          919    i.RCC_SYSCLKConfig  stm32f10x_rcc.o
    0x080057bc   0x0000001e   Code   RO          296    i.RingBuf_CutBufSizeToPowOfTwo  dji_ringbuffer.o
    0x080057da   0x00000074   Code   RO          297    i.RingBuf_Get       dji_ringbuffer.o
    0x0800584e   0x00000024   Code   RO          299    i.RingBuf_Init      dji_ringbuffer.o
    0x08005872   0x0000007c   Code   RO          300    i.RingBuf_Put       dji_ringbuffer.o
    0x080058ee   0x00000008   Code   RO         3577    i.SetSysClock       system_stm32f10x.o
    0x080058f6   0x00000002   PAD
    0x080058f8   0x000000e0   Code   RO         3578    i.SetSysClockTo72   system_stm32f10x.o
    0x080059d8   0x00000030   Code   RO         3324    i.Str_PutStrToBuff  psdk_upper.o
    0x08005a08   0x00000060   Code   RO         3580    i.SystemInit        system_stm32f10x.o
    0x08005a68   0x000000c4   Code   RO          593    i.TIM4_IRQHandler   motordriver.o
    0x08005b2c   0x0000006c   Code   RO          594    i.TIM4_init         motordriver.o
    0x08005b98   0x00000018   Code   RO         1757    i.TIM_ARRPreloadConfig  stm32f10x_tim.o
    0x08005bb0   0x00000006   Code   RO         1764    i.TIM_ClearITPendingBit  stm32f10x_tim.o
    0x08005bb6   0x00000018   Code   RO         1769    i.TIM_Cmd           stm32f10x_tim.o
    0x08005bce   0x00000002   PAD
    0x08005bd0   0x000001e8   Code   RO         1774    i.TIM_DeInit        stm32f10x_tim.o
    0x08005db8   0x00000022   Code   RO         1790    i.TIM_GetITStatus   stm32f10x_tim.o
    0x08005dda   0x00000012   Code   RO         1794    i.TIM_ITConfig      stm32f10x_tim.o
    0x08005dec   0x000000a4   Code   RO         1840    i.TIM_TimeBaseInit  stm32f10x_tim.o
    0x08005e90   0x00000018   Code   RO         3404    i.Test_GetWidgetValueFunc  test_app_func.o
    0x08005ea8   0x0000003c   Code   RO         3405    i.Test_ReceiveFromMobileSDKFunc  test_app_func.o
    0x08005ee4   0x000000a8   Code   RO         3406    i.Test_SetWidgetValueFunc  test_app_func.o
    0x08005f8c   0x00000020   Code   RO          595    i.TurnDownMotro     motordriver.o
    0x08005fac   0x00000020   Code   RO          597    i.TurnOFFMotro      motordriver.o
    0x08005fcc   0x00000020   Code   RO          599    i.TurnUpMotro       motordriver.o
    0x08005fec   0x00000254   Code   RO          533    i.UART_Init         uart.o
    0x08006240   0x00000044   Code   RO          409    i.UART_Printf       log_printf.o
    0x08006284   0x0000005c   Code   RO          534    i.UART_Read         uart.o
    0x080062e0   0x0000008c   Code   RO          535    i.UART_Write        uart.o
    0x0800636c   0x00000060   Code   RO          536    i.USART1_IRQHandler  uart.o
    0x080063cc   0x00000060   Code   RO          537    i.USART2_IRQHandler  uart.o
    0x0800642c   0x00000060   Code   RO          538    i.USART3_IRQHandler  uart.o
    0x0800648c   0x00000018   Code   RO         2317    i.USART_Cmd         stm32f10x_usart.o
    0x080064a4   0x00000054   Code   RO         2321    i.USART_GetITStatus  stm32f10x_usart.o
    0x080064f8   0x0000004a   Code   RO         2323    i.USART_ITConfig    stm32f10x_usart.o
    0x08006542   0x00000002   PAD
    0x08006544   0x000000d8   Code   RO         2324    i.USART_Init        stm32f10x_usart.o
    0x0800661c   0x0000000a   Code   RO         2331    i.USART_ReceiveData  stm32f10x_usart.o
    0x08006626   0x00000008   Code   RO         2334    i.USART_SendData    stm32f10x_usart.o
    0x0800662e   0x00000028   Code   RO         4015    i.__ARM_fpclassify  m_ws.l(fpclassify.o)
    0x08006656   0x0000000e   Code   RO         3704    i._is_digit         c_w.l(__printf_wp.o)
    0x08006664   0x00000002   Code   RO         3449    i.appDateTimeMsgCallback  test_msg_push.o
    0x08006666   0x00000002   PAD
    0x08006668   0x000000a0   Code   RO          199    i.application_init  application.o
    0x08006708   0x00000002   Code   RO         3450    i.bandWidthMsgCallback  test_msg_push.o
    0x0800670a   0x00000002   Code   RO         3451    i.baroHeightDataMsgCallback  test_msg_push.o
    0x0800670c   0x0000000a   Code   RO         3452    i.batteryInfoMsgCallback  test_msg_push.o
    0x08006716   0x00000002   Code   RO         3453    i.gpsInfoMsgCallback  test_msg_push.o
    0x08006718   0x00000002   Code   RO         3454    i.gpsRawDataMsgCallback  test_msg_push.o
    0x0800671a   0x00000002   PAD
    0x0800671c   0x000000bc   Code   RO            5    i.main              main.o
    0x080067d8   0x000000ea   Code   RO         2702    i.md5_final         psdk_md5.o
    0x080068c2   0x00000002   PAD
    0x080068c4   0x00000028   Code   RO         2703    i.md5_init          psdk_md5.o
    0x080068ec   0x00000a80   Code   RO         2704    i.md5_transform     psdk_md5.o
    0x0800736c   0x00000044   Code   RO         2705    i.md5_update        psdk_md5.o
    0x080073b0   0x00000002   Code   RO         3455    i.rtkRawDataMsgCallback  test_msg_push.o
    0x080073b2   0x00000002   Code   RO         3456    i.uavAttitudeMsgCallback  test_msg_push.o
    0x080073b4   0x00000002   Code   RO         3457    i.uavStateMsgCallback  test_msg_push.o
    0x080073b6   0x00000002   PAD
    0x080073b8   0x0000002c   Code   RO         4000    locale$$code        c_w.l(lc_numeric_c.o)
    0x080073e4   0x0000002c   Code   RO         4053    locale$$code        c_w.l(lc_ctype_c.o)
    0x08007410   0x00000062   Code   RO         3737    x$fpl$d2f           fz_ws.l(d2f.o)
    0x08007472   0x00000002   PAD
    0x08007474   0x00000150   Code   RO         3739    x$fpl$dadd          fz_ws.l(daddsub_clz.o)
    0x080075c4   0x000002b0   Code   RO         3746    x$fpl$ddiv          fz_ws.l(ddiv.o)
    0x08007874   0x0000005e   Code   RO         3749    x$fpl$dfix          fz_ws.l(dfix.o)
    0x080078d2   0x0000002e   Code   RO         3754    x$fpl$dflt          fz_ws.l(dflt_clz.o)
    0x08007900   0x00000026   Code   RO         3753    x$fpl$dfltu         fz_ws.l(dflt_clz.o)
    0x08007926   0x00000002   PAD
    0x08007928   0x00000154   Code   RO         3759    x$fpl$dmul          fz_ws.l(dmul.o)
    0x08007a7c   0x0000009c   Code   RO         3911    x$fpl$dnaninf       fz_ws.l(dnaninf.o)
    0x08007b18   0x0000000c   Code   RO         3913    x$fpl$dretinf       fz_ws.l(dretinf.o)
    0x08007b24   0x000001d4   Code   RO         3741    x$fpl$dsub          fz_ws.l(daddsub_clz.o)
    0x08007cf8   0x00000056   Code   RO         3761    x$fpl$f2d           fz_ws.l(f2d.o)
    0x08007d4e   0x0000008c   Code   RO         3915    x$fpl$fnaninf       fz_ws.l(fnaninf.o)
    0x08007dda   0x0000000a   Code   RO         3917    x$fpl$fretinf       fz_ws.l(fretinf.o)
    0x08007de4   0x00000004   Code   RO         3763    x$fpl$printf1       fz_ws.l(printf1.o)
    0x08007de8   0x00000004   Code   RO         3919    x$fpl$printf2       fz_ws.l(printf2.o)
    0x08007dec   0x00000000   Code   RO         3925    x$fpl$usenofp       fz_ws.l(usenofp.o)
    0x08007dec   0x00000005   Data   RO            7    .constdata          main.o
    0x08007df1   0x00000003   PAD
    0x08007df4   0x00000024   Data   RO          201    .constdata          application.o
    0x08007e18   0x0000083c   Data   RO         2566    .constdata          psdk_aes.o
    0x08008654   0x00000300   Data   RO         2644    .constdata          psdk_crc.o
    0x08008954   0x00000017   Data   RO         2681    .constdata          psdk_debug.o
    0x0800896b   0x0000002f   Data   RO         2756    .constdata          psdk_proto.o
    0x0800899a   0x00000002   PAD
    0x0800899c   0x00000069   Data   RO         2902    .constdata          psdk_app_func.o
    0x08008a05   0x00000003   PAD
    0x08008a08   0x00000048   Data   RO         2995    .constdata          psdk_msg_subcribe.o
    0x08008a50   0x00000030   Data   RO         3262    .constdata          psdk_payload_gimbal.o
    0x08008a80   0x00000030   Data   RO         3326    .constdata          psdk_upper.o
    0x08008ab0   0x0000006b   Data   RO         3408    .constdata          test_app_func.o
    0x08008b1b   0x00000001   PAD
    0x08008b1c   0x00000024   Data   RO         3458    .constdata          test_msg_push.o
    0x08008b40   0x00000073   Data   RO         3520    .constdata          test_payload_gimbal_emu.o
    0x08008bb3   0x00000011   Data   RO         3712    .constdata          c_w.l(__printf_flags_ss_wp.o)
    0x08008bc4   0x00000008   Data   RO         3812    .constdata          c_w.l(_printf_wctomb.o)
    0x08008bcc   0x00000028   Data   RO         3841    .constdata          c_w.l(_printf_hex_int_ll_ptr.o)
    0x08008bf4   0x00000026   Data   RO         3964    .constdata          c_w.l(_printf_fp_hex.o)
    0x08008c1a   0x00000002   PAD
    0x08008c1c   0x00000094   Data   RO         3973    .constdata          c_w.l(bigflt0.o)
    0x08008cb0   0x000000c1   Data   RO          202    .conststring        application.o
    0x08008d71   0x00000003   PAD
    0x08008d74   0x0000004b   Data   RO         2757    .conststring        psdk_proto.o
    0x08008dbf   0x00000001   PAD
    0x08008dc0   0x00000095   Data   RO         2903    .conststring        psdk_app_func.o
    0x08008e55   0x00000003   PAD
    0x08008e58   0x00000006   Data   RO         3409    .conststring        test_app_func.o
    0x08008e5e   0x00000002   PAD
    0x08008e60   0x00000020   Data   RO         4104    Region$$Table       anon$$obj.o
    0x08008e80   0x0000001c   Data   RO         3999    locale$$data        c_w.l(lc_numeric_c.o)
    0x08008e9c   0x00000110   Data   RO         4052    locale$$data        c_w.l(lc_ctype_c.o)


    Execution Region RW_IRAM1 (Base: 0x20000000, Size: 0x000026b0, Max: 0x00005000, ABSOLUTE, COMPRESSED[0x0000042c])

    Base Addr    Size         Type   Attr      Idx    E Section Name        Object

    0x20000000   0x00000001   Data   RW          410    .data               log_printf.o
    0x20000001   0x00000003   PAD
    0x20000004   0x00000010   Data   RW          600    .data               motordriver.o
    0x20000014   0x00000004   Data   RW          720    .data               adc.o
    0x20000018   0x00000014   Data   RW          922    .data               stm32f10x_rcc.o
    0x2000002c   0x00000400   Data   RW         2645    .data               psdk_crc.o
    0x2000042c   0x00000011   Data   RW         2904    .data               psdk_app_func.o
    0x2000043d   0x00000001   Data   RW         3263    .data               psdk_payload_gimbal.o
    0x2000043e   0x00000004   Data   RW         3327    .data               psdk_upper.o
    0x20000442   0x00000002   PAD
    0x20000444   0x0000000c   Data   RW         3410    .data               test_app_func.o
    0x20000450   0x00000010   Data   RW         3521    .data               test_payload_gimbal_emu.o
    0x20000460   0x00000014   Zero   RW            6    .bss                main.o
    0x20000474   0x00000aa4   Zero   RW          200    .bss                application.o
    0x20000f18   0x00000c48   Zero   RW          539    .bss                uart.o
    0x20001b60   0x00000024   Zero   RW         2994    .bss                psdk_msg_subcribe.o
    0x20001b84   0x00000014   Zero   RW         3261    .bss                psdk_payload_gimbal.o
    0x20001b98   0x000000b5   Zero   RW         3325    .bss                psdk_upper.o
    0x20001c4d   0x00000400   Zero   RW         3407    .bss                test_app_func.o
    0x2000204d   0x00000003   PAD
    0x20002050   0x00000060   Zero   RW         3929    .bss                c_w.l(libspace.o)
    0x200020b0   0x00000200   Zero   RW         3568    HEAP                startup_stm32f10x_md.o
    0x200022b0   0x00000400   Zero   RW         3567    STACK               startup_stm32f10x_md.o


==============================================================================

Image component sizes


      Code (inc. data)   RO Data    RW Data    ZI Data      Debug   Object Name

       204         14          0          4          0       2151   adc.o
       742        274        229          0       2724       5360   application.o
       306          0          0          0          0       3239   dji_ringbuffer.o
       132         10          0          0          0       2550   led_button_switch.o
        92         10          0          1          0       1813   log_printf.o
       278         62          5          0         20     255778   main.o
       112         12          0          0          0       1072   misc.o
       468         50          0         16          0      23991   motordriver.o
      5288         98       2108          0          0      10323   psdk_aes.o
      1626        114        254         17          0      10497   psdk_app_func.o
       224         74        768       1024          0       2028   psdk_crc.o
        76         56         23          0          0        981   psdk_debug.o
      3030        264          0          0          0       5344   psdk_md5.o
       372         66         72          0         36       7650   psdk_msg_subcribe.o
       356         40         48          1         20       5758   psdk_payload_gimbal.o
      1450        258        122          0          0       8791   psdk_proto.o
       240          0          0          0          0       2489   psdk_proto_parse.o
       868         34         48          4        181       8696   psdk_upper.o
        64         26        236          0       1536        836   startup_stm32f10x_md.o
       394         10          0          0          0       8197   stm32f10x_adc.o
       458          6          0          0          0       5199   stm32f10x_gpio.o
       664        110          0         20          0      11844   stm32f10x_rcc.o
       758        106          0          0          0       5054   stm32f10x_tim.o
       416          6          0          0          0       5647   stm32f10x_usart.o
         0          0          0          0          0       1764   sys.o
       328         28          0          0          0       2061   system_stm32f10x.o
       252         80        113         12       1024       3163   test_app_func.o
        26          0         36          0          0       5084   test_msg_push.o
      1084        298        115         16          0       4704   test_payload_gimbal_emu.o
      1116        140          0          0       3144      14253   uart.o

    ----------------------------------------------------------------------
     21454       2246       4227       1120       8688     426317   Object Totals
         0          0         32          0          0          0   (incl. Generated)
        30          0         18          5          3          0   (incl. Padding)

    ----------------------------------------------------------------------

      Code (inc. data)   RO Data    RW Data    ZI Data      Debug   Library Member Name

        44          6          0          0          0         84   __2sprintf.o
       100          0          0          0          0          0   __dclz77c.o
         8          0          0          0          0         68   __main.o
       392          4         17          0          0         92   __printf_flags_ss_wp.o
        14          0          0          0          0         68   __printf_wp.o
         0          0          0          0          0          0   __rtentry.o
        12          0          0          0          0          0   __rtentry2.o
         6          0          0          0          0          0   __rtentry4.o
        52          8          0          0          0          0   __scatter.o
        28          0          0          0          0          0   __scatter_zi.o
         6          0          0          0          0          0   _printf_a.o
         6          0          0          0          0          0   _printf_c.o
        44          0          0          0          0        108   _printf_char.o
        48          6          0          0          0         96   _printf_char_common.o
        40          0          0          0          0         68   _printf_charcount.o
         6          0          0          0          0          0   _printf_d.o
       120         16          0          0          0         92   _printf_dec.o
         6          0          0          0          0          0   _printf_e.o
         6          0          0          0          0          0   _printf_f.o
      1050          0          0          0          0        216   _printf_fp_dec.o
       764         10         38          0          0        100   _printf_fp_hex.o
       128         16          0          0          0         84   _printf_fp_infnan.o
         6          0          0          0          0          0   _printf_g.o
       148          4         40          0          0        160   _printf_hex_int_ll_ptr.o
         6          0          0          0          0          0   _printf_i.o
       178          0          0          0          0         88   _printf_intcommon.o
        10          0          0          0          0          0   _printf_l.o
         6          0          0          0          0          0   _printf_lc.o
        10          0          0          0          0          0   _printf_ll.o
         6          0          0          0          0          0   _printf_lld.o
         6          0          0          0          0          0   _printf_lli.o
         6          0          0          0          0          0   _printf_llo.o
         6          0          0          0          0          0   _printf_llu.o
         6          0          0          0          0          0   _printf_llx.o
       124         16          0          0          0         92   _printf_longlong_dec.o
         6          0          0          0          0          0   _printf_ls.o
         6          0          0          0          0          0   _printf_n.o
         6          0          0          0          0          0   _printf_o.o
       112          8          0          0          0        124   _printf_oct_int_ll.o
         6          0          0          0          0          0   _printf_p.o
        78          0          0          0          0        108   _printf_pad.o
         0          0          0          0          0          0   _printf_percent.o
         4          0          0          0          0          0   _printf_percent_end.o
         6          0          0          0          0          0   _printf_s.o
        82          0          0          0          0         80   _printf_str.o
        36          0          0          0          0         84   _printf_truncate.o
         6          0          0          0          0          0   _printf_u.o
        44          0          0          0          0        108   _printf_wchar.o
       188          6          8          0          0         92   _printf_wctomb.o
         6          0          0          0          0          0   _printf_x.o
        16          0          0          0          0         68   _snputc.o
        10          0          0          0          0         68   _sputc.o
        64          0          0          0          0         92   _wcrtomb.o
       220          4        148          0          0         96   bigflt0.o
      1910        128          0          0          0        672   btod.o
        10          0          0          0          0         68   defsig_exit.o
        50          0          0          0          0         88   defsig_general.o
        80         58          0          0          0         76   defsig_rtmem_inner.o
        14          0          0          0          0         80   defsig_rtmem_outer.o
        12          0          0          0          0         72   exit.o
        94          0          0          0          0         80   h1_alloc.o
        52          0          0          0          0         68   h1_extend.o
        78          0          0          0          0         80   h1_free.o
        14          0          0          0          0         84   h1_init.o
         6          0          0          0          0        152   heapauxi.o
         4          0          0          0          0        136   hguard.o
         0          0          0          0          0          0   indicate_semi.o
       138          0          0          0          0        168   init_alloc.o
        44         10        272          0          0         76   lc_ctype_c.o
        44         10         28          0          0         76   lc_numeric_c.o
         2          0          0          0          0          0   libinit.o
        38          0          0          0          0          0   libinit2.o
         2          0          0          0          0          0   libshutdown.o
         2          0          0          0          0          0   libshutdown2.o
         8          4          0          0         96         68   libspace.o
       138          0          0          0          0         80   lludiv10.o
         0          0          0          0          0          0   maybetermalloc1.o
        16          4          0          0          0         76   rt_ctype_table.o
         8          4          0          0          0         68   rt_heap_descriptor_intlibspace.o
         8          4          0          0          0         68   rt_locale_intlibspace.o
        68          0          0          0          0         68   rt_memclr.o
        78          0          0          0          0         80   rt_memclr_w.o
       138          0          0          0          0         68   rt_memcpy_v6.o
       100          0          0          0          0         80   rt_memcpy_w.o
         2          0          0          0          0          0   rtexit.o
        10          0          0          0          0          0   rtexit2.o
       128          0          0          0          0         68   strcmpv7m.o
        72          0          0          0          0         80   strcpy.o
        62          0          0          0          0         76   strlen.o
        86          0          0          0          0         76   strncpy.o
        12          4          0          0          0         68   sys_exit.o
        74          0          0          0          0         80   sys_stackheap_outer.o
        14          0          0          0          0         76   sys_wrch.o
         2          0          0          0          0         68   use_no_semi.o
        52          4          0          0          0         80   vsnprintf.o
        98          4          0          0          0         92   d2f.o
       804         16          0          0          0        272   daddsub_clz.o
       688        140          0          0          0        208   ddiv.o
        94          4          0          0          0         92   dfix.o
        84          0          0          0          0        136   dflt_clz.o
       340         12          0          0          0        104   dmul.o
       156          4          0          0          0         92   dnaninf.o
        12          0          0          0          0         68   dretinf.o
        86          4          0          0          0         84   f2d.o
       140          4          0          0          0         84   fnaninf.o
        10          0          0          0          0         68   fretinf.o
         4          0          0          0          0         68   printf1.o
         4          0          0          0          0         68   printf2.o
         0          0          0          0          0          0   usenofp.o
        40          0          0          0          0         68   fpclassify.o

    ----------------------------------------------------------------------
     10546        522        553          0         96       7144   Library Totals
        22          0          2          0          0          0   (incl. Padding)

    ----------------------------------------------------------------------

      Code (inc. data)   RO Data    RW Data    ZI Data      Debug   Library Name

      7964        334        551          0         96       5640   c_w.l
      2520        188          0          0          0       1436   fz_ws.l
        40          0          0          0          0         68   m_ws.l

    ----------------------------------------------------------------------
     10546        522        553          0         96       7144   Library Totals

    ----------------------------------------------------------------------

==============================================================================


      Code (inc. data)   RO Data    RW Data    ZI Data      Debug   

     32000       2768       4780       1120       8784     420561   Grand Totals
     32000       2768       4780       1068       8784     420561   ELF Image Totals (compressed)
     32000       2768       4780       1068          0          0   ROM Totals

==============================================================================

    Total RO  Size (Code + RO Data)                36780 (  35.92kB)
    Total RW  Size (RW Data + ZI Data)              9904 (   9.67kB)
    Total ROM Size (Code + RO Data + RW Data)      37848 (  36.96kB)

==============================================================================

